
./build/debug-linux-x86_64_-_obj/ded/sv_main.o:     file format elf64-x86-64


Disassembly of section .text:

0000000000000000 <SV_ExpandNewlines>:
SV_ExpandNewlines():
/media/WD3tbUSB3_00/CODE/cpp/__S/workspace/Quake3e/code/server/sv_main.c:81
SV_ExpandNewlines

Converts newlines to "\n" so a line prints nicer
===============
*/
static const char *SV_ExpandNewlines( const char *in ) {
       0:	55                   	push   rbp
       1:	48 89 e5             	mov    rbp,rsp
       4:	48 89 7d e8          	mov    QWORD PTR [rbp-0x18],rdi
/media/WD3tbUSB3_00/CODE/cpp/__S/workspace/Quake3e/code/server/sv_main.c:85
	static char string[MAX_STRING_CHARS*2];
	int		l;

	l = 0;
       8:	c7 45 fc 00 00 00 00 	mov    DWORD PTR [rbp-0x4],0x0
/media/WD3tbUSB3_00/CODE/cpp/__S/workspace/Quake3e/code/server/sv_main.c:86
	while ( *in && l < sizeof(string) - 3 ) {
       f:	eb 5a                	jmp    6b <SV_ExpandNewlines+0x6b>
/media/WD3tbUSB3_00/CODE/cpp/__S/workspace/Quake3e/code/server/sv_main.c:87
		if ( *in == '\n' ) {
      11:	48 8b 45 e8          	mov    rax,QWORD PTR [rbp-0x18]
      15:	0f b6 00             	movzx  eax,BYTE PTR [rax]
      18:	3c 0a                	cmp    al,0xa
      1a:	75 2e                	jne    4a <SV_ExpandNewlines+0x4a>
/media/WD3tbUSB3_00/CODE/cpp/__S/workspace/Quake3e/code/server/sv_main.c:88
			string[l++] = '\\';
      1c:	8b 45 fc             	mov    eax,DWORD PTR [rbp-0x4]
      1f:	8d 50 01             	lea    edx,[rax+0x1]
      22:	89 55 fc             	mov    DWORD PTR [rbp-0x4],edx
      25:	48 98                	cdqe   
      27:	48 8d 15 00 00 00 00 	lea    rdx,[rip+0x0]        # 2e <SV_ExpandNewlines+0x2e>
      2e:	c6 04 10 5c          	mov    BYTE PTR [rax+rdx*1],0x5c
/media/WD3tbUSB3_00/CODE/cpp/__S/workspace/Quake3e/code/server/sv_main.c:89
			string[l++] = 'n';
      32:	8b 45 fc             	mov    eax,DWORD PTR [rbp-0x4]
      35:	8d 50 01             	lea    edx,[rax+0x1]
      38:	89 55 fc             	mov    DWORD PTR [rbp-0x4],edx
      3b:	48 98                	cdqe   
      3d:	48 8d 15 00 00 00 00 	lea    rdx,[rip+0x0]        # 44 <SV_ExpandNewlines+0x44>
      44:	c6 04 10 6e          	mov    BYTE PTR [rax+rdx*1],0x6e
      48:	eb 1c                	jmp    66 <SV_ExpandNewlines+0x66>
/media/WD3tbUSB3_00/CODE/cpp/__S/workspace/Quake3e/code/server/sv_main.c:91
		} else {
			string[l++] = *in;
      4a:	8b 45 fc             	mov    eax,DWORD PTR [rbp-0x4]
      4d:	8d 50 01             	lea    edx,[rax+0x1]
      50:	89 55 fc             	mov    DWORD PTR [rbp-0x4],edx
      53:	48 8b 55 e8          	mov    rdx,QWORD PTR [rbp-0x18]
      57:	0f b6 12             	movzx  edx,BYTE PTR [rdx]
      5a:	48 98                	cdqe   
      5c:	48 8d 0d 00 00 00 00 	lea    rcx,[rip+0x0]        # 63 <SV_ExpandNewlines+0x63>
      63:	88 14 08             	mov    BYTE PTR [rax+rcx*1],dl
/media/WD3tbUSB3_00/CODE/cpp/__S/workspace/Quake3e/code/server/sv_main.c:93
		}
		in++;
      66:	48 83 45 e8 01       	add    QWORD PTR [rbp-0x18],0x1
/media/WD3tbUSB3_00/CODE/cpp/__S/workspace/Quake3e/code/server/sv_main.c:86
	while ( *in && l < sizeof(string) - 3 ) {
      6b:	48 8b 45 e8          	mov    rax,QWORD PTR [rbp-0x18]
      6f:	0f b6 00             	movzx  eax,BYTE PTR [rax]
      72:	84 c0                	test   al,al
      74:	74 0a                	je     80 <SV_ExpandNewlines+0x80>
/media/WD3tbUSB3_00/CODE/cpp/__S/workspace/Quake3e/code/server/sv_main.c:86 (discriminator 1)
      76:	8b 45 fc             	mov    eax,DWORD PTR [rbp-0x4]
      79:	3d fc 07 00 00       	cmp    eax,0x7fc
      7e:	76 91                	jbe    11 <SV_ExpandNewlines+0x11>
/media/WD3tbUSB3_00/CODE/cpp/__S/workspace/Quake3e/code/server/sv_main.c:95
	}
	string[l] = '\0';
      80:	8b 45 fc             	mov    eax,DWORD PTR [rbp-0x4]
      83:	48 98                	cdqe   
      85:	48 8d 15 00 00 00 00 	lea    rdx,[rip+0x0]        # 8c <SV_ExpandNewlines+0x8c>
      8c:	c6 04 10 00          	mov    BYTE PTR [rax+rdx*1],0x0
/media/WD3tbUSB3_00/CODE/cpp/__S/workspace/Quake3e/code/server/sv_main.c:97

	return string;
      90:	48 8d 05 00 00 00 00 	lea    rax,[rip+0x0]        # 97 <SV_ExpandNewlines+0x97>
/media/WD3tbUSB3_00/CODE/cpp/__S/workspace/Quake3e/code/server/sv_main.c:98
}
      97:	5d                   	pop    rbp
      98:	c3                   	ret    

0000000000000099 <SV_AddServerCommand>:
SV_AddServerCommand():
/media/WD3tbUSB3_00/CODE/cpp/__S/workspace/Quake3e/code/server/sv_main.c:142

The given command will be transmitted to the client, and is guaranteed to
not have future snapshot_t executed before it is executed
======================
*/
void SV_AddServerCommand( client_t *client, const char *cmd ) {
      99:	55                   	push   rbp
      9a:	48 89 e5             	mov    rbp,rsp
      9d:	48 83 ec 20          	sub    rsp,0x20
      a1:	48 89 7d e8          	mov    QWORD PTR [rbp-0x18],rdi
      a5:	48 89 75 e0          	mov    QWORD PTR [rbp-0x20],rsi
/media/WD3tbUSB3_00/CODE/cpp/__S/workspace/Quake3e/code/server/sv_main.c:152
//	if ( SV_ReplacePendingServerCommands( client, cmd ) ) {
//		return;
//	}

	// do not send commands until the gamestate has been sent
	if ( client->state < CS_PRIMED )
      a9:	48 8b 45 e8          	mov    rax,QWORD PTR [rbp-0x18]
      ad:	8b 00                	mov    eax,DWORD PTR [rax]
      af:	83 f8 02             	cmp    eax,0x2
      b2:	0f 86 32 01 00 00    	jbe    1ea <SV_AddServerCommand+0x151>
/media/WD3tbUSB3_00/CODE/cpp/__S/workspace/Quake3e/code/server/sv_main.c:155
		return;

	client->reliableSequence++;
      b8:	48 8b 45 e8          	mov    rax,QWORD PTR [rbp-0x18]
      bc:	8b 80 04 04 01 00    	mov    eax,DWORD PTR [rax+0x10404]
      c2:	8d 50 01             	lea    edx,[rax+0x1]
      c5:	48 8b 45 e8          	mov    rax,QWORD PTR [rbp-0x18]
      c9:	89 90 04 04 01 00    	mov    DWORD PTR [rax+0x10404],edx
/media/WD3tbUSB3_00/CODE/cpp/__S/workspace/Quake3e/code/server/sv_main.c:160
	// if we would be losing an old command that hasn't been acknowledged,
	// we must drop the connection
	// we check == instead of >= so a broadcast print added by SV_DropClient()
	// doesn't cause a recursive drop client
	if ( client->reliableSequence - client->reliableAcknowledge == MAX_RELIABLE_COMMANDS + 1 ) {
      cf:	48 8b 45 e8          	mov    rax,QWORD PTR [rbp-0x18]
      d3:	8b 90 04 04 01 00    	mov    edx,DWORD PTR [rax+0x10404]
      d9:	48 8b 45 e8          	mov    rax,QWORD PTR [rbp-0x18]
      dd:	8b 80 08 04 01 00    	mov    eax,DWORD PTR [rax+0x10408]
      e3:	29 c2                	sub    edx,eax
      e5:	89 d0                	mov    eax,edx
      e7:	83 f8 41             	cmp    eax,0x41
      ea:	0f 85 b9 00 00 00    	jne    1a9 <SV_AddServerCommand+0x110>
/media/WD3tbUSB3_00/CODE/cpp/__S/workspace/Quake3e/code/server/sv_main.c:161
		Com_Printf( "===== pending server commands =====\n" );
      f0:	48 8d 3d 00 00 00 00 	lea    rdi,[rip+0x0]        # f7 <SV_AddServerCommand+0x5e>
      f7:	b8 00 00 00 00       	mov    eax,0x0
      fc:	e8 00 00 00 00       	call   101 <SV_AddServerCommand+0x68>
/media/WD3tbUSB3_00/CODE/cpp/__S/workspace/Quake3e/code/server/sv_main.c:162
		n = client->reliableSequence - client->reliableAcknowledge;
     101:	48 8b 45 e8          	mov    rax,QWORD PTR [rbp-0x18]
     105:	8b 90 04 04 01 00    	mov    edx,DWORD PTR [rax+0x10404]
     10b:	48 8b 45 e8          	mov    rax,QWORD PTR [rbp-0x18]
     10f:	8b 80 08 04 01 00    	mov    eax,DWORD PTR [rax+0x10408]
     115:	29 c2                	sub    edx,eax
     117:	89 d0                	mov    eax,edx
     119:	89 45 f8             	mov    DWORD PTR [rbp-0x8],eax
/media/WD3tbUSB3_00/CODE/cpp/__S/workspace/Quake3e/code/server/sv_main.c:163
		for ( i = 0; i < n; i++ ) {
     11c:	c7 45 fc 00 00 00 00 	mov    DWORD PTR [rbp-0x4],0x0
     123:	eb 4d                	jmp    172 <SV_AddServerCommand+0xd9>
/media/WD3tbUSB3_00/CODE/cpp/__S/workspace/Quake3e/code/server/sv_main.c:164 (discriminator 3)
			const int index = client->reliableAcknowledge + 1 + i;
     125:	48 8b 45 e8          	mov    rax,QWORD PTR [rbp-0x18]
     129:	8b 80 08 04 01 00    	mov    eax,DWORD PTR [rax+0x10408]
     12f:	8d 50 01             	lea    edx,[rax+0x1]
     132:	8b 45 fc             	mov    eax,DWORD PTR [rbp-0x4]
     135:	01 d0                	add    eax,edx
     137:	89 45 f4             	mov    DWORD PTR [rbp-0xc],eax
/media/WD3tbUSB3_00/CODE/cpp/__S/workspace/Quake3e/code/server/sv_main.c:165 (discriminator 3)
			Com_Printf( "cmd %5d: %s\n", i, client->reliableCommands[ index & ( MAX_RELIABLE_COMMANDS - 1 ) ] );
     13a:	8b 45 f4             	mov    eax,DWORD PTR [rbp-0xc]
     13d:	83 e0 3f             	and    eax,0x3f
     140:	48 98                	cdqe   
     142:	48 83 c0 01          	add    rax,0x1
     146:	48 c1 e0 0a          	shl    rax,0xa
     14a:	48 89 c2             	mov    rdx,rax
     14d:	48 8b 45 e8          	mov    rax,QWORD PTR [rbp-0x18]
     151:	48 01 d0             	add    rax,rdx
     154:	48 8d 50 04          	lea    rdx,[rax+0x4]
     158:	8b 45 fc             	mov    eax,DWORD PTR [rbp-0x4]
     15b:	89 c6                	mov    esi,eax
     15d:	48 8d 3d 00 00 00 00 	lea    rdi,[rip+0x0]        # 164 <SV_AddServerCommand+0xcb>
     164:	b8 00 00 00 00       	mov    eax,0x0
     169:	e8 00 00 00 00       	call   16e <SV_AddServerCommand+0xd5>
/media/WD3tbUSB3_00/CODE/cpp/__S/workspace/Quake3e/code/server/sv_main.c:163 (discriminator 3)
		for ( i = 0; i < n; i++ ) {
     16e:	83 45 fc 01          	add    DWORD PTR [rbp-0x4],0x1
/media/WD3tbUSB3_00/CODE/cpp/__S/workspace/Quake3e/code/server/sv_main.c:163 (discriminator 1)
     172:	8b 45 fc             	mov    eax,DWORD PTR [rbp-0x4]
     175:	3b 45 f8             	cmp    eax,DWORD PTR [rbp-0x8]
     178:	7c ab                	jl     125 <SV_AddServerCommand+0x8c>
/media/WD3tbUSB3_00/CODE/cpp/__S/workspace/Quake3e/code/server/sv_main.c:167
		}
		Com_Printf( "cmd %5d: %s\n", i, cmd );
     17a:	48 8b 55 e0          	mov    rdx,QWORD PTR [rbp-0x20]
     17e:	8b 45 fc             	mov    eax,DWORD PTR [rbp-0x4]
     181:	89 c6                	mov    esi,eax
     183:	48 8d 3d 00 00 00 00 	lea    rdi,[rip+0x0]        # 18a <SV_AddServerCommand+0xf1>
     18a:	b8 00 00 00 00       	mov    eax,0x0
     18f:	e8 00 00 00 00       	call   194 <SV_AddServerCommand+0xfb>
/media/WD3tbUSB3_00/CODE/cpp/__S/workspace/Quake3e/code/server/sv_main.c:168
		SV_DropClient( client, "Server command overflow" );
     194:	48 8b 45 e8          	mov    rax,QWORD PTR [rbp-0x18]
     198:	48 8d 35 00 00 00 00 	lea    rsi,[rip+0x0]        # 19f <SV_AddServerCommand+0x106>
     19f:	48 89 c7             	mov    rdi,rax
     1a2:	e8 00 00 00 00       	call   1a7 <SV_AddServerCommand+0x10e>
/media/WD3tbUSB3_00/CODE/cpp/__S/workspace/Quake3e/code/server/sv_main.c:169
		return;
     1a7:	eb 42                	jmp    1eb <SV_AddServerCommand+0x152>
/media/WD3tbUSB3_00/CODE/cpp/__S/workspace/Quake3e/code/server/sv_main.c:171
	}
	index = client->reliableSequence & ( MAX_RELIABLE_COMMANDS - 1 );
     1a9:	48 8b 45 e8          	mov    rax,QWORD PTR [rbp-0x18]
     1ad:	8b 80 04 04 01 00    	mov    eax,DWORD PTR [rax+0x10404]
     1b3:	83 e0 3f             	and    eax,0x3f
     1b6:	89 45 f0             	mov    DWORD PTR [rbp-0x10],eax
/media/WD3tbUSB3_00/CODE/cpp/__S/workspace/Quake3e/code/server/sv_main.c:172
	Q_strncpyz( client->reliableCommands[ index ], cmd, sizeof( client->reliableCommands[ index ] ) );
     1b9:	8b 45 f0             	mov    eax,DWORD PTR [rbp-0x10]
     1bc:	48 98                	cdqe   
     1be:	48 83 c0 01          	add    rax,0x1
     1c2:	48 c1 e0 0a          	shl    rax,0xa
     1c6:	48 89 c2             	mov    rdx,rax
     1c9:	48 8b 45 e8          	mov    rax,QWORD PTR [rbp-0x18]
     1cd:	48 01 d0             	add    rax,rdx
     1d0:	48 8d 48 04          	lea    rcx,[rax+0x4]
     1d4:	48 8b 45 e0          	mov    rax,QWORD PTR [rbp-0x20]
     1d8:	ba 00 04 00 00       	mov    edx,0x400
     1dd:	48 89 c6             	mov    rsi,rax
     1e0:	48 89 cf             	mov    rdi,rcx
     1e3:	e8 00 00 00 00       	call   1e8 <SV_AddServerCommand+0x14f>
     1e8:	eb 01                	jmp    1eb <SV_AddServerCommand+0x152>
/media/WD3tbUSB3_00/CODE/cpp/__S/workspace/Quake3e/code/server/sv_main.c:153
		return;
     1ea:	90                   	nop
/media/WD3tbUSB3_00/CODE/cpp/__S/workspace/Quake3e/code/server/sv_main.c:173
}
     1eb:	c9                   	leave  
     1ec:	c3                   	ret    

00000000000001ed <SV_SendServerCommand>:
SV_SendServerCommand():
/media/WD3tbUSB3_00/CODE/cpp/__S/workspace/Quake3e/code/server/sv_main.c:185
Sends a reliable command string to be interpreted by 
the client game module: "cp", "print", "chat", etc
A NULL client will broadcast to all clients
=================
*/
void QDECL SV_SendServerCommand( client_t *cl, const char *fmt, ... ) {
     1ed:	55                   	push   rbp
     1ee:	48 89 e5             	mov    rbp,rsp
     1f1:	48 81 ec 70 05 00 00 	sub    rsp,0x570
     1f8:	48 89 bd 98 fa ff ff 	mov    QWORD PTR [rbp-0x568],rdi
     1ff:	48 89 b5 90 fa ff ff 	mov    QWORD PTR [rbp-0x570],rsi
     206:	48 89 95 60 ff ff ff 	mov    QWORD PTR [rbp-0xa0],rdx
     20d:	48 89 8d 68 ff ff ff 	mov    QWORD PTR [rbp-0x98],rcx
     214:	4c 89 85 70 ff ff ff 	mov    QWORD PTR [rbp-0x90],r8
     21b:	4c 89 8d 78 ff ff ff 	mov    QWORD PTR [rbp-0x88],r9
     222:	84 c0                	test   al,al
     224:	74 20                	je     246 <SV_SendServerCommand+0x59>
     226:	0f 29 45 80          	movaps XMMWORD PTR [rbp-0x80],xmm0
     22a:	0f 29 4d 90          	movaps XMMWORD PTR [rbp-0x70],xmm1
     22e:	0f 29 55 a0          	movaps XMMWORD PTR [rbp-0x60],xmm2
     232:	0f 29 5d b0          	movaps XMMWORD PTR [rbp-0x50],xmm3
     236:	0f 29 65 c0          	movaps XMMWORD PTR [rbp-0x40],xmm4
     23a:	0f 29 6d d0          	movaps XMMWORD PTR [rbp-0x30],xmm5
     23e:	0f 29 75 e0          	movaps XMMWORD PTR [rbp-0x20],xmm6
     242:	0f 29 7d f0          	movaps XMMWORD PTR [rbp-0x10],xmm7
/media/WD3tbUSB3_00/CODE/cpp/__S/workspace/Quake3e/code/server/sv_main.c:191
	va_list		argptr;
	char		message[MAX_STRING_CHARS+128]; // slightly larger than allowed, to detect overflows
	client_t	*client;
	int			j, len;
	
	va_start( argptr, fmt );
     246:	c7 85 28 ff ff ff 10 	mov    DWORD PTR [rbp-0xd8],0x10
     24d:	00 00 00 
     250:	c7 85 2c ff ff ff 30 	mov    DWORD PTR [rbp-0xd4],0x30
     257:	00 00 00 
     25a:	48 8d 45 10          	lea    rax,[rbp+0x10]
     25e:	48 89 85 30 ff ff ff 	mov    QWORD PTR [rbp-0xd0],rax
     265:	48 8d 85 50 ff ff ff 	lea    rax,[rbp-0xb0]
     26c:	48 89 85 38 ff ff ff 	mov    QWORD PTR [rbp-0xc8],rax
/media/WD3tbUSB3_00/CODE/cpp/__S/workspace/Quake3e/code/server/sv_main.c:192
	len = Q_vsnprintf( message, sizeof( message ), fmt, argptr );
     273:	48 8d 8d 28 ff ff ff 	lea    rcx,[rbp-0xd8]
     27a:	48 8b 95 90 fa ff ff 	mov    rdx,QWORD PTR [rbp-0x570]
     281:	48 8d 85 a0 fa ff ff 	lea    rax,[rbp-0x560]
     288:	be 80 04 00 00       	mov    esi,0x480
     28d:	48 89 c7             	mov    rdi,rax
     290:	e8 00 00 00 00       	call   295 <SV_SendServerCommand+0xa8>
     295:	89 85 40 ff ff ff    	mov    DWORD PTR [rbp-0xc0],eax
/media/WD3tbUSB3_00/CODE/cpp/__S/workspace/Quake3e/code/server/sv_main.c:195
	va_end( argptr );

	if ( cl != NULL ) {
     29b:	48 83 bd 98 fa ff ff 	cmp    QWORD PTR [rbp-0x568],0x0
     2a2:	00 
     2a3:	74 3f                	je     2e4 <SV_SendServerCommand+0xf7>
/media/WD3tbUSB3_00/CODE/cpp/__S/workspace/Quake3e/code/server/sv_main.c:198
		// outdated clients can't properly decode 1023-chars-long strings
		// http://aluigi.altervista.org/adv/q3msgboom-adv.txt
		if ( len <= 1022 || cl->longstr ) {
     2a5:	81 bd 40 ff ff ff fe 	cmp    DWORD PTR [rbp-0xc0],0x3fe
     2ac:	03 00 00 
     2af:	7e 15                	jle    2c6 <SV_SendServerCommand+0xd9>
/media/WD3tbUSB3_00/CODE/cpp/__S/workspace/Quake3e/code/server/sv_main.c:198 (discriminator 1)
     2b1:	48 8b 85 98 fa ff ff 	mov    rax,QWORD PTR [rbp-0x568]
     2b8:	8b 80 c8 dd 02 00    	mov    eax,DWORD PTR [rax+0x2ddc8]
     2be:	85 c0                	test   eax,eax
     2c0:	0f 84 e4 00 00 00    	je     3aa <SV_SendServerCommand+0x1bd>
/media/WD3tbUSB3_00/CODE/cpp/__S/workspace/Quake3e/code/server/sv_main.c:199
			SV_AddServerCommand( cl, message );
     2c6:	48 8d 95 a0 fa ff ff 	lea    rdx,[rbp-0x560]
     2cd:	48 8b 85 98 fa ff ff 	mov    rax,QWORD PTR [rbp-0x568]
     2d4:	48 89 d6             	mov    rsi,rdx
     2d7:	48 89 c7             	mov    rdi,rax
     2da:	e8 00 00 00 00       	call   2df <SV_SendServerCommand+0xf2>
     2df:	e9 c7 00 00 00       	jmp    3ab <SV_SendServerCommand+0x1be>
/media/WD3tbUSB3_00/CODE/cpp/__S/workspace/Quake3e/code/server/sv_main.c:205
		}
		return;
	}

	// hack to echo broadcast prints to console
	if ( com_dedicated->integer && !strncmp( message, "print", 5 ) ) {
     2e4:	48 8b 05 00 00 00 00 	mov    rax,QWORD PTR [rip+0x0]        # 2eb <SV_SendServerCommand+0xfe>
     2eb:	8b 40 30             	mov    eax,DWORD PTR [rax+0x30]
     2ee:	85 c0                	test   eax,eax
     2f0:	74 42                	je     334 <SV_SendServerCommand+0x147>
/media/WD3tbUSB3_00/CODE/cpp/__S/workspace/Quake3e/code/server/sv_main.c:205 (discriminator 1)
     2f2:	48 8d 85 a0 fa ff ff 	lea    rax,[rbp-0x560]
     2f9:	ba 05 00 00 00       	mov    edx,0x5
     2fe:	48 8d 35 00 00 00 00 	lea    rsi,[rip+0x0]        # 305 <SV_SendServerCommand+0x118>
     305:	48 89 c7             	mov    rdi,rax
     308:	e8 00 00 00 00       	call   30d <SV_SendServerCommand+0x120>
     30d:	85 c0                	test   eax,eax
     30f:	75 23                	jne    334 <SV_SendServerCommand+0x147>
/media/WD3tbUSB3_00/CODE/cpp/__S/workspace/Quake3e/code/server/sv_main.c:206
		Com_Printf( "broadcast: %s\n", SV_ExpandNewlines( message ) );
     311:	48 8d 85 a0 fa ff ff 	lea    rax,[rbp-0x560]
     318:	48 89 c7             	mov    rdi,rax
     31b:	e8 e0 fc ff ff       	call   0 <SV_ExpandNewlines>
     320:	48 89 c6             	mov    rsi,rax
     323:	48 8d 3d 00 00 00 00 	lea    rdi,[rip+0x0]        # 32a <SV_SendServerCommand+0x13d>
     32a:	b8 00 00 00 00       	mov    eax,0x0
     32f:	e8 00 00 00 00       	call   334 <SV_SendServerCommand+0x147>
/media/WD3tbUSB3_00/CODE/cpp/__S/workspace/Quake3e/code/server/sv_main.c:210
	}

	// send the data to all relevant clients
	for ( j = 0, client = svs.clients; j < sv_maxclients->integer ; j++, client++ ) {
     334:	c7 85 44 ff ff ff 00 	mov    DWORD PTR [rbp-0xbc],0x0
     33b:	00 00 00 
     33e:	48 8b 05 00 00 00 00 	mov    rax,QWORD PTR [rip+0x0]        # 345 <SV_SendServerCommand+0x158>
     345:	48 89 85 48 ff ff ff 	mov    QWORD PTR [rbp-0xb8],rax
     34c:	eb 48                	jmp    396 <SV_SendServerCommand+0x1a9>
/media/WD3tbUSB3_00/CODE/cpp/__S/workspace/Quake3e/code/server/sv_main.c:211
		if ( len <= 1022 || client->longstr ) {
     34e:	81 bd 40 ff ff ff fe 	cmp    DWORD PTR [rbp-0xc0],0x3fe
     355:	03 00 00 
     358:	7e 11                	jle    36b <SV_SendServerCommand+0x17e>
/media/WD3tbUSB3_00/CODE/cpp/__S/workspace/Quake3e/code/server/sv_main.c:211 (discriminator 1)
     35a:	48 8b 85 48 ff ff ff 	mov    rax,QWORD PTR [rbp-0xb8]
     361:	8b 80 c8 dd 02 00    	mov    eax,DWORD PTR [rax+0x2ddc8]
     367:	85 c0                	test   eax,eax
     369:	74 19                	je     384 <SV_SendServerCommand+0x197>
/media/WD3tbUSB3_00/CODE/cpp/__S/workspace/Quake3e/code/server/sv_main.c:212
			SV_AddServerCommand( client, message );
     36b:	48 8d 95 a0 fa ff ff 	lea    rdx,[rbp-0x560]
     372:	48 8b 85 48 ff ff ff 	mov    rax,QWORD PTR [rbp-0xb8]
     379:	48 89 d6             	mov    rsi,rdx
     37c:	48 89 c7             	mov    rdi,rax
     37f:	e8 00 00 00 00       	call   384 <SV_SendServerCommand+0x197>
/media/WD3tbUSB3_00/CODE/cpp/__S/workspace/Quake3e/code/server/sv_main.c:210 (discriminator 2)
	for ( j = 0, client = svs.clients; j < sv_maxclients->integer ; j++, client++ ) {
     384:	83 85 44 ff ff ff 01 	add    DWORD PTR [rbp-0xbc],0x1
     38b:	48 81 85 48 ff ff ff 	add    QWORD PTR [rbp-0xb8],0x2dde0
     392:	e0 dd 02 00 
/media/WD3tbUSB3_00/CODE/cpp/__S/workspace/Quake3e/code/server/sv_main.c:210 (discriminator 1)
     396:	48 8b 05 00 00 00 00 	mov    rax,QWORD PTR [rip+0x0]        # 39d <SV_SendServerCommand+0x1b0>
     39d:	8b 40 30             	mov    eax,DWORD PTR [rax+0x30]
     3a0:	39 85 44 ff ff ff    	cmp    DWORD PTR [rbp-0xbc],eax
     3a6:	7c a6                	jl     34e <SV_SendServerCommand+0x161>
     3a8:	eb 01                	jmp    3ab <SV_SendServerCommand+0x1be>
/media/WD3tbUSB3_00/CODE/cpp/__S/workspace/Quake3e/code/server/sv_main.c:201
		return;
     3aa:	90                   	nop
/media/WD3tbUSB3_00/CODE/cpp/__S/workspace/Quake3e/code/server/sv_main.c:215
		}
	}
}
     3ab:	c9                   	leave  
     3ac:	c3                   	ret    

00000000000003ad <SV_MasterHeartbeat>:
SV_MasterHeartbeat():
/media/WD3tbUSB3_00/CODE/cpp/__S/workspace/Quake3e/code/server/sv_main.c:240
================
*/
#define	HEARTBEAT_MSEC	(300*1000)
#define	MASTERDNS_MSEC	(24*60*60*1000)
static void SV_MasterHeartbeat( const char *message )
{
     3ad:	55                   	push   rbp
     3ae:	48 89 e5             	mov    rbp,rsp
     3b1:	48 83 ec 20          	sub    rsp,0x20
     3b5:	48 89 7d e8          	mov    QWORD PTR [rbp-0x18],rdi
/media/WD3tbUSB3_00/CODE/cpp/__S/workspace/Quake3e/code/server/sv_main.c:246
	static netadr_t	adr[MAX_MASTER_SERVERS][2]; // [2] for v4 and v6 address for the same address string.
	int			i;
	int			res;
	int			netenabled;

	netenabled = Cvar_VariableIntegerValue("net_enabled");
     3b9:	48 8d 3d 00 00 00 00 	lea    rdi,[rip+0x0]        # 3c0 <SV_MasterHeartbeat+0x13>
     3c0:	e8 00 00 00 00       	call   3c5 <SV_MasterHeartbeat+0x18>
     3c5:	89 45 f8             	mov    DWORD PTR [rbp-0x8],eax
/media/WD3tbUSB3_00/CODE/cpp/__S/workspace/Quake3e/code/server/sv_main.c:249

	// "dedicated 1" is for lan play, "dedicated 2" is for inet public play
	if (!com_dedicated || com_dedicated->integer != 2 || !(netenabled & (NET_ENABLEV4 | NET_ENABLEV6)))
     3c8:	48 8b 05 00 00 00 00 	mov    rax,QWORD PTR [rip+0x0]        # 3cf <SV_MasterHeartbeat+0x22>
     3cf:	48 85 c0             	test   rax,rax
     3d2:	0f 84 9e 04 00 00    	je     876 <SV_MasterHeartbeat+0x4c9>
/media/WD3tbUSB3_00/CODE/cpp/__S/workspace/Quake3e/code/server/sv_main.c:249 (discriminator 1)
     3d8:	48 8b 05 00 00 00 00 	mov    rax,QWORD PTR [rip+0x0]        # 3df <SV_MasterHeartbeat+0x32>
     3df:	8b 40 30             	mov    eax,DWORD PTR [rax+0x30]
     3e2:	83 f8 02             	cmp    eax,0x2
     3e5:	0f 85 8b 04 00 00    	jne    876 <SV_MasterHeartbeat+0x4c9>
/media/WD3tbUSB3_00/CODE/cpp/__S/workspace/Quake3e/code/server/sv_main.c:249 (discriminator 2)
     3eb:	8b 45 f8             	mov    eax,DWORD PTR [rbp-0x8]
     3ee:	83 e0 03             	and    eax,0x3
     3f1:	85 c0                	test   eax,eax
     3f3:	0f 84 7d 04 00 00    	je     876 <SV_MasterHeartbeat+0x4c9>
/media/WD3tbUSB3_00/CODE/cpp/__S/workspace/Quake3e/code/server/sv_main.c:253
		return;		// only dedicated servers send heartbeats

	// if not time yet, don't send anything
	if ( svs.nextHeartbeatTime - svs.time > 0 )
     3f9:	8b 15 00 00 00 00    	mov    edx,DWORD PTR [rip+0x0]        # 3ff <SV_MasterHeartbeat+0x52>
     3ff:	8b 05 00 00 00 00    	mov    eax,DWORD PTR [rip+0x0]        # 405 <SV_MasterHeartbeat+0x58>
     405:	29 c2                	sub    edx,eax
     407:	89 d0                	mov    eax,edx
     409:	85 c0                	test   eax,eax
     40b:	0f 8f 68 04 00 00    	jg     879 <SV_MasterHeartbeat+0x4cc>
/media/WD3tbUSB3_00/CODE/cpp/__S/workspace/Quake3e/code/server/sv_main.c:256
		return;

	svs.nextHeartbeatTime = svs.time + HEARTBEAT_MSEC;
     411:	8b 05 00 00 00 00    	mov    eax,DWORD PTR [rip+0x0]        # 417 <SV_MasterHeartbeat+0x6a>
     417:	05 e0 93 04 00       	add    eax,0x493e0
     41c:	89 05 00 00 00 00    	mov    DWORD PTR [rip+0x0],eax        # 422 <SV_MasterHeartbeat+0x75>
/media/WD3tbUSB3_00/CODE/cpp/__S/workspace/Quake3e/code/server/sv_main.c:259

	// send to group masters
	for (i = 0; i < MAX_MASTER_SERVERS; i++)
     422:	c7 45 fc 00 00 00 00 	mov    DWORD PTR [rbp-0x4],0x0
     429:	e9 3c 04 00 00       	jmp    86a <SV_MasterHeartbeat+0x4bd>
/media/WD3tbUSB3_00/CODE/cpp/__S/workspace/Quake3e/code/server/sv_main.c:261
	{
		if(!sv_master[i]->string[0])
     42e:	8b 45 fc             	mov    eax,DWORD PTR [rbp-0x4]
     431:	48 98                	cdqe   
     433:	48 8d 14 c5 00 00 00 	lea    rdx,[rax*8+0x0]
     43a:	00 
     43b:	48 8d 05 00 00 00 00 	lea    rax,[rip+0x0]        # 442 <SV_MasterHeartbeat+0x95>
     442:	48 8b 04 02          	mov    rax,QWORD PTR [rdx+rax*1]
     446:	48 8b 40 08          	mov    rax,QWORD PTR [rax+0x8]
     44a:	0f b6 00             	movzx  eax,BYTE PTR [rax]
     44d:	84 c0                	test   al,al
     44f:	0f 84 0d 04 00 00    	je     862 <SV_MasterHeartbeat+0x4b5>
/media/WD3tbUSB3_00/CODE/cpp/__S/workspace/Quake3e/code/server/sv_main.c:266
			continue;

		// see if we haven't already resolved the name or if it's been over 24 hours
		// resolving usually causes hitches on win95, so only do it when needed
		if ( sv_master[i]->modified || svs.time - svs.masterResolveTime[i] > 0 )
     455:	8b 45 fc             	mov    eax,DWORD PTR [rbp-0x4]
     458:	48 98                	cdqe   
     45a:	48 8d 14 c5 00 00 00 	lea    rdx,[rax*8+0x0]
     461:	00 
     462:	48 8d 05 00 00 00 00 	lea    rax,[rip+0x0]        # 469 <SV_MasterHeartbeat+0xbc>
     469:	48 8b 04 02          	mov    rax,QWORD PTR [rdx+rax*1]
     46d:	8b 40 24             	mov    eax,DWORD PTR [rax+0x24]
     470:	85 c0                	test   eax,eax
     472:	75 2d                	jne    4a1 <SV_MasterHeartbeat+0xf4>
/media/WD3tbUSB3_00/CODE/cpp/__S/workspace/Quake3e/code/server/sv_main.c:266 (discriminator 1)
     474:	8b 15 00 00 00 00    	mov    edx,DWORD PTR [rip+0x0]        # 47a <SV_MasterHeartbeat+0xcd>
     47a:	8b 45 fc             	mov    eax,DWORD PTR [rbp-0x4]
     47d:	48 98                	cdqe   
     47f:	48 83 c0 14          	add    rax,0x14
     483:	48 8d 0c 85 00 00 00 	lea    rcx,[rax*4+0x0]
     48a:	00 
     48b:	48 8d 05 00 00 00 00 	lea    rax,[rip+0x0]        # 492 <SV_MasterHeartbeat+0xe5>
     492:	8b 04 01             	mov    eax,DWORD PTR [rcx+rax*1]
     495:	29 c2                	sub    edx,eax
     497:	89 d0                	mov    eax,edx
     499:	85 c0                	test   eax,eax
     49b:	0f 8e ba 02 00 00    	jle    75b <SV_MasterHeartbeat+0x3ae>
/media/WD3tbUSB3_00/CODE/cpp/__S/workspace/Quake3e/code/server/sv_main.c:268
		{
			sv_master[i]->modified = qfalse;
     4a1:	8b 45 fc             	mov    eax,DWORD PTR [rbp-0x4]
     4a4:	48 98                	cdqe   
     4a6:	48 8d 14 c5 00 00 00 	lea    rdx,[rax*8+0x0]
     4ad:	00 
     4ae:	48 8d 05 00 00 00 00 	lea    rax,[rip+0x0]        # 4b5 <SV_MasterHeartbeat+0x108>
     4b5:	48 8b 04 02          	mov    rax,QWORD PTR [rdx+rax*1]
     4b9:	c7 40 24 00 00 00 00 	mov    DWORD PTR [rax+0x24],0x0
/media/WD3tbUSB3_00/CODE/cpp/__S/workspace/Quake3e/code/server/sv_main.c:269
			svs.masterResolveTime[i] = svs.time + MASTERDNS_MSEC;
     4c0:	8b 05 00 00 00 00    	mov    eax,DWORD PTR [rip+0x0]        # 4c6 <SV_MasterHeartbeat+0x119>
     4c6:	8d 88 00 5c 26 05    	lea    ecx,[rax+0x5265c00]
     4cc:	8b 45 fc             	mov    eax,DWORD PTR [rbp-0x4]
     4cf:	48 98                	cdqe   
     4d1:	48 83 c0 14          	add    rax,0x14
     4d5:	48 8d 14 85 00 00 00 	lea    rdx,[rax*4+0x0]
     4dc:	00 
     4dd:	48 8d 05 00 00 00 00 	lea    rax,[rip+0x0]        # 4e4 <SV_MasterHeartbeat+0x137>
     4e4:	89 0c 02             	mov    DWORD PTR [rdx+rax*1],ecx
/media/WD3tbUSB3_00/CODE/cpp/__S/workspace/Quake3e/code/server/sv_main.c:271
			
			if(netenabled & NET_ENABLEV4)
     4e7:	8b 45 f8             	mov    eax,DWORD PTR [rbp-0x8]
     4ea:	83 e0 01             	and    eax,0x1
     4ed:	85 c0                	test   eax,eax
     4ef:	0f 84 2b 01 00 00    	je     620 <SV_MasterHeartbeat+0x273>
/media/WD3tbUSB3_00/CODE/cpp/__S/workspace/Quake3e/code/server/sv_main.c:273
			{
				Com_Printf("Resolving %s (IPv4)\n", sv_master[i]->string);
     4f5:	8b 45 fc             	mov    eax,DWORD PTR [rbp-0x4]
     4f8:	48 98                	cdqe   
     4fa:	48 8d 14 c5 00 00 00 	lea    rdx,[rax*8+0x0]
     501:	00 
     502:	48 8d 05 00 00 00 00 	lea    rax,[rip+0x0]        # 509 <SV_MasterHeartbeat+0x15c>
     509:	48 8b 04 02          	mov    rax,QWORD PTR [rdx+rax*1]
     50d:	48 8b 40 08          	mov    rax,QWORD PTR [rax+0x8]
     511:	48 89 c6             	mov    rsi,rax
     514:	48 8d 3d 00 00 00 00 	lea    rdi,[rip+0x0]        # 51b <SV_MasterHeartbeat+0x16e>
     51b:	b8 00 00 00 00       	mov    eax,0x0
     520:	e8 00 00 00 00       	call   525 <SV_MasterHeartbeat+0x178>
/media/WD3tbUSB3_00/CODE/cpp/__S/workspace/Quake3e/code/server/sv_main.c:274
				res = NET_StringToAdr(sv_master[i]->string, &adr[i][0], NA_IP);
     525:	8b 45 fc             	mov    eax,DWORD PTR [rbp-0x4]
     528:	48 98                	cdqe   
     52a:	48 c1 e0 06          	shl    rax,0x6
     52e:	48 89 c2             	mov    rdx,rax
     531:	48 8d 05 00 00 00 00 	lea    rax,[rip+0x0]        # 538 <SV_MasterHeartbeat+0x18b>
     538:	48 8d 0c 02          	lea    rcx,[rdx+rax*1]
     53c:	8b 45 fc             	mov    eax,DWORD PTR [rbp-0x4]
     53f:	48 98                	cdqe   
     541:	48 8d 14 c5 00 00 00 	lea    rdx,[rax*8+0x0]
     548:	00 
     549:	48 8d 05 00 00 00 00 	lea    rax,[rip+0x0]        # 550 <SV_MasterHeartbeat+0x1a3>
     550:	48 8b 04 02          	mov    rax,QWORD PTR [rdx+rax*1]
     554:	48 8b 40 08          	mov    rax,QWORD PTR [rax+0x8]
     558:	ba 04 00 00 00       	mov    edx,0x4
     55d:	48 89 ce             	mov    rsi,rcx
     560:	48 89 c7             	mov    rdi,rax
     563:	e8 00 00 00 00       	call   568 <SV_MasterHeartbeat+0x1bb>
     568:	89 45 f4             	mov    DWORD PTR [rbp-0xc],eax
/media/WD3tbUSB3_00/CODE/cpp/__S/workspace/Quake3e/code/server/sv_main.c:276

				if(res == 2)
     56b:	83 7d f4 02          	cmp    DWORD PTR [rbp-0xc],0x2
     56f:	75 23                	jne    594 <SV_MasterHeartbeat+0x1e7>
/media/WD3tbUSB3_00/CODE/cpp/__S/workspace/Quake3e/code/server/sv_main.c:279
				{
					// if no port was specified, use the default master port
					adr[i][0].port = BigShort(PORT_MASTER);
     571:	bf 2e 6d 00 00       	mov    edi,0x6d2e
     576:	e8 00 00 00 00       	call   57b <SV_MasterHeartbeat+0x1ce>
     57b:	89 c1                	mov    ecx,eax
     57d:	8b 45 fc             	mov    eax,DWORD PTR [rbp-0x4]
     580:	48 98                	cdqe   
     582:	48 c1 e0 06          	shl    rax,0x6
     586:	48 89 c2             	mov    rdx,rax
     589:	48 8d 05 00 00 00 00 	lea    rax,[rip+0x0]        # 590 <SV_MasterHeartbeat+0x1e3>
     590:	66 89 0c 02          	mov    WORD PTR [rdx+rax*1],cx
/media/WD3tbUSB3_00/CODE/cpp/__S/workspace/Quake3e/code/server/sv_main.c:282
				}
				
				if(res)
     594:	83 7d f4 00          	cmp    DWORD PTR [rbp-0xc],0x0
     598:	74 56                	je     5f0 <SV_MasterHeartbeat+0x243>
/media/WD3tbUSB3_00/CODE/cpp/__S/workspace/Quake3e/code/server/sv_main.c:283
					Com_Printf( "%s resolved to %s\n", sv_master[i]->string, NET_AdrToStringwPort( &adr[i][0] ) );
     59a:	8b 45 fc             	mov    eax,DWORD PTR [rbp-0x4]
     59d:	48 98                	cdqe   
     59f:	48 c1 e0 06          	shl    rax,0x6
     5a3:	48 89 c2             	mov    rdx,rax
     5a6:	48 8d 05 00 00 00 00 	lea    rax,[rip+0x0]        # 5ad <SV_MasterHeartbeat+0x200>
     5ad:	48 01 d0             	add    rax,rdx
     5b0:	48 89 c7             	mov    rdi,rax
     5b3:	e8 00 00 00 00       	call   5b8 <SV_MasterHeartbeat+0x20b>
     5b8:	48 89 c1             	mov    rcx,rax
     5bb:	8b 45 fc             	mov    eax,DWORD PTR [rbp-0x4]
     5be:	48 98                	cdqe   
     5c0:	48 8d 14 c5 00 00 00 	lea    rdx,[rax*8+0x0]
     5c7:	00 
     5c8:	48 8d 05 00 00 00 00 	lea    rax,[rip+0x0]        # 5cf <SV_MasterHeartbeat+0x222>
     5cf:	48 8b 04 02          	mov    rax,QWORD PTR [rdx+rax*1]
     5d3:	48 8b 40 08          	mov    rax,QWORD PTR [rax+0x8]
     5d7:	48 89 ca             	mov    rdx,rcx
     5da:	48 89 c6             	mov    rsi,rax
     5dd:	48 8d 3d 00 00 00 00 	lea    rdi,[rip+0x0]        # 5e4 <SV_MasterHeartbeat+0x237>
     5e4:	b8 00 00 00 00       	mov    eax,0x0
     5e9:	e8 00 00 00 00       	call   5ee <SV_MasterHeartbeat+0x241>
     5ee:	eb 30                	jmp    620 <SV_MasterHeartbeat+0x273>
/media/WD3tbUSB3_00/CODE/cpp/__S/workspace/Quake3e/code/server/sv_main.c:285
				else
					Com_Printf( "%s has no IPv4 address.\n", sv_master[i]->string );
     5f0:	8b 45 fc             	mov    eax,DWORD PTR [rbp-0x4]
     5f3:	48 98                	cdqe   
     5f5:	48 8d 14 c5 00 00 00 	lea    rdx,[rax*8+0x0]
     5fc:	00 
     5fd:	48 8d 05 00 00 00 00 	lea    rax,[rip+0x0]        # 604 <SV_MasterHeartbeat+0x257>
     604:	48 8b 04 02          	mov    rax,QWORD PTR [rdx+rax*1]
     608:	48 8b 40 08          	mov    rax,QWORD PTR [rax+0x8]
     60c:	48 89 c6             	mov    rsi,rax
     60f:	48 8d 3d 00 00 00 00 	lea    rdi,[rip+0x0]        # 616 <SV_MasterHeartbeat+0x269>
     616:	b8 00 00 00 00       	mov    eax,0x0
     61b:	e8 00 00 00 00       	call   620 <SV_MasterHeartbeat+0x273>
/media/WD3tbUSB3_00/CODE/cpp/__S/workspace/Quake3e/code/server/sv_main.c:288
			}
#ifdef USE_IPV6
			if(netenabled & NET_ENABLEV6)
     620:	8b 45 f8             	mov    eax,DWORD PTR [rbp-0x8]
     623:	83 e0 02             	and    eax,0x2
     626:	85 c0                	test   eax,eax
     628:	0f 84 2d 01 00 00    	je     75b <SV_MasterHeartbeat+0x3ae>
/media/WD3tbUSB3_00/CODE/cpp/__S/workspace/Quake3e/code/server/sv_main.c:290
			{
				Com_Printf("Resolving %s (IPv6)\n", sv_master[i]->string);
     62e:	8b 45 fc             	mov    eax,DWORD PTR [rbp-0x4]
     631:	48 98                	cdqe   
     633:	48 8d 14 c5 00 00 00 	lea    rdx,[rax*8+0x0]
     63a:	00 
     63b:	48 8d 05 00 00 00 00 	lea    rax,[rip+0x0]        # 642 <SV_MasterHeartbeat+0x295>
     642:	48 8b 04 02          	mov    rax,QWORD PTR [rdx+rax*1]
     646:	48 8b 40 08          	mov    rax,QWORD PTR [rax+0x8]
     64a:	48 89 c6             	mov    rsi,rax
     64d:	48 8d 3d 00 00 00 00 	lea    rdi,[rip+0x0]        # 654 <SV_MasterHeartbeat+0x2a7>
     654:	b8 00 00 00 00       	mov    eax,0x0
     659:	e8 00 00 00 00       	call   65e <SV_MasterHeartbeat+0x2b1>
/media/WD3tbUSB3_00/CODE/cpp/__S/workspace/Quake3e/code/server/sv_main.c:291
				res = NET_StringToAdr(sv_master[i]->string, &adr[i][1], NA_IP6);
     65e:	8b 45 fc             	mov    eax,DWORD PTR [rbp-0x4]
     661:	48 98                	cdqe   
     663:	48 c1 e0 06          	shl    rax,0x6
     667:	48 8d 50 20          	lea    rdx,[rax+0x20]
     66b:	48 8d 05 00 00 00 00 	lea    rax,[rip+0x0]        # 672 <SV_MasterHeartbeat+0x2c5>
     672:	48 8d 0c 02          	lea    rcx,[rdx+rax*1]
     676:	8b 45 fc             	mov    eax,DWORD PTR [rbp-0x4]
     679:	48 98                	cdqe   
     67b:	48 8d 14 c5 00 00 00 	lea    rdx,[rax*8+0x0]
     682:	00 
     683:	48 8d 05 00 00 00 00 	lea    rax,[rip+0x0]        # 68a <SV_MasterHeartbeat+0x2dd>
     68a:	48 8b 04 02          	mov    rax,QWORD PTR [rdx+rax*1]
     68e:	48 8b 40 08          	mov    rax,QWORD PTR [rax+0x8]
     692:	ba 05 00 00 00       	mov    edx,0x5
     697:	48 89 ce             	mov    rsi,rcx
     69a:	48 89 c7             	mov    rdi,rax
     69d:	e8 00 00 00 00       	call   6a2 <SV_MasterHeartbeat+0x2f5>
     6a2:	89 45 f4             	mov    DWORD PTR [rbp-0xc],eax
/media/WD3tbUSB3_00/CODE/cpp/__S/workspace/Quake3e/code/server/sv_main.c:293

				if(res == 2)
     6a5:	83 7d f4 02          	cmp    DWORD PTR [rbp-0xc],0x2
     6a9:	75 23                	jne    6ce <SV_MasterHeartbeat+0x321>
/media/WD3tbUSB3_00/CODE/cpp/__S/workspace/Quake3e/code/server/sv_main.c:296
				{
					// if no port was specified, use the default master port
					adr[i][1].port = BigShort(PORT_MASTER);
     6ab:	bf 2e 6d 00 00       	mov    edi,0x6d2e
     6b0:	e8 00 00 00 00       	call   6b5 <SV_MasterHeartbeat+0x308>
     6b5:	89 c1                	mov    ecx,eax
     6b7:	8b 45 fc             	mov    eax,DWORD PTR [rbp-0x4]
     6ba:	48 98                	cdqe   
     6bc:	48 c1 e0 06          	shl    rax,0x6
     6c0:	48 89 c2             	mov    rdx,rax
     6c3:	48 8d 05 00 00 00 00 	lea    rax,[rip+0x0]        # 6ca <SV_MasterHeartbeat+0x31d>
     6ca:	66 89 0c 02          	mov    WORD PTR [rdx+rax*1],cx
/media/WD3tbUSB3_00/CODE/cpp/__S/workspace/Quake3e/code/server/sv_main.c:299
				}
				
				if(res)
     6ce:	83 7d f4 00          	cmp    DWORD PTR [rbp-0xc],0x0
     6d2:	74 57                	je     72b <SV_MasterHeartbeat+0x37e>
/media/WD3tbUSB3_00/CODE/cpp/__S/workspace/Quake3e/code/server/sv_main.c:300
					Com_Printf( "%s resolved to %s\n", sv_master[i]->string, NET_AdrToStringwPort( &adr[i][1] ) );
     6d4:	8b 45 fc             	mov    eax,DWORD PTR [rbp-0x4]
     6d7:	48 98                	cdqe   
     6d9:	48 c1 e0 06          	shl    rax,0x6
     6dd:	48 8d 50 20          	lea    rdx,[rax+0x20]
     6e1:	48 8d 05 00 00 00 00 	lea    rax,[rip+0x0]        # 6e8 <SV_MasterHeartbeat+0x33b>
     6e8:	48 01 d0             	add    rax,rdx
     6eb:	48 89 c7             	mov    rdi,rax
     6ee:	e8 00 00 00 00       	call   6f3 <SV_MasterHeartbeat+0x346>
     6f3:	48 89 c1             	mov    rcx,rax
     6f6:	8b 45 fc             	mov    eax,DWORD PTR [rbp-0x4]
     6f9:	48 98                	cdqe   
     6fb:	48 8d 14 c5 00 00 00 	lea    rdx,[rax*8+0x0]
     702:	00 
     703:	48 8d 05 00 00 00 00 	lea    rax,[rip+0x0]        # 70a <SV_MasterHeartbeat+0x35d>
     70a:	48 8b 04 02          	mov    rax,QWORD PTR [rdx+rax*1]
     70e:	48 8b 40 08          	mov    rax,QWORD PTR [rax+0x8]
     712:	48 89 ca             	mov    rdx,rcx
     715:	48 89 c6             	mov    rsi,rax
     718:	48 8d 3d 00 00 00 00 	lea    rdi,[rip+0x0]        # 71f <SV_MasterHeartbeat+0x372>
     71f:	b8 00 00 00 00       	mov    eax,0x0
     724:	e8 00 00 00 00       	call   729 <SV_MasterHeartbeat+0x37c>
     729:	eb 30                	jmp    75b <SV_MasterHeartbeat+0x3ae>
/media/WD3tbUSB3_00/CODE/cpp/__S/workspace/Quake3e/code/server/sv_main.c:302
				else
					Com_Printf( "%s has no IPv6 address.\n", sv_master[i]->string );
     72b:	8b 45 fc             	mov    eax,DWORD PTR [rbp-0x4]
     72e:	48 98                	cdqe   
     730:	48 8d 14 c5 00 00 00 	lea    rdx,[rax*8+0x0]
     737:	00 
     738:	48 8d 05 00 00 00 00 	lea    rax,[rip+0x0]        # 73f <SV_MasterHeartbeat+0x392>
     73f:	48 8b 04 02          	mov    rax,QWORD PTR [rdx+rax*1]
     743:	48 8b 40 08          	mov    rax,QWORD PTR [rax+0x8]
     747:	48 89 c6             	mov    rsi,rax
     74a:	48 8d 3d 00 00 00 00 	lea    rdi,[rip+0x0]        # 751 <SV_MasterHeartbeat+0x3a4>
     751:	b8 00 00 00 00       	mov    eax,0x0
     756:	e8 00 00 00 00       	call   75b <SV_MasterHeartbeat+0x3ae>
/media/WD3tbUSB3_00/CODE/cpp/__S/workspace/Quake3e/code/server/sv_main.c:307
			}
#endif
		}

		if( adr[i][0].type == NA_BAD && adr[i][1].type == NA_BAD )
     75b:	8b 45 fc             	mov    eax,DWORD PTR [rbp-0x4]
     75e:	48 98                	cdqe   
     760:	48 c1 e0 06          	shl    rax,0x6
     764:	48 89 c2             	mov    rdx,rax
     767:	48 8d 05 00 00 00 00 	lea    rax,[rip+0x0]        # 76e <SV_MasterHeartbeat+0x3c1>
     76e:	8b 04 02             	mov    eax,DWORD PTR [rdx+rax*1]
     771:	85 c0                	test   eax,eax
     773:	75 1e                	jne    793 <SV_MasterHeartbeat+0x3e6>
/media/WD3tbUSB3_00/CODE/cpp/__S/workspace/Quake3e/code/server/sv_main.c:307 (discriminator 1)
     775:	8b 45 fc             	mov    eax,DWORD PTR [rbp-0x4]
     778:	48 98                	cdqe   
     77a:	48 c1 e0 06          	shl    rax,0x6
     77e:	48 89 c2             	mov    rdx,rax
     781:	48 8d 05 00 00 00 00 	lea    rax,[rip+0x0]        # 788 <SV_MasterHeartbeat+0x3db>
     788:	8b 04 02             	mov    eax,DWORD PTR [rdx+rax*1]
     78b:	85 c0                	test   eax,eax
     78d:	0f 84 d2 00 00 00    	je     865 <SV_MasterHeartbeat+0x4b8>
/media/WD3tbUSB3_00/CODE/cpp/__S/workspace/Quake3e/code/server/sv_main.c:313
		{
			continue;
		}


		Com_Printf ("Sending heartbeat to %s\n", sv_master[i]->string );
     793:	8b 45 fc             	mov    eax,DWORD PTR [rbp-0x4]
     796:	48 98                	cdqe   
     798:	48 8d 14 c5 00 00 00 	lea    rdx,[rax*8+0x0]
     79f:	00 
     7a0:	48 8d 05 00 00 00 00 	lea    rax,[rip+0x0]        # 7a7 <SV_MasterHeartbeat+0x3fa>
     7a7:	48 8b 04 02          	mov    rax,QWORD PTR [rdx+rax*1]
     7ab:	48 8b 40 08          	mov    rax,QWORD PTR [rax+0x8]
     7af:	48 89 c6             	mov    rsi,rax
     7b2:	48 8d 3d 00 00 00 00 	lea    rdi,[rip+0x0]        # 7b9 <SV_MasterHeartbeat+0x40c>
     7b9:	b8 00 00 00 00       	mov    eax,0x0
     7be:	e8 00 00 00 00       	call   7c3 <SV_MasterHeartbeat+0x416>
/media/WD3tbUSB3_00/CODE/cpp/__S/workspace/Quake3e/code/server/sv_main.c:318

		// this command should be changed if the server info / status format
		// ever incompatably changes

		if(adr[i][0].type != NA_BAD)
     7c3:	8b 45 fc             	mov    eax,DWORD PTR [rbp-0x4]
     7c6:	48 98                	cdqe   
     7c8:	48 c1 e0 06          	shl    rax,0x6
     7cc:	48 89 c2             	mov    rdx,rax
     7cf:	48 8d 05 00 00 00 00 	lea    rax,[rip+0x0]        # 7d6 <SV_MasterHeartbeat+0x429>
     7d6:	8b 04 02             	mov    eax,DWORD PTR [rdx+rax*1]
     7d9:	85 c0                	test   eax,eax
     7db:	74 34                	je     811 <SV_MasterHeartbeat+0x464>
/media/WD3tbUSB3_00/CODE/cpp/__S/workspace/Quake3e/code/server/sv_main.c:319
			NET_OutOfBandPrint( NS_SERVER, &adr[i][0], "heartbeat %s\n", message);
     7dd:	8b 45 fc             	mov    eax,DWORD PTR [rbp-0x4]
     7e0:	48 98                	cdqe   
     7e2:	48 c1 e0 06          	shl    rax,0x6
     7e6:	48 89 c2             	mov    rdx,rax
     7e9:	48 8d 05 00 00 00 00 	lea    rax,[rip+0x0]        # 7f0 <SV_MasterHeartbeat+0x443>
     7f0:	48 8d 34 02          	lea    rsi,[rdx+rax*1]
     7f4:	48 8b 45 e8          	mov    rax,QWORD PTR [rbp-0x18]
     7f8:	48 89 c1             	mov    rcx,rax
     7fb:	48 8d 15 00 00 00 00 	lea    rdx,[rip+0x0]        # 802 <SV_MasterHeartbeat+0x455>
     802:	bf 01 00 00 00       	mov    edi,0x1
     807:	b8 00 00 00 00       	mov    eax,0x0
     80c:	e8 00 00 00 00       	call   811 <SV_MasterHeartbeat+0x464>
/media/WD3tbUSB3_00/CODE/cpp/__S/workspace/Quake3e/code/server/sv_main.c:320
		if(adr[i][1].type != NA_BAD)
     811:	8b 45 fc             	mov    eax,DWORD PTR [rbp-0x4]
     814:	48 98                	cdqe   
     816:	48 c1 e0 06          	shl    rax,0x6
     81a:	48 89 c2             	mov    rdx,rax
     81d:	48 8d 05 00 00 00 00 	lea    rax,[rip+0x0]        # 824 <SV_MasterHeartbeat+0x477>
     824:	8b 04 02             	mov    eax,DWORD PTR [rdx+rax*1]
     827:	85 c0                	test   eax,eax
     829:	74 3b                	je     866 <SV_MasterHeartbeat+0x4b9>
/media/WD3tbUSB3_00/CODE/cpp/__S/workspace/Quake3e/code/server/sv_main.c:321
			NET_OutOfBandPrint( NS_SERVER, &adr[i][1], "heartbeat %s\n", message);
     82b:	8b 45 fc             	mov    eax,DWORD PTR [rbp-0x4]
     82e:	48 98                	cdqe   
     830:	48 c1 e0 06          	shl    rax,0x6
     834:	48 8d 50 20          	lea    rdx,[rax+0x20]
     838:	48 8d 05 00 00 00 00 	lea    rax,[rip+0x0]        # 83f <SV_MasterHeartbeat+0x492>
     83f:	48 8d 34 02          	lea    rsi,[rdx+rax*1]
     843:	48 8b 45 e8          	mov    rax,QWORD PTR [rbp-0x18]
     847:	48 89 c1             	mov    rcx,rax
     84a:	48 8d 15 00 00 00 00 	lea    rdx,[rip+0x0]        # 851 <SV_MasterHeartbeat+0x4a4>
     851:	bf 01 00 00 00       	mov    edi,0x1
     856:	b8 00 00 00 00       	mov    eax,0x0
     85b:	e8 00 00 00 00       	call   860 <SV_MasterHeartbeat+0x4b3>
     860:	eb 04                	jmp    866 <SV_MasterHeartbeat+0x4b9>
/media/WD3tbUSB3_00/CODE/cpp/__S/workspace/Quake3e/code/server/sv_main.c:262
			continue;
     862:	90                   	nop
     863:	eb 01                	jmp    866 <SV_MasterHeartbeat+0x4b9>
/media/WD3tbUSB3_00/CODE/cpp/__S/workspace/Quake3e/code/server/sv_main.c:309
			continue;
     865:	90                   	nop
/media/WD3tbUSB3_00/CODE/cpp/__S/workspace/Quake3e/code/server/sv_main.c:259 (discriminator 2)
	for (i = 0; i < MAX_MASTER_SERVERS; i++)
     866:	83 45 fc 01          	add    DWORD PTR [rbp-0x4],0x1
/media/WD3tbUSB3_00/CODE/cpp/__S/workspace/Quake3e/code/server/sv_main.c:259 (discriminator 1)
     86a:	83 7d fc 04          	cmp    DWORD PTR [rbp-0x4],0x4
     86e:	0f 8e ba fb ff ff    	jle    42e <SV_MasterHeartbeat+0x81>
     874:	eb 04                	jmp    87a <SV_MasterHeartbeat+0x4cd>
/media/WD3tbUSB3_00/CODE/cpp/__S/workspace/Quake3e/code/server/sv_main.c:250
		return;		// only dedicated servers send heartbeats
     876:	90                   	nop
     877:	eb 01                	jmp    87a <SV_MasterHeartbeat+0x4cd>
/media/WD3tbUSB3_00/CODE/cpp/__S/workspace/Quake3e/code/server/sv_main.c:254
		return;
     879:	90                   	nop
/media/WD3tbUSB3_00/CODE/cpp/__S/workspace/Quake3e/code/server/sv_main.c:323
	}
}
     87a:	c9                   	leave  
     87b:	c3                   	ret    

000000000000087c <SV_MasterShutdown>:
SV_MasterShutdown():
/media/WD3tbUSB3_00/CODE/cpp/__S/workspace/Quake3e/code/server/sv_main.c:334

Informs all masters that this server is going down
=================
*/
void SV_MasterShutdown( void )
{
     87c:	55                   	push   rbp
     87d:	48 89 e5             	mov    rbp,rsp
/media/WD3tbUSB3_00/CODE/cpp/__S/workspace/Quake3e/code/server/sv_main.c:336
	// send a heartbeat right now
	svs.nextHeartbeatTime = svs.time;
     880:	8b 05 00 00 00 00    	mov    eax,DWORD PTR [rip+0x0]        # 886 <SV_MasterShutdown+0xa>
     886:	89 05 00 00 00 00    	mov    DWORD PTR [rip+0x0],eax        # 88c <SV_MasterShutdown+0x10>
/media/WD3tbUSB3_00/CODE/cpp/__S/workspace/Quake3e/code/server/sv_main.c:337
	SV_MasterHeartbeat(HEARTBEAT_FOR_MASTER);
     88c:	48 8d 3d 00 00 00 00 	lea    rdi,[rip+0x0]        # 893 <SV_MasterShutdown+0x17>
     893:	e8 15 fb ff ff       	call   3ad <SV_MasterHeartbeat>
/media/WD3tbUSB3_00/CODE/cpp/__S/workspace/Quake3e/code/server/sv_main.c:340

	// send it again to minimize chance of drops
	svs.nextHeartbeatTime = svs.time;
     898:	8b 05 00 00 00 00    	mov    eax,DWORD PTR [rip+0x0]        # 89e <SV_MasterShutdown+0x22>
     89e:	89 05 00 00 00 00    	mov    DWORD PTR [rip+0x0],eax        # 8a4 <SV_MasterShutdown+0x28>
/media/WD3tbUSB3_00/CODE/cpp/__S/workspace/Quake3e/code/server/sv_main.c:341
	SV_MasterHeartbeat(HEARTBEAT_FOR_MASTER);
     8a4:	48 8d 3d 00 00 00 00 	lea    rdi,[rip+0x0]        # 8ab <SV_MasterShutdown+0x2f>
     8ab:	e8 fd fa ff ff       	call   3ad <SV_MasterHeartbeat>
/media/WD3tbUSB3_00/CODE/cpp/__S/workspace/Quake3e/code/server/sv_main.c:345

	// when the master tries to poll the server, it won't respond, so
	// it will be removed from the list
}
     8b0:	90                   	nop
     8b1:	5d                   	pop    rbp
     8b2:	c3                   	ret    

00000000000008b3 <SVC_HashForAddress>:
SVC_HashForAddress():
/media/WD3tbUSB3_00/CODE/cpp/__S/workspace/Quake3e/code/server/sv_main.c:369
/*
================
SVC_HashForAddress
================
*/
static int SVC_HashForAddress( const netadr_t *address ) {
     8b3:	55                   	push   rbp
     8b4:	48 89 e5             	mov    rbp,rsp
     8b7:	48 89 7d d8          	mov    QWORD PTR [rbp-0x28],rdi
/media/WD3tbUSB3_00/CODE/cpp/__S/workspace/Quake3e/code/server/sv_main.c:370
	const byte	*ip = NULL;
     8bb:	48 c7 45 f8 00 00 00 	mov    QWORD PTR [rbp-0x8],0x0
     8c2:	00 
/media/WD3tbUSB3_00/CODE/cpp/__S/workspace/Quake3e/code/server/sv_main.c:371
	int			size = 0;
     8c3:	c7 45 f4 00 00 00 00 	mov    DWORD PTR [rbp-0xc],0x0
/media/WD3tbUSB3_00/CODE/cpp/__S/workspace/Quake3e/code/server/sv_main.c:372
	int			hash = 0;
     8ca:	c7 45 f0 00 00 00 00 	mov    DWORD PTR [rbp-0x10],0x0
/media/WD3tbUSB3_00/CODE/cpp/__S/workspace/Quake3e/code/server/sv_main.c:375
	int			i;

	switch ( address->type ) {
     8d1:	48 8b 45 d8          	mov    rax,QWORD PTR [rbp-0x28]
     8d5:	8b 00                	mov    eax,DWORD PTR [rax]
     8d7:	83 f8 04             	cmp    eax,0x4
     8da:	74 07                	je     8e3 <SVC_HashForAddress+0x30>
     8dc:	83 f8 05             	cmp    eax,0x5
     8df:	74 17                	je     8f8 <SVC_HashForAddress+0x45>
/media/WD3tbUSB3_00/CODE/cpp/__S/workspace/Quake3e/code/server/sv_main.c:380
		case NA_IP:  ip = address->ipv._4; size = 4;  break;
#ifdef USE_IPV6
		case NA_IP6: ip = address->ipv._6; size = 16; break;
#endif
		default: break;
     8e1:	eb 29                	jmp    90c <SVC_HashForAddress+0x59>
/media/WD3tbUSB3_00/CODE/cpp/__S/workspace/Quake3e/code/server/sv_main.c:376
		case NA_IP:  ip = address->ipv._4; size = 4;  break;
     8e3:	48 8b 45 d8          	mov    rax,QWORD PTR [rbp-0x28]
     8e7:	48 83 c0 04          	add    rax,0x4
     8eb:	48 89 45 f8          	mov    QWORD PTR [rbp-0x8],rax
     8ef:	c7 45 f4 04 00 00 00 	mov    DWORD PTR [rbp-0xc],0x4
     8f6:	eb 14                	jmp    90c <SVC_HashForAddress+0x59>
/media/WD3tbUSB3_00/CODE/cpp/__S/workspace/Quake3e/code/server/sv_main.c:378
		case NA_IP6: ip = address->ipv._6; size = 16; break;
     8f8:	48 8b 45 d8          	mov    rax,QWORD PTR [rbp-0x28]
     8fc:	48 83 c0 04          	add    rax,0x4
     900:	48 89 45 f8          	mov    QWORD PTR [rbp-0x8],rax
     904:	c7 45 f4 10 00 00 00 	mov    DWORD PTR [rbp-0xc],0x10
     90b:	90                   	nop
/media/WD3tbUSB3_00/CODE/cpp/__S/workspace/Quake3e/code/server/sv_main.c:383
	}

	for ( i = 0; i < size; i++ ) {
     90c:	c7 45 ec 00 00 00 00 	mov    DWORD PTR [rbp-0x14],0x0
     913:	eb 23                	jmp    938 <SVC_HashForAddress+0x85>
/media/WD3tbUSB3_00/CODE/cpp/__S/workspace/Quake3e/code/server/sv_main.c:384 (discriminator 3)
		hash += (int)( ip[ i ] ) * ( i + 119 );
     915:	8b 45 ec             	mov    eax,DWORD PTR [rbp-0x14]
     918:	48 63 d0             	movsxd rdx,eax
     91b:	48 8b 45 f8          	mov    rax,QWORD PTR [rbp-0x8]
     91f:	48 01 d0             	add    rax,rdx
     922:	0f b6 00             	movzx  eax,BYTE PTR [rax]
     925:	0f b6 c0             	movzx  eax,al
     928:	8b 55 ec             	mov    edx,DWORD PTR [rbp-0x14]
     92b:	83 c2 77             	add    edx,0x77
     92e:	0f af c2             	imul   eax,edx
     931:	01 45 f0             	add    DWORD PTR [rbp-0x10],eax
/media/WD3tbUSB3_00/CODE/cpp/__S/workspace/Quake3e/code/server/sv_main.c:383 (discriminator 3)
	for ( i = 0; i < size; i++ ) {
     934:	83 45 ec 01          	add    DWORD PTR [rbp-0x14],0x1
/media/WD3tbUSB3_00/CODE/cpp/__S/workspace/Quake3e/code/server/sv_main.c:383 (discriminator 1)
     938:	8b 45 ec             	mov    eax,DWORD PTR [rbp-0x14]
     93b:	3b 45 f4             	cmp    eax,DWORD PTR [rbp-0xc]
     93e:	7c d5                	jl     915 <SVC_HashForAddress+0x62>
/media/WD3tbUSB3_00/CODE/cpp/__S/workspace/Quake3e/code/server/sv_main.c:387
	}

	hash = ( hash ^ ( hash >> 10 ) ^ ( hash >> 20 ) );
     940:	8b 45 f0             	mov    eax,DWORD PTR [rbp-0x10]
     943:	c1 f8 0a             	sar    eax,0xa
     946:	33 45 f0             	xor    eax,DWORD PTR [rbp-0x10]
     949:	8b 55 f0             	mov    edx,DWORD PTR [rbp-0x10]
     94c:	c1 fa 14             	sar    edx,0x14
     94f:	31 d0                	xor    eax,edx
     951:	89 45 f0             	mov    DWORD PTR [rbp-0x10],eax
/media/WD3tbUSB3_00/CODE/cpp/__S/workspace/Quake3e/code/server/sv_main.c:388
	hash &= ( MAX_HASHES - 1 );
     954:	81 65 f0 ff 03 00 00 	and    DWORD PTR [rbp-0x10],0x3ff
/media/WD3tbUSB3_00/CODE/cpp/__S/workspace/Quake3e/code/server/sv_main.c:390

	return hash;
     95b:	8b 45 f0             	mov    eax,DWORD PTR [rbp-0x10]
/media/WD3tbUSB3_00/CODE/cpp/__S/workspace/Quake3e/code/server/sv_main.c:391
}
     95e:	5d                   	pop    rbp
     95f:	c3                   	ret    

0000000000000960 <SVC_RelinkToHead>:
SVC_RelinkToHead():
/media/WD3tbUSB3_00/CODE/cpp/__S/workspace/Quake3e/code/server/sv_main.c:399
/*
================
SVC_RelinkToHead
================
*/
static void SVC_RelinkToHead( leakyBucket_t *bucket, int hash ) {
     960:	55                   	push   rbp
     961:	48 89 e5             	mov    rbp,rsp
     964:	48 89 7d f8          	mov    QWORD PTR [rbp-0x8],rdi
     968:	89 75 f4             	mov    DWORD PTR [rbp-0xc],esi
/media/WD3tbUSB3_00/CODE/cpp/__S/workspace/Quake3e/code/server/sv_main.c:401

	if ( bucket->prev != NULL ) {
     96b:	48 8b 45 f8          	mov    rax,QWORD PTR [rbp-0x8]
     96f:	48 8b 40 28          	mov    rax,QWORD PTR [rax+0x28]
     973:	48 85 c0             	test   rax,rax
     976:	0f 84 bc 00 00 00    	je     a38 <SVC_RelinkToHead+0xd8>
/media/WD3tbUSB3_00/CODE/cpp/__S/workspace/Quake3e/code/server/sv_main.c:402
		bucket->prev->next = bucket->next;
     97c:	48 8b 45 f8          	mov    rax,QWORD PTR [rbp-0x8]
     980:	48 8b 40 28          	mov    rax,QWORD PTR [rax+0x28]
     984:	48 8b 55 f8          	mov    rdx,QWORD PTR [rbp-0x8]
     988:	48 8b 52 30          	mov    rdx,QWORD PTR [rdx+0x30]
     98c:	48 89 50 30          	mov    QWORD PTR [rax+0x30],rdx
/media/WD3tbUSB3_00/CODE/cpp/__S/workspace/Quake3e/code/server/sv_main.c:407
	} else {
		return;
	}

	if ( bucket->next != NULL ) {
     990:	48 8b 45 f8          	mov    rax,QWORD PTR [rbp-0x8]
     994:	48 8b 40 30          	mov    rax,QWORD PTR [rax+0x30]
     998:	48 85 c0             	test   rax,rax
     99b:	74 14                	je     9b1 <SVC_RelinkToHead+0x51>
/media/WD3tbUSB3_00/CODE/cpp/__S/workspace/Quake3e/code/server/sv_main.c:408
		bucket->next->prev = bucket->prev;
     99d:	48 8b 45 f8          	mov    rax,QWORD PTR [rbp-0x8]
     9a1:	48 8b 40 30          	mov    rax,QWORD PTR [rax+0x30]
     9a5:	48 8b 55 f8          	mov    rdx,QWORD PTR [rbp-0x8]
     9a9:	48 8b 52 28          	mov    rdx,QWORD PTR [rdx+0x28]
     9ad:	48 89 50 28          	mov    QWORD PTR [rax+0x28],rdx
/media/WD3tbUSB3_00/CODE/cpp/__S/workspace/Quake3e/code/server/sv_main.c:411
	}

	bucket->next = bucketHashes[ hash ];
     9b1:	8b 45 f4             	mov    eax,DWORD PTR [rbp-0xc]
     9b4:	48 98                	cdqe   
     9b6:	48 8d 14 c5 00 00 00 	lea    rdx,[rax*8+0x0]
     9bd:	00 
     9be:	48 8d 05 00 00 00 00 	lea    rax,[rip+0x0]        # 9c5 <SVC_RelinkToHead+0x65>
     9c5:	48 8b 14 02          	mov    rdx,QWORD PTR [rdx+rax*1]
     9c9:	48 8b 45 f8          	mov    rax,QWORD PTR [rbp-0x8]
     9cd:	48 89 50 30          	mov    QWORD PTR [rax+0x30],rdx
/media/WD3tbUSB3_00/CODE/cpp/__S/workspace/Quake3e/code/server/sv_main.c:412
	if ( bucketHashes[ hash ] != NULL ) {
     9d1:	8b 45 f4             	mov    eax,DWORD PTR [rbp-0xc]
     9d4:	48 98                	cdqe   
     9d6:	48 8d 14 c5 00 00 00 	lea    rdx,[rax*8+0x0]
     9dd:	00 
     9de:	48 8d 05 00 00 00 00 	lea    rax,[rip+0x0]        # 9e5 <SVC_RelinkToHead+0x85>
     9e5:	48 8b 04 02          	mov    rax,QWORD PTR [rdx+rax*1]
     9e9:	48 85 c0             	test   rax,rax
     9ec:	74 20                	je     a0e <SVC_RelinkToHead+0xae>
/media/WD3tbUSB3_00/CODE/cpp/__S/workspace/Quake3e/code/server/sv_main.c:413
		bucketHashes[ hash ]->prev = bucket;
     9ee:	8b 45 f4             	mov    eax,DWORD PTR [rbp-0xc]
     9f1:	48 98                	cdqe   
     9f3:	48 8d 14 c5 00 00 00 	lea    rdx,[rax*8+0x0]
     9fa:	00 
     9fb:	48 8d 05 00 00 00 00 	lea    rax,[rip+0x0]        # a02 <SVC_RelinkToHead+0xa2>
     a02:	48 8b 04 02          	mov    rax,QWORD PTR [rdx+rax*1]
     a06:	48 8b 55 f8          	mov    rdx,QWORD PTR [rbp-0x8]
     a0a:	48 89 50 28          	mov    QWORD PTR [rax+0x28],rdx
/media/WD3tbUSB3_00/CODE/cpp/__S/workspace/Quake3e/code/server/sv_main.c:416
	}

	bucket->prev = NULL;
     a0e:	48 8b 45 f8          	mov    rax,QWORD PTR [rbp-0x8]
     a12:	48 c7 40 28 00 00 00 	mov    QWORD PTR [rax+0x28],0x0
     a19:	00 
/media/WD3tbUSB3_00/CODE/cpp/__S/workspace/Quake3e/code/server/sv_main.c:417
	bucketHashes[ hash ] = bucket;
     a1a:	8b 45 f4             	mov    eax,DWORD PTR [rbp-0xc]
     a1d:	48 98                	cdqe   
     a1f:	48 8d 0c c5 00 00 00 	lea    rcx,[rax*8+0x0]
     a26:	00 
     a27:	48 8d 15 00 00 00 00 	lea    rdx,[rip+0x0]        # a2e <SVC_RelinkToHead+0xce>
     a2e:	48 8b 45 f8          	mov    rax,QWORD PTR [rbp-0x8]
     a32:	48 89 04 11          	mov    QWORD PTR [rcx+rdx*1],rax
     a36:	eb 01                	jmp    a39 <SVC_RelinkToHead+0xd9>
/media/WD3tbUSB3_00/CODE/cpp/__S/workspace/Quake3e/code/server/sv_main.c:404
		return;
     a38:	90                   	nop
/media/WD3tbUSB3_00/CODE/cpp/__S/workspace/Quake3e/code/server/sv_main.c:418
}
     a39:	5d                   	pop    rbp
     a3a:	c3                   	ret    

0000000000000a3b <SVC_BucketForAddress>:
SVC_BucketForAddress():
/media/WD3tbUSB3_00/CODE/cpp/__S/workspace/Quake3e/code/server/sv_main.c:428
SVC_BucketForAddress

Find or allocate a bucket for an address
================
*/
static leakyBucket_t *SVC_BucketForAddress( const netadr_t *address, int burst, int period ) {
     a3b:	55                   	push   rbp
     a3c:	48 89 e5             	mov    rbp,rsp
     a3f:	48 83 ec 30          	sub    rsp,0x30
     a43:	48 89 7d d8          	mov    QWORD PTR [rbp-0x28],rdi
     a47:	89 75 d4             	mov    DWORD PTR [rbp-0x2c],esi
     a4a:	89 55 d0             	mov    DWORD PTR [rbp-0x30],edx
/media/WD3tbUSB3_00/CODE/cpp/__S/workspace/Quake3e/code/server/sv_main.c:431
	static leakyBucket_t dummy = { 0 };
	static int		start = 0;
	const int		hash = SVC_HashForAddress( address );
     a4d:	48 8b 45 d8          	mov    rax,QWORD PTR [rbp-0x28]
     a51:	48 89 c7             	mov    rdi,rax
     a54:	e8 5a fe ff ff       	call   8b3 <SVC_HashForAddress>
     a59:	89 45 ec             	mov    DWORD PTR [rbp-0x14],eax
/media/WD3tbUSB3_00/CODE/cpp/__S/workspace/Quake3e/code/server/sv_main.c:432
	const int		now = Sys_Milliseconds();
     a5c:	e8 00 00 00 00       	call   a61 <SVC_BucketForAddress+0x26>
     a61:	89 45 e8             	mov    DWORD PTR [rbp-0x18],eax
/media/WD3tbUSB3_00/CODE/cpp/__S/workspace/Quake3e/code/server/sv_main.c:436
	leakyBucket_t	*bucket;
	int				i, n;

	for ( bucket = bucketHashes[ hash ], n = 0; bucket; bucket = bucket->next, n++ ) {
     a64:	8b 45 ec             	mov    eax,DWORD PTR [rbp-0x14]
     a67:	48 98                	cdqe   
     a69:	48 8d 14 c5 00 00 00 	lea    rdx,[rax*8+0x0]
     a70:	00 
     a71:	48 8d 05 00 00 00 00 	lea    rax,[rip+0x0]        # a78 <SVC_BucketForAddress+0x3d>
     a78:	48 8b 04 02          	mov    rax,QWORD PTR [rdx+rax*1]
     a7c:	48 89 45 f8          	mov    QWORD PTR [rbp-0x8],rax
     a80:	c7 45 f0 00 00 00 00 	mov    DWORD PTR [rbp-0x10],0x0
     a87:	e9 bd 00 00 00       	jmp    b49 <SVC_BucketForAddress+0x10e>
/media/WD3tbUSB3_00/CODE/cpp/__S/workspace/Quake3e/code/server/sv_main.c:437
		switch ( bucket->type ) {
     a8c:	48 8b 45 f8          	mov    rax,QWORD PTR [rbp-0x8]
     a90:	8b 00                	mov    eax,DWORD PTR [rax]
     a92:	83 f8 04             	cmp    eax,0x4
     a95:	74 0a                	je     aa1 <SVC_BucketForAddress+0x66>
     a97:	83 f8 05             	cmp    eax,0x5
     a9a:	74 49                	je     ae5 <SVC_BucketForAddress+0xaa>
     a9c:	e9 88 00 00 00       	jmp    b29 <SVC_BucketForAddress+0xee>
/media/WD3tbUSB3_00/CODE/cpp/__S/workspace/Quake3e/code/server/sv_main.c:439
			case NA_IP:
				if ( memcmp( bucket->ipv._4, address->ipv._4, 4 ) == 0 ) {
     aa1:	48 8b 45 d8          	mov    rax,QWORD PTR [rbp-0x28]
     aa5:	48 8d 48 04          	lea    rcx,[rax+0x4]
     aa9:	48 8b 45 f8          	mov    rax,QWORD PTR [rbp-0x8]
     aad:	48 83 c0 04          	add    rax,0x4
     ab1:	ba 04 00 00 00       	mov    edx,0x4
     ab6:	48 89 ce             	mov    rsi,rcx
     ab9:	48 89 c7             	mov    rdi,rax
     abc:	e8 00 00 00 00       	call   ac1 <SVC_BucketForAddress+0x86>
     ac1:	85 c0                	test   eax,eax
     ac3:	75 70                	jne    b35 <SVC_BucketForAddress+0xfa>
/media/WD3tbUSB3_00/CODE/cpp/__S/workspace/Quake3e/code/server/sv_main.c:440
					if ( n > 8 ) {
     ac5:	83 7d f0 08          	cmp    DWORD PTR [rbp-0x10],0x8
     ac9:	7e 11                	jle    adc <SVC_BucketForAddress+0xa1>
/media/WD3tbUSB3_00/CODE/cpp/__S/workspace/Quake3e/code/server/sv_main.c:441
						SVC_RelinkToHead( bucket, hash );
     acb:	8b 55 ec             	mov    edx,DWORD PTR [rbp-0x14]
     ace:	48 8b 45 f8          	mov    rax,QWORD PTR [rbp-0x8]
     ad2:	89 d6                	mov    esi,edx
     ad4:	48 89 c7             	mov    rdi,rax
     ad7:	e8 84 fe ff ff       	call   960 <SVC_RelinkToHead>
/media/WD3tbUSB3_00/CODE/cpp/__S/workspace/Quake3e/code/server/sv_main.c:443
					}
					return bucket;
     adc:	48 8b 45 f8          	mov    rax,QWORD PTR [rbp-0x8]
     ae0:	e9 92 02 00 00       	jmp    d77 <SVC_BucketForAddress+0x33c>
/media/WD3tbUSB3_00/CODE/cpp/__S/workspace/Quake3e/code/server/sv_main.c:448
				}
				break;
#ifdef USE_IPV6
			case NA_IP6:
				if ( memcmp( bucket->ipv._6, address->ipv._6, 16 ) == 0 ) {
     ae5:	48 8b 45 d8          	mov    rax,QWORD PTR [rbp-0x28]
     ae9:	48 8d 48 04          	lea    rcx,[rax+0x4]
     aed:	48 8b 45 f8          	mov    rax,QWORD PTR [rbp-0x8]
     af1:	48 83 c0 04          	add    rax,0x4
     af5:	ba 10 00 00 00       	mov    edx,0x10
     afa:	48 89 ce             	mov    rsi,rcx
     afd:	48 89 c7             	mov    rdi,rax
     b00:	e8 00 00 00 00       	call   b05 <SVC_BucketForAddress+0xca>
     b05:	85 c0                	test   eax,eax
     b07:	75 2f                	jne    b38 <SVC_BucketForAddress+0xfd>
/media/WD3tbUSB3_00/CODE/cpp/__S/workspace/Quake3e/code/server/sv_main.c:449
					if ( n > 8 ) {
     b09:	83 7d f0 08          	cmp    DWORD PTR [rbp-0x10],0x8
     b0d:	7e 11                	jle    b20 <SVC_BucketForAddress+0xe5>
/media/WD3tbUSB3_00/CODE/cpp/__S/workspace/Quake3e/code/server/sv_main.c:450
						SVC_RelinkToHead( bucket, hash );
     b0f:	8b 55 ec             	mov    edx,DWORD PTR [rbp-0x14]
     b12:	48 8b 45 f8          	mov    rax,QWORD PTR [rbp-0x8]
     b16:	89 d6                	mov    esi,edx
     b18:	48 89 c7             	mov    rdi,rax
     b1b:	e8 40 fe ff ff       	call   960 <SVC_RelinkToHead>
/media/WD3tbUSB3_00/CODE/cpp/__S/workspace/Quake3e/code/server/sv_main.c:452
					}
					return bucket;
     b20:	48 8b 45 f8          	mov    rax,QWORD PTR [rbp-0x8]
     b24:	e9 4e 02 00 00       	jmp    d77 <SVC_BucketForAddress+0x33c>
/media/WD3tbUSB3_00/CODE/cpp/__S/workspace/Quake3e/code/server/sv_main.c:457
				}
				break;
#endif
			default:
				return &dummy;
     b29:	48 8d 05 00 00 00 00 	lea    rax,[rip+0x0]        # b30 <SVC_BucketForAddress+0xf5>
     b30:	e9 42 02 00 00       	jmp    d77 <SVC_BucketForAddress+0x33c>
/media/WD3tbUSB3_00/CODE/cpp/__S/workspace/Quake3e/code/server/sv_main.c:445
				break;
     b35:	90                   	nop
     b36:	eb 01                	jmp    b39 <SVC_BucketForAddress+0xfe>
/media/WD3tbUSB3_00/CODE/cpp/__S/workspace/Quake3e/code/server/sv_main.c:454
				break;
     b38:	90                   	nop
/media/WD3tbUSB3_00/CODE/cpp/__S/workspace/Quake3e/code/server/sv_main.c:436 (discriminator 2)
	for ( bucket = bucketHashes[ hash ], n = 0; bucket; bucket = bucket->next, n++ ) {
     b39:	48 8b 45 f8          	mov    rax,QWORD PTR [rbp-0x8]
     b3d:	48 8b 40 30          	mov    rax,QWORD PTR [rax+0x30]
     b41:	48 89 45 f8          	mov    QWORD PTR [rbp-0x8],rax
     b45:	83 45 f0 01          	add    DWORD PTR [rbp-0x10],0x1
/media/WD3tbUSB3_00/CODE/cpp/__S/workspace/Quake3e/code/server/sv_main.c:436 (discriminator 1)
     b49:	48 83 7d f8 00       	cmp    QWORD PTR [rbp-0x8],0x0
     b4e:	0f 85 38 ff ff ff    	jne    a8c <SVC_BucketForAddress+0x51>
/media/WD3tbUSB3_00/CODE/cpp/__S/workspace/Quake3e/code/server/sv_main.c:461
		}
	}

	for ( i = 0; i < MAX_BUCKETS; i++ ) {
     b54:	c7 45 f4 00 00 00 00 	mov    DWORD PTR [rbp-0xc],0x0
     b5b:	e9 05 02 00 00       	jmp    d65 <SVC_BucketForAddress+0x32a>
/media/WD3tbUSB3_00/CODE/cpp/__S/workspace/Quake3e/code/server/sv_main.c:464
		int interval;

		if ( start >= MAX_BUCKETS )
     b60:	8b 05 00 00 00 00    	mov    eax,DWORD PTR [rip+0x0]        # b66 <SVC_BucketForAddress+0x12b>
     b66:	3d ff 3f 00 00       	cmp    eax,0x3fff
     b6b:	7e 0a                	jle    b77 <SVC_BucketForAddress+0x13c>
/media/WD3tbUSB3_00/CODE/cpp/__S/workspace/Quake3e/code/server/sv_main.c:465
			start = 0;
     b6d:	c7 05 00 00 00 00 00 	mov    DWORD PTR [rip+0x0],0x0        # b77 <SVC_BucketForAddress+0x13c>
     b74:	00 00 00 
/media/WD3tbUSB3_00/CODE/cpp/__S/workspace/Quake3e/code/server/sv_main.c:466
		bucket = &buckets[ start++ ];
     b77:	8b 05 00 00 00 00    	mov    eax,DWORD PTR [rip+0x0]        # b7d <SVC_BucketForAddress+0x142>
     b7d:	8d 50 01             	lea    edx,[rax+0x1]
     b80:	89 15 00 00 00 00    	mov    DWORD PTR [rip+0x0],edx        # b86 <SVC_BucketForAddress+0x14b>
     b86:	48 63 d0             	movsxd rdx,eax
     b89:	48 89 d0             	mov    rax,rdx
     b8c:	48 c1 e0 03          	shl    rax,0x3
     b90:	48 29 d0             	sub    rax,rdx
     b93:	48 c1 e0 03          	shl    rax,0x3
     b97:	48 8d 15 00 00 00 00 	lea    rdx,[rip+0x0]        # b9e <SVC_BucketForAddress+0x163>
     b9e:	48 01 d0             	add    rax,rdx
     ba1:	48 89 45 f8          	mov    QWORD PTR [rbp-0x8],rax
/media/WD3tbUSB3_00/CODE/cpp/__S/workspace/Quake3e/code/server/sv_main.c:467
		interval = now - bucket->rate.lastTime;
     ba5:	48 8b 45 f8          	mov    rax,QWORD PTR [rbp-0x8]
     ba9:	8b 40 14             	mov    eax,DWORD PTR [rax+0x14]
     bac:	8b 55 e8             	mov    edx,DWORD PTR [rbp-0x18]
     baf:	29 c2                	sub    edx,eax
     bb1:	89 d0                	mov    eax,edx
     bb3:	89 45 e4             	mov    DWORD PTR [rbp-0x1c],eax
/media/WD3tbUSB3_00/CODE/cpp/__S/workspace/Quake3e/code/server/sv_main.c:470

		// Reclaim expired buckets
		if ( bucket->type != NA_BAD && (unsigned)interval > ( bucket->rate.burst * period ) ) {
     bb6:	48 8b 45 f8          	mov    rax,QWORD PTR [rbp-0x8]
     bba:	8b 00                	mov    eax,DWORD PTR [rax]
     bbc:	85 c0                	test   eax,eax
     bbe:	0f 84 87 00 00 00    	je     c4b <SVC_BucketForAddress+0x210>
/media/WD3tbUSB3_00/CODE/cpp/__S/workspace/Quake3e/code/server/sv_main.c:470 (discriminator 1)
     bc4:	48 8b 45 f8          	mov    rax,QWORD PTR [rbp-0x8]
     bc8:	8b 40 18             	mov    eax,DWORD PTR [rax+0x18]
     bcb:	0f af 45 d0          	imul   eax,DWORD PTR [rbp-0x30]
     bcf:	89 c2                	mov    edx,eax
     bd1:	8b 45 e4             	mov    eax,DWORD PTR [rbp-0x1c]
     bd4:	39 c2                	cmp    edx,eax
     bd6:	73 73                	jae    c4b <SVC_BucketForAddress+0x210>
/media/WD3tbUSB3_00/CODE/cpp/__S/workspace/Quake3e/code/server/sv_main.c:471
			if ( bucket->prev != NULL ) {
     bd8:	48 8b 45 f8          	mov    rax,QWORD PTR [rbp-0x8]
     bdc:	48 8b 40 28          	mov    rax,QWORD PTR [rax+0x28]
     be0:	48 85 c0             	test   rax,rax
     be3:	74 16                	je     bfb <SVC_BucketForAddress+0x1c0>
/media/WD3tbUSB3_00/CODE/cpp/__S/workspace/Quake3e/code/server/sv_main.c:472
				bucket->prev->next = bucket->next;
     be5:	48 8b 45 f8          	mov    rax,QWORD PTR [rbp-0x8]
     be9:	48 8b 40 28          	mov    rax,QWORD PTR [rax+0x28]
     bed:	48 8b 55 f8          	mov    rdx,QWORD PTR [rbp-0x8]
     bf1:	48 8b 52 30          	mov    rdx,QWORD PTR [rdx+0x30]
     bf5:	48 89 50 30          	mov    QWORD PTR [rax+0x30],rdx
     bf9:	eb 25                	jmp    c20 <SVC_BucketForAddress+0x1e5>
/media/WD3tbUSB3_00/CODE/cpp/__S/workspace/Quake3e/code/server/sv_main.c:474
			} else {
				bucketHashes[ bucket->hash ] = bucket->next;
     bfb:	48 8b 45 f8          	mov    rax,QWORD PTR [rbp-0x8]
     bff:	8b 50 1c             	mov    edx,DWORD PTR [rax+0x1c]
     c02:	48 8b 45 f8          	mov    rax,QWORD PTR [rbp-0x8]
     c06:	48 8b 40 30          	mov    rax,QWORD PTR [rax+0x30]
     c0a:	48 63 d2             	movsxd rdx,edx
     c0d:	48 8d 0c d5 00 00 00 	lea    rcx,[rdx*8+0x0]
     c14:	00 
     c15:	48 8d 15 00 00 00 00 	lea    rdx,[rip+0x0]        # c1c <SVC_BucketForAddress+0x1e1>
     c1c:	48 89 04 11          	mov    QWORD PTR [rcx+rdx*1],rax
/media/WD3tbUSB3_00/CODE/cpp/__S/workspace/Quake3e/code/server/sv_main.c:477
			}
			
			if ( bucket->next != NULL ) {
     c20:	48 8b 45 f8          	mov    rax,QWORD PTR [rbp-0x8]
     c24:	48 8b 40 30          	mov    rax,QWORD PTR [rax+0x30]
     c28:	48 85 c0             	test   rax,rax
     c2b:	74 14                	je     c41 <SVC_BucketForAddress+0x206>
/media/WD3tbUSB3_00/CODE/cpp/__S/workspace/Quake3e/code/server/sv_main.c:478
				bucket->next->prev = bucket->prev;
     c2d:	48 8b 45 f8          	mov    rax,QWORD PTR [rbp-0x8]
     c31:	48 8b 40 30          	mov    rax,QWORD PTR [rax+0x30]
     c35:	48 8b 55 f8          	mov    rdx,QWORD PTR [rbp-0x8]
     c39:	48 8b 52 28          	mov    rdx,QWORD PTR [rdx+0x28]
     c3d:	48 89 50 28          	mov    QWORD PTR [rax+0x28],rdx
/media/WD3tbUSB3_00/CODE/cpp/__S/workspace/Quake3e/code/server/sv_main.c:481
			}

			bucket->type = NA_BAD;
     c41:	48 8b 45 f8          	mov    rax,QWORD PTR [rbp-0x8]
     c45:	c7 00 00 00 00 00    	mov    DWORD PTR [rax],0x0
/media/WD3tbUSB3_00/CODE/cpp/__S/workspace/Quake3e/code/server/sv_main.c:484
		}

		if ( bucket->type == NA_BAD ) {
     c4b:	48 8b 45 f8          	mov    rax,QWORD PTR [rbp-0x8]
     c4f:	8b 00                	mov    eax,DWORD PTR [rax]
     c51:	85 c0                	test   eax,eax
     c53:	0f 85 08 01 00 00    	jne    d61 <SVC_BucketForAddress+0x326>
/media/WD3tbUSB3_00/CODE/cpp/__S/workspace/Quake3e/code/server/sv_main.c:485
			bucket->type = address->type;
     c59:	48 8b 45 d8          	mov    rax,QWORD PTR [rbp-0x28]
     c5d:	8b 10                	mov    edx,DWORD PTR [rax]
     c5f:	48 8b 45 f8          	mov    rax,QWORD PTR [rbp-0x8]
     c63:	89 10                	mov    DWORD PTR [rax],edx
/media/WD3tbUSB3_00/CODE/cpp/__S/workspace/Quake3e/code/server/sv_main.c:486
			switch ( address->type ) {
     c65:	48 8b 45 d8          	mov    rax,QWORD PTR [rbp-0x28]
     c69:	8b 00                	mov    eax,DWORD PTR [rax]
     c6b:	83 f8 04             	cmp    eax,0x4
     c6e:	74 07                	je     c77 <SVC_BucketForAddress+0x23c>
     c70:	83 f8 05             	cmp    eax,0x5
     c73:	74 18                	je     c8d <SVC_BucketForAddress+0x252>
/media/WD3tbUSB3_00/CODE/cpp/__S/workspace/Quake3e/code/server/sv_main.c:491
				case NA_IP:  Com_Memcpy( bucket->ipv._4, address->ipv._4, 4 );  break;
#ifdef USE_IPV6
				case NA_IP6: Com_Memcpy( bucket->ipv._6, address->ipv._6, 16 ); break;
#endif
				default: break;
     c75:	eb 35                	jmp    cac <SVC_BucketForAddress+0x271>
/media/WD3tbUSB3_00/CODE/cpp/__S/workspace/Quake3e/code/server/sv_main.c:487
				case NA_IP:  Com_Memcpy( bucket->ipv._4, address->ipv._4, 4 );  break;
     c77:	48 8b 45 d8          	mov    rax,QWORD PTR [rbp-0x28]
     c7b:	48 83 c0 04          	add    rax,0x4
     c7f:	48 8b 55 f8          	mov    rdx,QWORD PTR [rbp-0x8]
     c83:	48 83 c2 04          	add    rdx,0x4
     c87:	8b 00                	mov    eax,DWORD PTR [rax]
     c89:	89 02                	mov    DWORD PTR [rdx],eax
     c8b:	eb 1f                	jmp    cac <SVC_BucketForAddress+0x271>
/media/WD3tbUSB3_00/CODE/cpp/__S/workspace/Quake3e/code/server/sv_main.c:489
				case NA_IP6: Com_Memcpy( bucket->ipv._6, address->ipv._6, 16 ); break;
     c8d:	48 8b 45 d8          	mov    rax,QWORD PTR [rbp-0x28]
     c91:	48 83 c0 04          	add    rax,0x4
     c95:	48 8b 55 f8          	mov    rdx,QWORD PTR [rbp-0x8]
     c99:	48 8d 4a 04          	lea    rcx,[rdx+0x4]
     c9d:	48 8b 50 08          	mov    rdx,QWORD PTR [rax+0x8]
     ca1:	48 8b 00             	mov    rax,QWORD PTR [rax]
     ca4:	48 89 01             	mov    QWORD PTR [rcx],rax
     ca7:	48 89 51 08          	mov    QWORD PTR [rcx+0x8],rdx
     cab:	90                   	nop
/media/WD3tbUSB3_00/CODE/cpp/__S/workspace/Quake3e/code/server/sv_main.c:494
			}

			bucket->rate.lastTime = now;
     cac:	48 8b 45 f8          	mov    rax,QWORD PTR [rbp-0x8]
     cb0:	8b 55 e8             	mov    edx,DWORD PTR [rbp-0x18]
     cb3:	89 50 14             	mov    DWORD PTR [rax+0x14],edx
/media/WD3tbUSB3_00/CODE/cpp/__S/workspace/Quake3e/code/server/sv_main.c:495
			bucket->rate.burst = 0;
     cb6:	48 8b 45 f8          	mov    rax,QWORD PTR [rbp-0x8]
     cba:	c7 40 18 00 00 00 00 	mov    DWORD PTR [rax+0x18],0x0
/media/WD3tbUSB3_00/CODE/cpp/__S/workspace/Quake3e/code/server/sv_main.c:496
			bucket->hash = hash;
     cc1:	48 8b 45 f8          	mov    rax,QWORD PTR [rbp-0x8]
     cc5:	8b 55 ec             	mov    edx,DWORD PTR [rbp-0x14]
     cc8:	89 50 1c             	mov    DWORD PTR [rax+0x1c],edx
/media/WD3tbUSB3_00/CODE/cpp/__S/workspace/Quake3e/code/server/sv_main.c:497
			bucket->toxic = 0;
     ccb:	48 8b 45 f8          	mov    rax,QWORD PTR [rbp-0x8]
     ccf:	c7 40 20 00 00 00 00 	mov    DWORD PTR [rax+0x20],0x0
/media/WD3tbUSB3_00/CODE/cpp/__S/workspace/Quake3e/code/server/sv_main.c:500

			// Add to the head of the relevant hash chain
			bucket->next = bucketHashes[ hash ];
     cd6:	8b 45 ec             	mov    eax,DWORD PTR [rbp-0x14]
     cd9:	48 98                	cdqe   
     cdb:	48 8d 14 c5 00 00 00 	lea    rdx,[rax*8+0x0]
     ce2:	00 
     ce3:	48 8d 05 00 00 00 00 	lea    rax,[rip+0x0]        # cea <SVC_BucketForAddress+0x2af>
     cea:	48 8b 14 02          	mov    rdx,QWORD PTR [rdx+rax*1]
     cee:	48 8b 45 f8          	mov    rax,QWORD PTR [rbp-0x8]
     cf2:	48 89 50 30          	mov    QWORD PTR [rax+0x30],rdx
/media/WD3tbUSB3_00/CODE/cpp/__S/workspace/Quake3e/code/server/sv_main.c:501
			if ( bucketHashes[ hash ] != NULL ) {
     cf6:	8b 45 ec             	mov    eax,DWORD PTR [rbp-0x14]
     cf9:	48 98                	cdqe   
     cfb:	48 8d 14 c5 00 00 00 	lea    rdx,[rax*8+0x0]
     d02:	00 
     d03:	48 8d 05 00 00 00 00 	lea    rax,[rip+0x0]        # d0a <SVC_BucketForAddress+0x2cf>
     d0a:	48 8b 04 02          	mov    rax,QWORD PTR [rdx+rax*1]
     d0e:	48 85 c0             	test   rax,rax
     d11:	74 20                	je     d33 <SVC_BucketForAddress+0x2f8>
/media/WD3tbUSB3_00/CODE/cpp/__S/workspace/Quake3e/code/server/sv_main.c:502
				bucketHashes[ hash ]->prev = bucket;
     d13:	8b 45 ec             	mov    eax,DWORD PTR [rbp-0x14]
     d16:	48 98                	cdqe   
     d18:	48 8d 14 c5 00 00 00 	lea    rdx,[rax*8+0x0]
     d1f:	00 
     d20:	48 8d 05 00 00 00 00 	lea    rax,[rip+0x0]        # d27 <SVC_BucketForAddress+0x2ec>
     d27:	48 8b 04 02          	mov    rax,QWORD PTR [rdx+rax*1]
     d2b:	48 8b 55 f8          	mov    rdx,QWORD PTR [rbp-0x8]
     d2f:	48 89 50 28          	mov    QWORD PTR [rax+0x28],rdx
/media/WD3tbUSB3_00/CODE/cpp/__S/workspace/Quake3e/code/server/sv_main.c:505
			}

			bucket->prev = NULL;
     d33:	48 8b 45 f8          	mov    rax,QWORD PTR [rbp-0x8]
     d37:	48 c7 40 28 00 00 00 	mov    QWORD PTR [rax+0x28],0x0
     d3e:	00 
/media/WD3tbUSB3_00/CODE/cpp/__S/workspace/Quake3e/code/server/sv_main.c:506
			bucketHashes[ hash ] = bucket;
     d3f:	8b 45 ec             	mov    eax,DWORD PTR [rbp-0x14]
     d42:	48 98                	cdqe   
     d44:	48 8d 0c c5 00 00 00 	lea    rcx,[rax*8+0x0]
     d4b:	00 
     d4c:	48 8d 15 00 00 00 00 	lea    rdx,[rip+0x0]        # d53 <SVC_BucketForAddress+0x318>
     d53:	48 8b 45 f8          	mov    rax,QWORD PTR [rbp-0x8]
     d57:	48 89 04 11          	mov    QWORD PTR [rcx+rdx*1],rax
/media/WD3tbUSB3_00/CODE/cpp/__S/workspace/Quake3e/code/server/sv_main.c:508

			return bucket;
     d5b:	48 8b 45 f8          	mov    rax,QWORD PTR [rbp-0x8]
     d5f:	eb 16                	jmp    d77 <SVC_BucketForAddress+0x33c>
/media/WD3tbUSB3_00/CODE/cpp/__S/workspace/Quake3e/code/server/sv_main.c:461 (discriminator 2)
	for ( i = 0; i < MAX_BUCKETS; i++ ) {
     d61:	83 45 f4 01          	add    DWORD PTR [rbp-0xc],0x1
/media/WD3tbUSB3_00/CODE/cpp/__S/workspace/Quake3e/code/server/sv_main.c:461 (discriminator 1)
     d65:	81 7d f4 ff 3f 00 00 	cmp    DWORD PTR [rbp-0xc],0x3fff
     d6c:	0f 8e ee fd ff ff    	jle    b60 <SVC_BucketForAddress+0x125>
/media/WD3tbUSB3_00/CODE/cpp/__S/workspace/Quake3e/code/server/sv_main.c:513
		}
	}

	// Couldn't allocate a bucket for this address
	return NULL;
     d72:	b8 00 00 00 00       	mov    eax,0x0
/media/WD3tbUSB3_00/CODE/cpp/__S/workspace/Quake3e/code/server/sv_main.c:514
}
     d77:	c9                   	leave  
     d78:	c3                   	ret    

0000000000000d79 <SVC_RateLimit>:
SVC_RateLimit():
/media/WD3tbUSB3_00/CODE/cpp/__S/workspace/Quake3e/code/server/sv_main.c:522
/*
================
SVC_RateLimit
================
*/
qboolean SVC_RateLimit( rateLimit_t *bucket, int burst, int period ) {
     d79:	55                   	push   rbp
     d7a:	48 89 e5             	mov    rbp,rsp
     d7d:	48 83 ec 20          	sub    rsp,0x20
     d81:	48 89 7d e8          	mov    QWORD PTR [rbp-0x18],rdi
     d85:	89 75 e4             	mov    DWORD PTR [rbp-0x1c],esi
     d88:	89 55 e0             	mov    DWORD PTR [rbp-0x20],edx
/media/WD3tbUSB3_00/CODE/cpp/__S/workspace/Quake3e/code/server/sv_main.c:523
	int now = Sys_Milliseconds();
     d8b:	e8 00 00 00 00       	call   d90 <SVC_RateLimit+0x17>
     d90:	89 45 fc             	mov    DWORD PTR [rbp-0x4],eax
/media/WD3tbUSB3_00/CODE/cpp/__S/workspace/Quake3e/code/server/sv_main.c:524
	int interval = now - bucket->lastTime;
     d93:	48 8b 45 e8          	mov    rax,QWORD PTR [rbp-0x18]
     d97:	8b 00                	mov    eax,DWORD PTR [rax]
     d99:	8b 55 fc             	mov    edx,DWORD PTR [rbp-0x4]
     d9c:	29 c2                	sub    edx,eax
     d9e:	89 d0                	mov    eax,edx
     da0:	89 45 f8             	mov    DWORD PTR [rbp-0x8],eax
/media/WD3tbUSB3_00/CODE/cpp/__S/workspace/Quake3e/code/server/sv_main.c:525
	int expired = interval / period;
     da3:	8b 45 f8             	mov    eax,DWORD PTR [rbp-0x8]
     da6:	99                   	cdq    
     da7:	f7 7d e0             	idiv   DWORD PTR [rbp-0x20]
     daa:	89 45 f4             	mov    DWORD PTR [rbp-0xc],eax
/media/WD3tbUSB3_00/CODE/cpp/__S/workspace/Quake3e/code/server/sv_main.c:526
	int expiredRemainder = interval % period;
     dad:	8b 45 f8             	mov    eax,DWORD PTR [rbp-0x8]
     db0:	99                   	cdq    
     db1:	f7 7d e0             	idiv   DWORD PTR [rbp-0x20]
     db4:	89 55 f0             	mov    DWORD PTR [rbp-0x10],edx
/media/WD3tbUSB3_00/CODE/cpp/__S/workspace/Quake3e/code/server/sv_main.c:528

	if ( expired > bucket->burst || interval < 0 ) {
     db7:	48 8b 45 e8          	mov    rax,QWORD PTR [rbp-0x18]
     dbb:	8b 40 04             	mov    eax,DWORD PTR [rax+0x4]
     dbe:	39 45 f4             	cmp    DWORD PTR [rbp-0xc],eax
     dc1:	7f 06                	jg     dc9 <SVC_RateLimit+0x50>
/media/WD3tbUSB3_00/CODE/cpp/__S/workspace/Quake3e/code/server/sv_main.c:528 (discriminator 1)
     dc3:	83 7d f8 00          	cmp    DWORD PTR [rbp-0x8],0x0
     dc7:	79 16                	jns    ddf <SVC_RateLimit+0x66>
/media/WD3tbUSB3_00/CODE/cpp/__S/workspace/Quake3e/code/server/sv_main.c:529
		bucket->burst = 0;
     dc9:	48 8b 45 e8          	mov    rax,QWORD PTR [rbp-0x18]
     dcd:	c7 40 04 00 00 00 00 	mov    DWORD PTR [rax+0x4],0x0
/media/WD3tbUSB3_00/CODE/cpp/__S/workspace/Quake3e/code/server/sv_main.c:530
		bucket->lastTime = now;
     dd4:	48 8b 45 e8          	mov    rax,QWORD PTR [rbp-0x18]
     dd8:	8b 55 fc             	mov    edx,DWORD PTR [rbp-0x4]
     ddb:	89 10                	mov    DWORD PTR [rax],edx
     ddd:	eb 21                	jmp    e00 <SVC_RateLimit+0x87>
/media/WD3tbUSB3_00/CODE/cpp/__S/workspace/Quake3e/code/server/sv_main.c:532
	} else {
		bucket->burst -= expired;
     ddf:	48 8b 45 e8          	mov    rax,QWORD PTR [rbp-0x18]
     de3:	8b 40 04             	mov    eax,DWORD PTR [rax+0x4]
     de6:	2b 45 f4             	sub    eax,DWORD PTR [rbp-0xc]
     de9:	89 c2                	mov    edx,eax
     deb:	48 8b 45 e8          	mov    rax,QWORD PTR [rbp-0x18]
     def:	89 50 04             	mov    DWORD PTR [rax+0x4],edx
/media/WD3tbUSB3_00/CODE/cpp/__S/workspace/Quake3e/code/server/sv_main.c:533
		bucket->lastTime = now - expiredRemainder;
     df2:	8b 45 fc             	mov    eax,DWORD PTR [rbp-0x4]
     df5:	2b 45 f0             	sub    eax,DWORD PTR [rbp-0x10]
     df8:	89 c2                	mov    edx,eax
     dfa:	48 8b 45 e8          	mov    rax,QWORD PTR [rbp-0x18]
     dfe:	89 10                	mov    DWORD PTR [rax],edx
/media/WD3tbUSB3_00/CODE/cpp/__S/workspace/Quake3e/code/server/sv_main.c:536
	}

	if ( bucket->burst < burst ) {
     e00:	48 8b 45 e8          	mov    rax,QWORD PTR [rbp-0x18]
     e04:	8b 40 04             	mov    eax,DWORD PTR [rax+0x4]
     e07:	39 45 e4             	cmp    DWORD PTR [rbp-0x1c],eax
     e0a:	7e 18                	jle    e24 <SVC_RateLimit+0xab>
/media/WD3tbUSB3_00/CODE/cpp/__S/workspace/Quake3e/code/server/sv_main.c:537
		bucket->burst++;
     e0c:	48 8b 45 e8          	mov    rax,QWORD PTR [rbp-0x18]
     e10:	8b 40 04             	mov    eax,DWORD PTR [rax+0x4]
     e13:	8d 50 01             	lea    edx,[rax+0x1]
     e16:	48 8b 45 e8          	mov    rax,QWORD PTR [rbp-0x18]
     e1a:	89 50 04             	mov    DWORD PTR [rax+0x4],edx
/media/WD3tbUSB3_00/CODE/cpp/__S/workspace/Quake3e/code/server/sv_main.c:538
		return qfalse;
     e1d:	b8 00 00 00 00       	mov    eax,0x0
     e22:	eb 05                	jmp    e29 <SVC_RateLimit+0xb0>
/media/WD3tbUSB3_00/CODE/cpp/__S/workspace/Quake3e/code/server/sv_main.c:541
	}

	return qtrue;
     e24:	b8 01 00 00 00       	mov    eax,0x1
/media/WD3tbUSB3_00/CODE/cpp/__S/workspace/Quake3e/code/server/sv_main.c:542
}
     e29:	c9                   	leave  
     e2a:	c3                   	ret    

0000000000000e2b <SVC_RateDrop>:
SVC_RateDrop():
/media/WD3tbUSB3_00/CODE/cpp/__S/workspace/Quake3e/code/server/sv_main.c:550
/*
================
SVC_RateDrop
================
*/
static void SVC_RateDrop( leakyBucket_t *bucket, int burst ) {
     e2b:	55                   	push   rbp
     e2c:	48 89 e5             	mov    rbp,rsp
     e2f:	48 83 ec 10          	sub    rsp,0x10
     e33:	48 89 7d f8          	mov    QWORD PTR [rbp-0x8],rdi
     e37:	89 75 f4             	mov    DWORD PTR [rbp-0xc],esi
/media/WD3tbUSB3_00/CODE/cpp/__S/workspace/Quake3e/code/server/sv_main.c:551
	if ( bucket != NULL ) {
     e3a:	48 83 7d f8 00       	cmp    QWORD PTR [rbp-0x8],0x0
     e3f:	74 41                	je     e82 <SVC_RateDrop+0x57>
/media/WD3tbUSB3_00/CODE/cpp/__S/workspace/Quake3e/code/server/sv_main.c:552
		if ( bucket->toxic < 10000 )
     e41:	48 8b 45 f8          	mov    rax,QWORD PTR [rbp-0x8]
     e45:	8b 40 20             	mov    eax,DWORD PTR [rax+0x20]
     e48:	3d 0f 27 00 00       	cmp    eax,0x270f
     e4d:	7f 11                	jg     e60 <SVC_RateDrop+0x35>
/media/WD3tbUSB3_00/CODE/cpp/__S/workspace/Quake3e/code/server/sv_main.c:553
			++bucket->toxic;
     e4f:	48 8b 45 f8          	mov    rax,QWORD PTR [rbp-0x8]
     e53:	8b 40 20             	mov    eax,DWORD PTR [rax+0x20]
     e56:	8d 50 01             	lea    edx,[rax+0x1]
     e59:	48 8b 45 f8          	mov    rax,QWORD PTR [rbp-0x8]
     e5d:	89 50 20             	mov    DWORD PTR [rax+0x20],edx
/media/WD3tbUSB3_00/CODE/cpp/__S/workspace/Quake3e/code/server/sv_main.c:554
		bucket->rate.burst = burst * bucket->toxic;
     e60:	48 8b 45 f8          	mov    rax,QWORD PTR [rbp-0x8]
     e64:	8b 40 20             	mov    eax,DWORD PTR [rax+0x20]
     e67:	0f af 45 f4          	imul   eax,DWORD PTR [rbp-0xc]
     e6b:	89 c2                	mov    edx,eax
     e6d:	48 8b 45 f8          	mov    rax,QWORD PTR [rbp-0x8]
     e71:	89 50 18             	mov    DWORD PTR [rax+0x18],edx
/media/WD3tbUSB3_00/CODE/cpp/__S/workspace/Quake3e/code/server/sv_main.c:555
		bucket->rate.lastTime = Sys_Milliseconds();
     e74:	e8 00 00 00 00       	call   e79 <SVC_RateDrop+0x4e>
     e79:	89 c2                	mov    edx,eax
     e7b:	48 8b 45 f8          	mov    rax,QWORD PTR [rbp-0x8]
     e7f:	89 50 14             	mov    DWORD PTR [rax+0x14],edx
/media/WD3tbUSB3_00/CODE/cpp/__S/workspace/Quake3e/code/server/sv_main.c:557
	}
}
     e82:	90                   	nop
     e83:	c9                   	leave  
     e84:	c3                   	ret    

0000000000000e85 <SVC_RateRestoreBurst>:
SVC_RateRestoreBurst():
/media/WD3tbUSB3_00/CODE/cpp/__S/workspace/Quake3e/code/server/sv_main.c:565
/*
================
SVC_RateRestoreBurst
================
*/
static void SVC_RateRestoreBurst( leakyBucket_t *bucket ) {
     e85:	55                   	push   rbp
     e86:	48 89 e5             	mov    rbp,rsp
     e89:	48 89 7d f8          	mov    QWORD PTR [rbp-0x8],rdi
/media/WD3tbUSB3_00/CODE/cpp/__S/workspace/Quake3e/code/server/sv_main.c:566
	if ( bucket != NULL ) {
     e8d:	48 83 7d f8 00       	cmp    QWORD PTR [rbp-0x8],0x0
     e92:	74 1c                	je     eb0 <SVC_RateRestoreBurst+0x2b>
/media/WD3tbUSB3_00/CODE/cpp/__S/workspace/Quake3e/code/server/sv_main.c:567
		if ( bucket->rate.burst > 0 ) {
     e94:	48 8b 45 f8          	mov    rax,QWORD PTR [rbp-0x8]
     e98:	8b 40 18             	mov    eax,DWORD PTR [rax+0x18]
     e9b:	85 c0                	test   eax,eax
     e9d:	7e 11                	jle    eb0 <SVC_RateRestoreBurst+0x2b>
/media/WD3tbUSB3_00/CODE/cpp/__S/workspace/Quake3e/code/server/sv_main.c:568
			bucket->rate.burst--;
     e9f:	48 8b 45 f8          	mov    rax,QWORD PTR [rbp-0x8]
     ea3:	8b 40 18             	mov    eax,DWORD PTR [rax+0x18]
     ea6:	8d 50 ff             	lea    edx,[rax-0x1]
     ea9:	48 8b 45 f8          	mov    rax,QWORD PTR [rbp-0x8]
     ead:	89 50 18             	mov    DWORD PTR [rax+0x18],edx
/media/WD3tbUSB3_00/CODE/cpp/__S/workspace/Quake3e/code/server/sv_main.c:571
		}
	}
}
     eb0:	90                   	nop
     eb1:	5d                   	pop    rbp
     eb2:	c3                   	ret    

0000000000000eb3 <SVC_RateRestoreToxic>:
SVC_RateRestoreToxic():
/media/WD3tbUSB3_00/CODE/cpp/__S/workspace/Quake3e/code/server/sv_main.c:579
/*
================
SVC_RateRestoreToxic
================
*/
static void SVC_RateRestoreToxic( leakyBucket_t *bucket ) {
     eb3:	55                   	push   rbp
     eb4:	48 89 e5             	mov    rbp,rsp
     eb7:	48 89 7d f8          	mov    QWORD PTR [rbp-0x8],rdi
/media/WD3tbUSB3_00/CODE/cpp/__S/workspace/Quake3e/code/server/sv_main.c:580
	if ( bucket != NULL ) {
     ebb:	48 83 7d f8 00       	cmp    QWORD PTR [rbp-0x8],0x0
     ec0:	74 1c                	je     ede <SVC_RateRestoreToxic+0x2b>
/media/WD3tbUSB3_00/CODE/cpp/__S/workspace/Quake3e/code/server/sv_main.c:581
		if ( bucket->toxic > 0 ) {
     ec2:	48 8b 45 f8          	mov    rax,QWORD PTR [rbp-0x8]
     ec6:	8b 40 20             	mov    eax,DWORD PTR [rax+0x20]
     ec9:	85 c0                	test   eax,eax
     ecb:	7e 11                	jle    ede <SVC_RateRestoreToxic+0x2b>
/media/WD3tbUSB3_00/CODE/cpp/__S/workspace/Quake3e/code/server/sv_main.c:582
			bucket->toxic--;
     ecd:	48 8b 45 f8          	mov    rax,QWORD PTR [rbp-0x8]
     ed1:	8b 40 20             	mov    eax,DWORD PTR [rax+0x20]
     ed4:	8d 50 ff             	lea    edx,[rax-0x1]
     ed7:	48 8b 45 f8          	mov    rax,QWORD PTR [rbp-0x8]
     edb:	89 50 20             	mov    DWORD PTR [rax+0x20],edx
/media/WD3tbUSB3_00/CODE/cpp/__S/workspace/Quake3e/code/server/sv_main.c:585
		}
	}
}
     ede:	90                   	nop
     edf:	5d                   	pop    rbp
     ee0:	c3                   	ret    

0000000000000ee1 <SVC_RateLimitAddress>:
SVC_RateLimitAddress():
/media/WD3tbUSB3_00/CODE/cpp/__S/workspace/Quake3e/code/server/sv_main.c:595
SVC_RateLimitAddress

Rate limit for a particular address
================
*/
qboolean SVC_RateLimitAddress( const netadr_t *from, int burst, int period ) {
     ee1:	55                   	push   rbp
     ee2:	48 89 e5             	mov    rbp,rsp
     ee5:	48 83 ec 20          	sub    rsp,0x20
     ee9:	48 89 7d e8          	mov    QWORD PTR [rbp-0x18],rdi
     eed:	89 75 e4             	mov    DWORD PTR [rbp-0x1c],esi
     ef0:	89 55 e0             	mov    DWORD PTR [rbp-0x20],edx
/media/WD3tbUSB3_00/CODE/cpp/__S/workspace/Quake3e/code/server/sv_main.c:596
	leakyBucket_t *bucket = SVC_BucketForAddress( from, burst, period );
     ef3:	8b 55 e0             	mov    edx,DWORD PTR [rbp-0x20]
     ef6:	8b 4d e4             	mov    ecx,DWORD PTR [rbp-0x1c]
     ef9:	48 8b 45 e8          	mov    rax,QWORD PTR [rbp-0x18]
     efd:	89 ce                	mov    esi,ecx
     eff:	48 89 c7             	mov    rdi,rax
     f02:	e8 34 fb ff ff       	call   a3b <SVC_BucketForAddress>
     f07:	48 89 45 f8          	mov    QWORD PTR [rbp-0x8],rax
/media/WD3tbUSB3_00/CODE/cpp/__S/workspace/Quake3e/code/server/sv_main.c:598

	return bucket ? SVC_RateLimit( &bucket->rate, burst, period ) : qtrue;
     f0b:	48 83 7d f8 00       	cmp    QWORD PTR [rbp-0x8],0x0
     f10:	74 1a                	je     f2c <SVC_RateLimitAddress+0x4b>
/media/WD3tbUSB3_00/CODE/cpp/__S/workspace/Quake3e/code/server/sv_main.c:598 (discriminator 1)
     f12:	48 8b 45 f8          	mov    rax,QWORD PTR [rbp-0x8]
     f16:	48 8d 48 14          	lea    rcx,[rax+0x14]
     f1a:	8b 55 e0             	mov    edx,DWORD PTR [rbp-0x20]
     f1d:	8b 45 e4             	mov    eax,DWORD PTR [rbp-0x1c]
     f20:	89 c6                	mov    esi,eax
     f22:	48 89 cf             	mov    rdi,rcx
     f25:	e8 00 00 00 00       	call   f2a <SVC_RateLimitAddress+0x49>
     f2a:	eb 05                	jmp    f31 <SVC_RateLimitAddress+0x50>
/media/WD3tbUSB3_00/CODE/cpp/__S/workspace/Quake3e/code/server/sv_main.c:598 (discriminator 2)
     f2c:	b8 01 00 00 00       	mov    eax,0x1
/media/WD3tbUSB3_00/CODE/cpp/__S/workspace/Quake3e/code/server/sv_main.c:599 (discriminator 5)
}
     f31:	c9                   	leave  
     f32:	c3                   	ret    

0000000000000f33 <SVC_RateRestoreBurstAddress>:
SVC_RateRestoreBurstAddress():
/media/WD3tbUSB3_00/CODE/cpp/__S/workspace/Quake3e/code/server/sv_main.c:609
SVC_RateRestoreAddress

Decrease burst rate
================
*/
void SVC_RateRestoreBurstAddress( const netadr_t *from, int burst, int period ) {
     f33:	55                   	push   rbp
     f34:	48 89 e5             	mov    rbp,rsp
     f37:	48 83 ec 20          	sub    rsp,0x20
     f3b:	48 89 7d e8          	mov    QWORD PTR [rbp-0x18],rdi
     f3f:	89 75 e4             	mov    DWORD PTR [rbp-0x1c],esi
     f42:	89 55 e0             	mov    DWORD PTR [rbp-0x20],edx
/media/WD3tbUSB3_00/CODE/cpp/__S/workspace/Quake3e/code/server/sv_main.c:610
	leakyBucket_t *bucket = SVC_BucketForAddress( from, burst, period );
     f45:	8b 55 e0             	mov    edx,DWORD PTR [rbp-0x20]
     f48:	8b 4d e4             	mov    ecx,DWORD PTR [rbp-0x1c]
     f4b:	48 8b 45 e8          	mov    rax,QWORD PTR [rbp-0x18]
     f4f:	89 ce                	mov    esi,ecx
     f51:	48 89 c7             	mov    rdi,rax
     f54:	e8 e2 fa ff ff       	call   a3b <SVC_BucketForAddress>
     f59:	48 89 45 f8          	mov    QWORD PTR [rbp-0x8],rax
/media/WD3tbUSB3_00/CODE/cpp/__S/workspace/Quake3e/code/server/sv_main.c:612

	SVC_RateRestoreBurst( bucket );
     f5d:	48 8b 45 f8          	mov    rax,QWORD PTR [rbp-0x8]
     f61:	48 89 c7             	mov    rdi,rax
     f64:	e8 1c ff ff ff       	call   e85 <SVC_RateRestoreBurst>
/media/WD3tbUSB3_00/CODE/cpp/__S/workspace/Quake3e/code/server/sv_main.c:613
}
     f69:	90                   	nop
     f6a:	c9                   	leave  
     f6b:	c3                   	ret    

0000000000000f6c <SVC_RateRestoreToxicAddress>:
SVC_RateRestoreToxicAddress():
/media/WD3tbUSB3_00/CODE/cpp/__S/workspace/Quake3e/code/server/sv_main.c:623
SVC_RateRestoreToxicAddress

Decrease toxicity
================
*/
void SVC_RateRestoreToxicAddress( const netadr_t *from, int burst, int period ) {
     f6c:	55                   	push   rbp
     f6d:	48 89 e5             	mov    rbp,rsp
     f70:	48 83 ec 20          	sub    rsp,0x20
     f74:	48 89 7d e8          	mov    QWORD PTR [rbp-0x18],rdi
     f78:	89 75 e4             	mov    DWORD PTR [rbp-0x1c],esi
     f7b:	89 55 e0             	mov    DWORD PTR [rbp-0x20],edx
/media/WD3tbUSB3_00/CODE/cpp/__S/workspace/Quake3e/code/server/sv_main.c:624
	leakyBucket_t *bucket = SVC_BucketForAddress( from, burst, period );
     f7e:	8b 55 e0             	mov    edx,DWORD PTR [rbp-0x20]
     f81:	8b 4d e4             	mov    ecx,DWORD PTR [rbp-0x1c]
     f84:	48 8b 45 e8          	mov    rax,QWORD PTR [rbp-0x18]
     f88:	89 ce                	mov    esi,ecx
     f8a:	48 89 c7             	mov    rdi,rax
     f8d:	e8 a9 fa ff ff       	call   a3b <SVC_BucketForAddress>
     f92:	48 89 45 f8          	mov    QWORD PTR [rbp-0x8],rax
/media/WD3tbUSB3_00/CODE/cpp/__S/workspace/Quake3e/code/server/sv_main.c:626

	SVC_RateRestoreToxic( bucket );
     f96:	48 8b 45 f8          	mov    rax,QWORD PTR [rbp-0x8]
     f9a:	48 89 c7             	mov    rdi,rax
     f9d:	e8 11 ff ff ff       	call   eb3 <SVC_RateRestoreToxic>
/media/WD3tbUSB3_00/CODE/cpp/__S/workspace/Quake3e/code/server/sv_main.c:627
}
     fa2:	90                   	nop
     fa3:	c9                   	leave  
     fa4:	c3                   	ret    

0000000000000fa5 <SVC_RateDropAddress>:
SVC_RateDropAddress():
/media/WD3tbUSB3_00/CODE/cpp/__S/workspace/Quake3e/code/server/sv_main.c:635
/*
================
SVC_RateDropAddress
================
*/
void SVC_RateDropAddress( const netadr_t *from, int burst, int period ) {
     fa5:	55                   	push   rbp
     fa6:	48 89 e5             	mov    rbp,rsp
     fa9:	48 83 ec 20          	sub    rsp,0x20
     fad:	48 89 7d e8          	mov    QWORD PTR [rbp-0x18],rdi
     fb1:	89 75 e4             	mov    DWORD PTR [rbp-0x1c],esi
     fb4:	89 55 e0             	mov    DWORD PTR [rbp-0x20],edx
/media/WD3tbUSB3_00/CODE/cpp/__S/workspace/Quake3e/code/server/sv_main.c:636
	leakyBucket_t *bucket = SVC_BucketForAddress( from, burst, period );
     fb7:	8b 55 e0             	mov    edx,DWORD PTR [rbp-0x20]
     fba:	8b 4d e4             	mov    ecx,DWORD PTR [rbp-0x1c]
     fbd:	48 8b 45 e8          	mov    rax,QWORD PTR [rbp-0x18]
     fc1:	89 ce                	mov    esi,ecx
     fc3:	48 89 c7             	mov    rdi,rax
     fc6:	e8 70 fa ff ff       	call   a3b <SVC_BucketForAddress>
     fcb:	48 89 45 f8          	mov    QWORD PTR [rbp-0x8],rax
/media/WD3tbUSB3_00/CODE/cpp/__S/workspace/Quake3e/code/server/sv_main.c:638

	SVC_RateDrop( bucket, burst );
     fcf:	8b 55 e4             	mov    edx,DWORD PTR [rbp-0x1c]
     fd2:	48 8b 45 f8          	mov    rax,QWORD PTR [rbp-0x8]
     fd6:	89 d6                	mov    esi,edx
     fd8:	48 89 c7             	mov    rdi,rax
     fdb:	e8 4b fe ff ff       	call   e2b <SVC_RateDrop>
/media/WD3tbUSB3_00/CODE/cpp/__S/workspace/Quake3e/code/server/sv_main.c:639
}
     fe0:	90                   	nop
     fe1:	c9                   	leave  
     fe2:	c3                   	ret    

0000000000000fe3 <SVC_Status>:
SVC_Status():
/media/WD3tbUSB3_00/CODE/cpp/__S/workspace/Quake3e/code/server/sv_main.c:651
Responds with all the info that qplug or qspy can see about the server
and all connected players.  Used for getting detailed information after
the simple info query.
================
*/
static void SVC_Status( const netadr_t *from ) {
     fe3:	55                   	push   rbp
     fe4:	48 89 e5             	mov    rbp,rsp
     fe7:	48 81 ec a0 0a 00 00 	sub    rsp,0xaa0
     fee:	48 89 bd 68 f5 ff ff 	mov    QWORD PTR [rbp-0xa98],rdi
/media/WD3tbUSB3_00/CODE/cpp/__S/workspace/Quake3e/code/server/sv_main.c:670
		return;
	}
#endif

	// Prevent using getstatus as an amplifier
	if ( SVC_RateLimitAddress( from, 10, 1000 ) ) {
     ff5:	48 8b 85 68 f5 ff ff 	mov    rax,QWORD PTR [rbp-0xa98]
     ffc:	ba e8 03 00 00       	mov    edx,0x3e8
    1001:	be 0a 00 00 00       	mov    esi,0xa
    1006:	48 89 c7             	mov    rdi,rax
    1009:	e8 00 00 00 00       	call   100e <SVC_Status+0x2b>
    100e:	85 c0                	test   eax,eax
    1010:	74 3a                	je     104c <SVC_Status+0x69>
/media/WD3tbUSB3_00/CODE/cpp/__S/workspace/Quake3e/code/server/sv_main.c:671
		if ( com_developer->integer ) {
    1012:	48 8b 05 00 00 00 00 	mov    rax,QWORD PTR [rip+0x0]        # 1019 <SVC_Status+0x36>
    1019:	8b 40 30             	mov    eax,DWORD PTR [rax+0x30]
    101c:	85 c0                	test   eax,eax
    101e:	0f 84 f7 01 00 00    	je     121b <SVC_Status+0x238>
/media/WD3tbUSB3_00/CODE/cpp/__S/workspace/Quake3e/code/server/sv_main.c:672
			Com_Printf( "SVC_Status: rate limit from %s exceeded, dropping request\n",
    1024:	48 8b 85 68 f5 ff ff 	mov    rax,QWORD PTR [rbp-0xa98]
    102b:	48 89 c7             	mov    rdi,rax
    102e:	e8 00 00 00 00       	call   1033 <SVC_Status+0x50>
    1033:	48 89 c6             	mov    rsi,rax
    1036:	48 8d 3d 00 00 00 00 	lea    rdi,[rip+0x0]        # 103d <SVC_Status+0x5a>
    103d:	b8 00 00 00 00       	mov    eax,0x0
    1042:	e8 00 00 00 00       	call   1047 <SVC_Status+0x64>
/media/WD3tbUSB3_00/CODE/cpp/__S/workspace/Quake3e/code/server/sv_main.c:675
				NET_AdrToString( from ) );
		}
		return;
    1047:	e9 cf 01 00 00       	jmp    121b <SVC_Status+0x238>
/media/WD3tbUSB3_00/CODE/cpp/__S/workspace/Quake3e/code/server/sv_main.c:680
	}

	// Allow getstatus to be DoSed relatively easily, but prevent
	// excess outbound bandwidth usage when being flooded inbound
	if ( SVC_RateLimit( &outboundRateLimit, 10, 100 ) ) {
    104c:	ba 64 00 00 00       	mov    edx,0x64
    1051:	be 0a 00 00 00       	mov    esi,0xa
    1056:	48 8d 3d 00 00 00 00 	lea    rdi,[rip+0x0]        # 105d <SVC_Status+0x7a>
    105d:	e8 00 00 00 00       	call   1062 <SVC_Status+0x7f>
    1062:	85 c0                	test   eax,eax
    1064:	74 16                	je     107c <SVC_Status+0x99>
/media/WD3tbUSB3_00/CODE/cpp/__S/workspace/Quake3e/code/server/sv_main.c:681
		Com_DPrintf( "SVC_Status: rate limit exceeded, dropping request\n" );
    1066:	48 8d 3d 00 00 00 00 	lea    rdi,[rip+0x0]        # 106d <SVC_Status+0x8a>
    106d:	b8 00 00 00 00       	mov    eax,0x0
    1072:	e8 00 00 00 00       	call   1077 <SVC_Status+0x94>
/media/WD3tbUSB3_00/CODE/cpp/__S/workspace/Quake3e/code/server/sv_main.c:682
		return;
    1077:	e9 a3 01 00 00       	jmp    121f <SVC_Status+0x23c>
/media/WD3tbUSB3_00/CODE/cpp/__S/workspace/Quake3e/code/server/sv_main.c:686
	}

	// A maximum challenge length of 128 should be more than plenty.
	if ( strlen( Cmd_Argv( 1 ) ) > 128 )
    107c:	bf 01 00 00 00       	mov    edi,0x1
    1081:	e8 00 00 00 00       	call   1086 <SVC_Status+0xa3>
    1086:	48 89 c7             	mov    rdi,rax
    1089:	e8 00 00 00 00       	call   108e <SVC_Status+0xab>
    108e:	48 3d 80 00 00 00    	cmp    rax,0x80
    1094:	0f 87 84 01 00 00    	ja     121e <SVC_Status+0x23b>
/media/WD3tbUSB3_00/CODE/cpp/__S/workspace/Quake3e/code/server/sv_main.c:689
		return;

	Q_strncpyz( infostring, Cvar_InfoString( CVAR_SERVERINFO, NULL ), sizeof( infostring ) );
    109a:	be 00 00 00 00       	mov    esi,0x0
    109f:	bf 04 00 00 00       	mov    edi,0x4
    10a4:	e8 00 00 00 00       	call   10a9 <SVC_Status+0xc6>
    10a9:	48 89 c1             	mov    rcx,rax
    10ac:	48 8d 85 70 f5 ff ff 	lea    rax,[rbp-0xa90]
    10b3:	ba a0 04 00 00       	mov    edx,0x4a0
    10b8:	48 89 ce             	mov    rsi,rcx
    10bb:	48 89 c7             	mov    rdi,rax
    10be:	e8 00 00 00 00       	call   10c3 <SVC_Status+0xe0>
/media/WD3tbUSB3_00/CODE/cpp/__S/workspace/Quake3e/code/server/sv_main.c:693

	// echo back the parameter to status. so master servers can use it as a challenge
	// to prevent timed spoofed reply packets that add ghost servers
	Info_SetValueForKey( infostring, "challenge", Cmd_Argv( 1 ) );
    10c3:	bf 01 00 00 00       	mov    edi,0x1
    10c8:	e8 00 00 00 00       	call   10cd <SVC_Status+0xea>
    10cd:	48 89 c2             	mov    rdx,rax
    10d0:	48 8d 85 70 f5 ff ff 	lea    rax,[rbp-0xa90]
    10d7:	48 89 d1             	mov    rcx,rdx
    10da:	48 8d 15 00 00 00 00 	lea    rdx,[rip+0x0]        # 10e1 <SVC_Status+0xfe>
    10e1:	be 00 04 00 00       	mov    esi,0x400
    10e6:	48 89 c7             	mov    rdi,rax
    10e9:	e8 00 00 00 00       	call   10ee <SVC_Status+0x10b>
/media/WD3tbUSB3_00/CODE/cpp/__S/workspace/Quake3e/code/server/sv_main.c:695

	s = status;
    10ee:	48 8d 85 10 fa ff ff 	lea    rax,[rbp-0x5f0]
    10f5:	48 89 45 f8          	mov    QWORD PTR [rbp-0x8],rax
/media/WD3tbUSB3_00/CODE/cpp/__S/workspace/Quake3e/code/server/sv_main.c:696
	status[0] = '\0';
    10f9:	c6 85 10 fa ff ff 00 	mov    BYTE PTR [rbp-0x5f0],0x0
/media/WD3tbUSB3_00/CODE/cpp/__S/workspace/Quake3e/code/server/sv_main.c:697
	statusLength = strlen( infostring ) + 16; // strlen( "statusResponse\n\n" )
    1100:	48 8d 85 70 f5 ff ff 	lea    rax,[rbp-0xa90]
    1107:	48 89 c7             	mov    rdi,rax
    110a:	e8 00 00 00 00       	call   110f <SVC_Status+0x12c>
    110f:	83 c0 10             	add    eax,0x10
    1112:	89 45 f0             	mov    DWORD PTR [rbp-0x10],eax
/media/WD3tbUSB3_00/CODE/cpp/__S/workspace/Quake3e/code/server/sv_main.c:699

	for ( i = 0 ; i < sv_maxclients->integer ; i++ ) {
    1115:	c7 45 f4 00 00 00 00 	mov    DWORD PTR [rbp-0xc],0x0
    111c:	e9 ae 00 00 00       	jmp    11cf <SVC_Status+0x1ec>
/media/WD3tbUSB3_00/CODE/cpp/__S/workspace/Quake3e/code/server/sv_main.c:700
		cl = &svs.clients[i];
    1121:	48 8b 15 00 00 00 00 	mov    rdx,QWORD PTR [rip+0x0]        # 1128 <SVC_Status+0x145>
    1128:	8b 45 f4             	mov    eax,DWORD PTR [rbp-0xc]
    112b:	48 98                	cdqe   
    112d:	48 69 c0 e0 dd 02 00 	imul   rax,rax,0x2dde0
    1134:	48 01 d0             	add    rax,rdx
    1137:	48 89 45 e8          	mov    QWORD PTR [rbp-0x18],rax
/media/WD3tbUSB3_00/CODE/cpp/__S/workspace/Quake3e/code/server/sv_main.c:701
		if ( cl->state >= CS_CONNECTED ) {
    113b:	48 8b 45 e8          	mov    rax,QWORD PTR [rbp-0x18]
    113f:	8b 00                	mov    eax,DWORD PTR [rax]
    1141:	83 f8 01             	cmp    eax,0x1
    1144:	0f 86 81 00 00 00    	jbe    11cb <SVC_Status+0x1e8>
/media/WD3tbUSB3_00/CODE/cpp/__S/workspace/Quake3e/code/server/sv_main.c:703

			ps = SV_GameClientNum( i );
    114a:	8b 45 f4             	mov    eax,DWORD PTR [rbp-0xc]
    114d:	89 c7                	mov    edi,eax
    114f:	e8 00 00 00 00       	call   1154 <SVC_Status+0x171>
    1154:	48 89 45 e0          	mov    QWORD PTR [rbp-0x20],rax
/media/WD3tbUSB3_00/CODE/cpp/__S/workspace/Quake3e/code/server/sv_main.c:705
			playerLength = Com_sprintf( player, sizeof( player ), "%i %i \"%s\"\n", 
				ps->persistant[ PERS_SCORE ], cl->ping, cl->name );
    1158:	48 8b 45 e8          	mov    rax,QWORD PTR [rbp-0x18]
    115c:	48 8d b0 40 08 01 00 	lea    rsi,[rax+0x10840]
/media/WD3tbUSB3_00/CODE/cpp/__S/workspace/Quake3e/code/server/sv_main.c:704
			playerLength = Com_sprintf( player, sizeof( player ), "%i %i \"%s\"\n", 
    1163:	48 8b 45 e8          	mov    rax,QWORD PTR [rbp-0x18]
    1167:	8b 88 20 4d 02 00    	mov    ecx,DWORD PTR [rax+0x24d20]
    116d:	48 8b 45 e0          	mov    rax,QWORD PTR [rbp-0x20]
    1171:	8b 90 f8 00 00 00    	mov    edx,DWORD PTR [rax+0xf8]
    1177:	48 8d 45 90          	lea    rax,[rbp-0x70]
    117b:	49 89 f1             	mov    r9,rsi
    117e:	41 89 c8             	mov    r8d,ecx
    1181:	89 d1                	mov    ecx,edx
    1183:	48 8d 15 00 00 00 00 	lea    rdx,[rip+0x0]        # 118a <SVC_Status+0x1a7>
    118a:	be 40 00 00 00       	mov    esi,0x40
    118f:	48 89 c7             	mov    rdi,rax
    1192:	b8 00 00 00 00       	mov    eax,0x0
    1197:	e8 00 00 00 00       	call   119c <SVC_Status+0x1b9>
    119c:	89 45 dc             	mov    DWORD PTR [rbp-0x24],eax
/media/WD3tbUSB3_00/CODE/cpp/__S/workspace/Quake3e/code/server/sv_main.c:707
			
			if ( statusLength + playerLength >= MAX_PACKETLEN-4 )
    119f:	8b 55 f0             	mov    edx,DWORD PTR [rbp-0x10]
    11a2:	8b 45 dc             	mov    eax,DWORD PTR [rbp-0x24]
    11a5:	01 d0                	add    eax,edx
    11a7:	3d 73 05 00 00       	cmp    eax,0x573
    11ac:	7f 36                	jg     11e4 <SVC_Status+0x201>
/media/WD3tbUSB3_00/CODE/cpp/__S/workspace/Quake3e/code/server/sv_main.c:710
				break; // can't hold any more
			
			s = Q_stradd( s, player );
    11ae:	48 8d 55 90          	lea    rdx,[rbp-0x70]
    11b2:	48 8b 45 f8          	mov    rax,QWORD PTR [rbp-0x8]
    11b6:	48 89 d6             	mov    rsi,rdx
    11b9:	48 89 c7             	mov    rdi,rax
    11bc:	e8 00 00 00 00       	call   11c1 <SVC_Status+0x1de>
    11c1:	48 89 45 f8          	mov    QWORD PTR [rbp-0x8],rax
/media/WD3tbUSB3_00/CODE/cpp/__S/workspace/Quake3e/code/server/sv_main.c:711
			statusLength += playerLength;
    11c5:	8b 45 dc             	mov    eax,DWORD PTR [rbp-0x24]
    11c8:	01 45 f0             	add    DWORD PTR [rbp-0x10],eax
/media/WD3tbUSB3_00/CODE/cpp/__S/workspace/Quake3e/code/server/sv_main.c:699 (discriminator 2)
	for ( i = 0 ; i < sv_maxclients->integer ; i++ ) {
    11cb:	83 45 f4 01          	add    DWORD PTR [rbp-0xc],0x1
/media/WD3tbUSB3_00/CODE/cpp/__S/workspace/Quake3e/code/server/sv_main.c:699 (discriminator 1)
    11cf:	48 8b 05 00 00 00 00 	mov    rax,QWORD PTR [rip+0x0]        # 11d6 <SVC_Status+0x1f3>
    11d6:	8b 40 30             	mov    eax,DWORD PTR [rax+0x30]
    11d9:	39 45 f4             	cmp    DWORD PTR [rbp-0xc],eax
    11dc:	0f 8c 3f ff ff ff    	jl     1121 <SVC_Status+0x13e>
    11e2:	eb 01                	jmp    11e5 <SVC_Status+0x202>
/media/WD3tbUSB3_00/CODE/cpp/__S/workspace/Quake3e/code/server/sv_main.c:708
				break; // can't hold any more
    11e4:	90                   	nop
/media/WD3tbUSB3_00/CODE/cpp/__S/workspace/Quake3e/code/server/sv_main.c:715 (discriminator 1)
		}
	}

	NET_OutOfBandPrint( NS_SERVER, from, "statusResponse\n%s\n%s", infostring, status );
    11e5:	48 8d 8d 10 fa ff ff 	lea    rcx,[rbp-0x5f0]
    11ec:	48 8d 95 70 f5 ff ff 	lea    rdx,[rbp-0xa90]
    11f3:	48 8b 85 68 f5 ff ff 	mov    rax,QWORD PTR [rbp-0xa98]
    11fa:	49 89 c8             	mov    r8,rcx
    11fd:	48 89 d1             	mov    rcx,rdx
    1200:	48 8d 15 00 00 00 00 	lea    rdx,[rip+0x0]        # 1207 <SVC_Status+0x224>
    1207:	48 89 c6             	mov    rsi,rax
    120a:	bf 01 00 00 00       	mov    edi,0x1
    120f:	b8 00 00 00 00       	mov    eax,0x0
    1214:	e8 00 00 00 00       	call   1219 <SVC_Status+0x236>
    1219:	eb 04                	jmp    121f <SVC_Status+0x23c>
/media/WD3tbUSB3_00/CODE/cpp/__S/workspace/Quake3e/code/server/sv_main.c:675
		return;
    121b:	90                   	nop
    121c:	eb 01                	jmp    121f <SVC_Status+0x23c>
/media/WD3tbUSB3_00/CODE/cpp/__S/workspace/Quake3e/code/server/sv_main.c:687
		return;
    121e:	90                   	nop
/media/WD3tbUSB3_00/CODE/cpp/__S/workspace/Quake3e/code/server/sv_main.c:716
}
    121f:	c9                   	leave  
    1220:	c3                   	ret    

0000000000001221 <SVC_Info>:
SVC_Info():
/media/WD3tbUSB3_00/CODE/cpp/__S/workspace/Quake3e/code/server/sv_main.c:727

Responds with a short info message that should be enough to determine
if a user is interested in a server to do a full status
================
*/
static void SVC_Info( const netadr_t *from ) {
    1221:	55                   	push   rbp
    1222:	48 89 e5             	mov    rbp,rsp
    1225:	48 81 ec 30 04 00 00 	sub    rsp,0x430
    122c:	48 89 bd d8 fb ff ff 	mov    QWORD PTR [rbp-0x428],rdi
/media/WD3tbUSB3_00/CODE/cpp/__S/workspace/Quake3e/code/server/sv_main.c:740
		return;
	}
#endif

	// Prevent using getinfo as an amplifier
	if ( SVC_RateLimitAddress( from, 10, 1000 ) ) {
    1233:	48 8b 85 d8 fb ff ff 	mov    rax,QWORD PTR [rbp-0x428]
    123a:	ba e8 03 00 00       	mov    edx,0x3e8
    123f:	be 0a 00 00 00       	mov    esi,0xa
    1244:	48 89 c7             	mov    rdi,rax
    1247:	e8 00 00 00 00       	call   124c <SVC_Info+0x2b>
    124c:	85 c0                	test   eax,eax
    124e:	74 3a                	je     128a <SVC_Info+0x69>
/media/WD3tbUSB3_00/CODE/cpp/__S/workspace/Quake3e/code/server/sv_main.c:741
		if ( com_developer->integer ) {
    1250:	48 8b 05 00 00 00 00 	mov    rax,QWORD PTR [rip+0x0]        # 1257 <SVC_Info+0x36>
    1257:	8b 40 30             	mov    eax,DWORD PTR [rax+0x30]
    125a:	85 c0                	test   eax,eax
    125c:	0f 84 77 03 00 00    	je     15d9 <SVC_Info+0x3b8>
/media/WD3tbUSB3_00/CODE/cpp/__S/workspace/Quake3e/code/server/sv_main.c:742
			Com_Printf( "SVC_Info: rate limit from %s exceeded, dropping request\n",
    1262:	48 8b 85 d8 fb ff ff 	mov    rax,QWORD PTR [rbp-0x428]
    1269:	48 89 c7             	mov    rdi,rax
    126c:	e8 00 00 00 00       	call   1271 <SVC_Info+0x50>
    1271:	48 89 c6             	mov    rsi,rax
    1274:	48 8d 3d 00 00 00 00 	lea    rdi,[rip+0x0]        # 127b <SVC_Info+0x5a>
    127b:	b8 00 00 00 00       	mov    eax,0x0
    1280:	e8 00 00 00 00       	call   1285 <SVC_Info+0x64>
/media/WD3tbUSB3_00/CODE/cpp/__S/workspace/Quake3e/code/server/sv_main.c:745
				NET_AdrToString( from ) );
		}
		return;
    1285:	e9 4f 03 00 00       	jmp    15d9 <SVC_Info+0x3b8>
/media/WD3tbUSB3_00/CODE/cpp/__S/workspace/Quake3e/code/server/sv_main.c:750
	}

	// Allow getinfo to be DoSed relatively easily, but prevent
	// excess outbound bandwidth usage when being flooded inbound
	if ( SVC_RateLimit( &outboundRateLimit, 10, 100 ) ) {
    128a:	ba 64 00 00 00       	mov    edx,0x64
    128f:	be 0a 00 00 00       	mov    esi,0xa
    1294:	48 8d 3d 00 00 00 00 	lea    rdi,[rip+0x0]        # 129b <SVC_Info+0x7a>
    129b:	e8 00 00 00 00       	call   12a0 <SVC_Info+0x7f>
    12a0:	85 c0                	test   eax,eax
    12a2:	74 16                	je     12ba <SVC_Info+0x99>
/media/WD3tbUSB3_00/CODE/cpp/__S/workspace/Quake3e/code/server/sv_main.c:751
		Com_DPrintf( "SVC_Info: rate limit exceeded, dropping request\n" );
    12a4:	48 8d 3d 00 00 00 00 	lea    rdi,[rip+0x0]        # 12ab <SVC_Info+0x8a>
    12ab:	b8 00 00 00 00       	mov    eax,0x0
    12b0:	e8 00 00 00 00       	call   12b5 <SVC_Info+0x94>
/media/WD3tbUSB3_00/CODE/cpp/__S/workspace/Quake3e/code/server/sv_main.c:752
		return;
    12b5:	e9 23 03 00 00       	jmp    15dd <SVC_Info+0x3bc>
/media/WD3tbUSB3_00/CODE/cpp/__S/workspace/Quake3e/code/server/sv_main.c:761
	 * Check whether Cmd_Argv(1) has a sane length. This was not done in the original Quake3 version which led
	 * to the Infostring bug discovered by Luigi Auriemma. See http://aluigi.altervista.org/ for the advisory.
	 */

	// A maximum challenge length of 128 should be more than plenty.
	if ( strlen( Cmd_Argv( 1 ) ) > 128 )
    12ba:	bf 01 00 00 00       	mov    edi,0x1
    12bf:	e8 00 00 00 00       	call   12c4 <SVC_Info+0xa3>
    12c4:	48 89 c7             	mov    rdi,rax
    12c7:	e8 00 00 00 00       	call   12cc <SVC_Info+0xab>
    12cc:	48 3d 80 00 00 00    	cmp    rax,0x80
    12d2:	0f 87 04 03 00 00    	ja     15dc <SVC_Info+0x3bb>
/media/WD3tbUSB3_00/CODE/cpp/__S/workspace/Quake3e/code/server/sv_main.c:765
		return;

	// don't count privateclients
	count = humans = 0;
    12d8:	c7 45 f4 00 00 00 00 	mov    DWORD PTR [rbp-0xc],0x0
    12df:	8b 45 f4             	mov    eax,DWORD PTR [rbp-0xc]
    12e2:	89 45 f8             	mov    DWORD PTR [rbp-0x8],eax
/media/WD3tbUSB3_00/CODE/cpp/__S/workspace/Quake3e/code/server/sv_main.c:766
	for ( i = sv_privateClients->integer ; i < sv_maxclients->integer ; i++ ) {
    12e5:	48 8b 05 00 00 00 00 	mov    rax,QWORD PTR [rip+0x0]        # 12ec <SVC_Info+0xcb>
    12ec:	8b 40 30             	mov    eax,DWORD PTR [rax+0x30]
    12ef:	89 45 fc             	mov    DWORD PTR [rbp-0x4],eax
    12f2:	eb 4a                	jmp    133e <SVC_Info+0x11d>
/media/WD3tbUSB3_00/CODE/cpp/__S/workspace/Quake3e/code/server/sv_main.c:767
		if ( svs.clients[i].state >= CS_CONNECTED ) {
    12f4:	48 8b 15 00 00 00 00 	mov    rdx,QWORD PTR [rip+0x0]        # 12fb <SVC_Info+0xda>
    12fb:	8b 45 fc             	mov    eax,DWORD PTR [rbp-0x4]
    12fe:	48 98                	cdqe   
    1300:	48 69 c0 e0 dd 02 00 	imul   rax,rax,0x2dde0
    1307:	48 01 d0             	add    rax,rdx
    130a:	8b 00                	mov    eax,DWORD PTR [rax]
    130c:	83 f8 01             	cmp    eax,0x1
    130f:	76 29                	jbe    133a <SVC_Info+0x119>
/media/WD3tbUSB3_00/CODE/cpp/__S/workspace/Quake3e/code/server/sv_main.c:768
			count++;
    1311:	83 45 f8 01          	add    DWORD PTR [rbp-0x8],0x1
/media/WD3tbUSB3_00/CODE/cpp/__S/workspace/Quake3e/code/server/sv_main.c:769
			if (svs.clients[i].netchan.remoteAddress.type != NA_BOT) {
    1315:	48 8b 15 00 00 00 00 	mov    rdx,QWORD PTR [rip+0x0]        # 131c <SVC_Info+0xfb>
    131c:	8b 45 fc             	mov    eax,DWORD PTR [rbp-0x4]
    131f:	48 98                	cdqe   
    1321:	48 69 c0 e0 dd 02 00 	imul   rax,rax,0x2dde0
    1328:	48 01 d0             	add    rax,rdx
    132b:	8b 80 40 4d 02 00    	mov    eax,DWORD PTR [rax+0x24d40]
    1331:	83 f8 01             	cmp    eax,0x1
    1334:	74 04                	je     133a <SVC_Info+0x119>
/media/WD3tbUSB3_00/CODE/cpp/__S/workspace/Quake3e/code/server/sv_main.c:770
				humans++;
    1336:	83 45 f4 01          	add    DWORD PTR [rbp-0xc],0x1
/media/WD3tbUSB3_00/CODE/cpp/__S/workspace/Quake3e/code/server/sv_main.c:766 (discriminator 2)
	for ( i = sv_privateClients->integer ; i < sv_maxclients->integer ; i++ ) {
    133a:	83 45 fc 01          	add    DWORD PTR [rbp-0x4],0x1
/media/WD3tbUSB3_00/CODE/cpp/__S/workspace/Quake3e/code/server/sv_main.c:766 (discriminator 1)
    133e:	48 8b 05 00 00 00 00 	mov    rax,QWORD PTR [rip+0x0]        # 1345 <SVC_Info+0x124>
    1345:	8b 40 30             	mov    eax,DWORD PTR [rax+0x30]
    1348:	39 45 fc             	cmp    DWORD PTR [rbp-0x4],eax
    134b:	7c a7                	jl     12f4 <SVC_Info+0xd3>
/media/WD3tbUSB3_00/CODE/cpp/__S/workspace/Quake3e/code/server/sv_main.c:775
			}
		}
	}

	infostring[0] = '\0';
    134d:	c6 85 e0 fb ff ff 00 	mov    BYTE PTR [rbp-0x420],0x0
/media/WD3tbUSB3_00/CODE/cpp/__S/workspace/Quake3e/code/server/sv_main.c:779

	// echo back the parameter to status. so servers can use it as a challenge
	// to prevent timed spoofed reply packets that add ghost servers
	Info_SetValueForKey( infostring, "challenge", Cmd_Argv(1) );
    1354:	bf 01 00 00 00       	mov    edi,0x1
    1359:	e8 00 00 00 00       	call   135e <SVC_Info+0x13d>
    135e:	48 89 c2             	mov    rdx,rax
    1361:	48 8d 85 e0 fb ff ff 	lea    rax,[rbp-0x420]
    1368:	48 89 d1             	mov    rcx,rdx
    136b:	48 8d 15 00 00 00 00 	lea    rdx,[rip+0x0]        # 1372 <SVC_Info+0x151>
    1372:	be 00 04 00 00       	mov    esi,0x400
    1377:	48 89 c7             	mov    rdi,rax
    137a:	e8 00 00 00 00       	call   137f <SVC_Info+0x15e>
/media/WD3tbUSB3_00/CODE/cpp/__S/workspace/Quake3e/code/server/sv_main.c:781

	Info_SetValueForKey( infostring, "protocol", com_protocol->string );
    137f:	48 8b 05 00 00 00 00 	mov    rax,QWORD PTR [rip+0x0]        # 1386 <SVC_Info+0x165>
    1386:	48 8b 50 08          	mov    rdx,QWORD PTR [rax+0x8]
    138a:	48 8d 85 e0 fb ff ff 	lea    rax,[rbp-0x420]
    1391:	48 89 d1             	mov    rcx,rdx
    1394:	48 8d 15 00 00 00 00 	lea    rdx,[rip+0x0]        # 139b <SVC_Info+0x17a>
    139b:	be 00 04 00 00       	mov    esi,0x400
    13a0:	48 89 c7             	mov    rdi,rax
    13a3:	e8 00 00 00 00       	call   13a8 <SVC_Info+0x187>
/media/WD3tbUSB3_00/CODE/cpp/__S/workspace/Quake3e/code/server/sv_main.c:782
	Info_SetValueForKey( infostring, "hostname", sv_hostname->string );
    13a8:	48 8b 05 00 00 00 00 	mov    rax,QWORD PTR [rip+0x0]        # 13af <SVC_Info+0x18e>
    13af:	48 8b 50 08          	mov    rdx,QWORD PTR [rax+0x8]
    13b3:	48 8d 85 e0 fb ff ff 	lea    rax,[rbp-0x420]
    13ba:	48 89 d1             	mov    rcx,rdx
    13bd:	48 8d 15 00 00 00 00 	lea    rdx,[rip+0x0]        # 13c4 <SVC_Info+0x1a3>
    13c4:	be 00 04 00 00       	mov    esi,0x400
    13c9:	48 89 c7             	mov    rdi,rax
    13cc:	e8 00 00 00 00       	call   13d1 <SVC_Info+0x1b0>
/media/WD3tbUSB3_00/CODE/cpp/__S/workspace/Quake3e/code/server/sv_main.c:783
	Info_SetValueForKey( infostring, "mapname", sv_mapname->string );
    13d1:	48 8b 05 00 00 00 00 	mov    rax,QWORD PTR [rip+0x0]        # 13d8 <SVC_Info+0x1b7>
    13d8:	48 8b 50 08          	mov    rdx,QWORD PTR [rax+0x8]
    13dc:	48 8d 85 e0 fb ff ff 	lea    rax,[rbp-0x420]
    13e3:	48 89 d1             	mov    rcx,rdx
    13e6:	48 8d 15 00 00 00 00 	lea    rdx,[rip+0x0]        # 13ed <SVC_Info+0x1cc>
    13ed:	be 00 04 00 00       	mov    esi,0x400
    13f2:	48 89 c7             	mov    rdi,rax
    13f5:	e8 00 00 00 00       	call   13fa <SVC_Info+0x1d9>
/media/WD3tbUSB3_00/CODE/cpp/__S/workspace/Quake3e/code/server/sv_main.c:784
	Info_SetValueForKey( infostring, "clients", va("%i", count) );
    13fa:	8b 45 f8             	mov    eax,DWORD PTR [rbp-0x8]
    13fd:	89 c6                	mov    esi,eax
    13ff:	48 8d 3d 00 00 00 00 	lea    rdi,[rip+0x0]        # 1406 <SVC_Info+0x1e5>
    1406:	b8 00 00 00 00       	mov    eax,0x0
    140b:	e8 00 00 00 00       	call   1410 <SVC_Info+0x1ef>
    1410:	48 89 c2             	mov    rdx,rax
    1413:	48 8d 85 e0 fb ff ff 	lea    rax,[rbp-0x420]
    141a:	48 89 d1             	mov    rcx,rdx
    141d:	48 8d 15 00 00 00 00 	lea    rdx,[rip+0x0]        # 1424 <SVC_Info+0x203>
    1424:	be 00 04 00 00       	mov    esi,0x400
    1429:	48 89 c7             	mov    rdi,rax
    142c:	e8 00 00 00 00       	call   1431 <SVC_Info+0x210>
/media/WD3tbUSB3_00/CODE/cpp/__S/workspace/Quake3e/code/server/sv_main.c:785
	Info_SetValueForKey(infostring, "g_humanplayers", va("%i", humans));
    1431:	8b 45 f4             	mov    eax,DWORD PTR [rbp-0xc]
    1434:	89 c6                	mov    esi,eax
    1436:	48 8d 3d 00 00 00 00 	lea    rdi,[rip+0x0]        # 143d <SVC_Info+0x21c>
    143d:	b8 00 00 00 00       	mov    eax,0x0
    1442:	e8 00 00 00 00       	call   1447 <SVC_Info+0x226>
    1447:	48 89 c2             	mov    rdx,rax
    144a:	48 8d 85 e0 fb ff ff 	lea    rax,[rbp-0x420]
    1451:	48 89 d1             	mov    rcx,rdx
    1454:	48 8d 15 00 00 00 00 	lea    rdx,[rip+0x0]        # 145b <SVC_Info+0x23a>
    145b:	be 00 04 00 00       	mov    esi,0x400
    1460:	48 89 c7             	mov    rdi,rax
    1463:	e8 00 00 00 00       	call   1468 <SVC_Info+0x247>
/media/WD3tbUSB3_00/CODE/cpp/__S/workspace/Quake3e/code/server/sv_main.c:786
	Info_SetValueForKey( infostring, "sv_maxclients", 
    1468:	48 8b 05 00 00 00 00 	mov    rax,QWORD PTR [rip+0x0]        # 146f <SVC_Info+0x24e>
    146f:	8b 50 30             	mov    edx,DWORD PTR [rax+0x30]
    1472:	48 8b 05 00 00 00 00 	mov    rax,QWORD PTR [rip+0x0]        # 1479 <SVC_Info+0x258>
    1479:	8b 40 30             	mov    eax,DWORD PTR [rax+0x30]
    147c:	29 c2                	sub    edx,eax
    147e:	89 d0                	mov    eax,edx
    1480:	89 c6                	mov    esi,eax
    1482:	48 8d 3d 00 00 00 00 	lea    rdi,[rip+0x0]        # 1489 <SVC_Info+0x268>
    1489:	b8 00 00 00 00       	mov    eax,0x0
    148e:	e8 00 00 00 00       	call   1493 <SVC_Info+0x272>
    1493:	48 89 c2             	mov    rdx,rax
    1496:	48 8d 85 e0 fb ff ff 	lea    rax,[rbp-0x420]
    149d:	48 89 d1             	mov    rcx,rdx
    14a0:	48 8d 15 00 00 00 00 	lea    rdx,[rip+0x0]        # 14a7 <SVC_Info+0x286>
    14a7:	be 00 04 00 00       	mov    esi,0x400
    14ac:	48 89 c7             	mov    rdi,rax
    14af:	e8 00 00 00 00       	call   14b4 <SVC_Info+0x293>
/media/WD3tbUSB3_00/CODE/cpp/__S/workspace/Quake3e/code/server/sv_main.c:788
		va("%i", sv_maxclients->integer - sv_privateClients->integer ) );
	Info_SetValueForKey( infostring, "gametype", va("%i", sv_gametype->integer ) );
    14b4:	48 8b 05 00 00 00 00 	mov    rax,QWORD PTR [rip+0x0]        # 14bb <SVC_Info+0x29a>
    14bb:	8b 40 30             	mov    eax,DWORD PTR [rax+0x30]
    14be:	89 c6                	mov    esi,eax
    14c0:	48 8d 3d 00 00 00 00 	lea    rdi,[rip+0x0]        # 14c7 <SVC_Info+0x2a6>
    14c7:	b8 00 00 00 00       	mov    eax,0x0
    14cc:	e8 00 00 00 00       	call   14d1 <SVC_Info+0x2b0>
    14d1:	48 89 c2             	mov    rdx,rax
    14d4:	48 8d 85 e0 fb ff ff 	lea    rax,[rbp-0x420]
    14db:	48 89 d1             	mov    rcx,rdx
    14de:	48 8d 15 00 00 00 00 	lea    rdx,[rip+0x0]        # 14e5 <SVC_Info+0x2c4>
    14e5:	be 00 04 00 00       	mov    esi,0x400
    14ea:	48 89 c7             	mov    rdi,rax
    14ed:	e8 00 00 00 00       	call   14f2 <SVC_Info+0x2d1>
/media/WD3tbUSB3_00/CODE/cpp/__S/workspace/Quake3e/code/server/sv_main.c:789
	Info_SetValueForKey( infostring, "pure", va("%i", sv_pure->integer ) );
    14f2:	48 8b 05 00 00 00 00 	mov    rax,QWORD PTR [rip+0x0]        # 14f9 <SVC_Info+0x2d8>
    14f9:	8b 40 30             	mov    eax,DWORD PTR [rax+0x30]
    14fc:	89 c6                	mov    esi,eax
    14fe:	48 8d 3d 00 00 00 00 	lea    rdi,[rip+0x0]        # 1505 <SVC_Info+0x2e4>
    1505:	b8 00 00 00 00       	mov    eax,0x0
    150a:	e8 00 00 00 00       	call   150f <SVC_Info+0x2ee>
    150f:	48 89 c2             	mov    rdx,rax
    1512:	48 8d 85 e0 fb ff ff 	lea    rax,[rbp-0x420]
    1519:	48 89 d1             	mov    rcx,rdx
    151c:	48 8d 15 00 00 00 00 	lea    rdx,[rip+0x0]        # 1523 <SVC_Info+0x302>
    1523:	be 00 04 00 00       	mov    esi,0x400
    1528:	48 89 c7             	mov    rdi,rax
    152b:	e8 00 00 00 00       	call   1530 <SVC_Info+0x30f>
/media/WD3tbUSB3_00/CODE/cpp/__S/workspace/Quake3e/code/server/sv_main.c:790
	Info_SetValueForKey(infostring, "g_needpass", va("%d", Cvar_VariableIntegerValue("g_needpass")));
    1530:	48 8d 3d 00 00 00 00 	lea    rdi,[rip+0x0]        # 1537 <SVC_Info+0x316>
    1537:	e8 00 00 00 00       	call   153c <SVC_Info+0x31b>
    153c:	89 c6                	mov    esi,eax
    153e:	48 8d 3d 00 00 00 00 	lea    rdi,[rip+0x0]        # 1545 <SVC_Info+0x324>
    1545:	b8 00 00 00 00       	mov    eax,0x0
    154a:	e8 00 00 00 00       	call   154f <SVC_Info+0x32e>
    154f:	48 89 c2             	mov    rdx,rax
    1552:	48 8d 85 e0 fb ff ff 	lea    rax,[rbp-0x420]
    1559:	48 89 d1             	mov    rcx,rdx
    155c:	48 8d 15 00 00 00 00 	lea    rdx,[rip+0x0]        # 1563 <SVC_Info+0x342>
    1563:	be 00 04 00 00       	mov    esi,0x400
    1568:	48 89 c7             	mov    rdi,rax
    156b:	e8 00 00 00 00       	call   1570 <SVC_Info+0x34f>
/media/WD3tbUSB3_00/CODE/cpp/__S/workspace/Quake3e/code/server/sv_main.c:791
	gamedir = Cvar_VariableString( "fs_game" );
    1570:	48 8d 3d 00 00 00 00 	lea    rdi,[rip+0x0]        # 1577 <SVC_Info+0x356>
    1577:	e8 00 00 00 00       	call   157c <SVC_Info+0x35b>
    157c:	48 89 45 e8          	mov    QWORD PTR [rbp-0x18],rax
/media/WD3tbUSB3_00/CODE/cpp/__S/workspace/Quake3e/code/server/sv_main.c:792
	if( *gamedir ) {
    1580:	48 8b 45 e8          	mov    rax,QWORD PTR [rbp-0x18]
    1584:	0f b6 00             	movzx  eax,BYTE PTR [rax]
    1587:	84 c0                	test   al,al
    1589:	74 22                	je     15ad <SVC_Info+0x38c>
/media/WD3tbUSB3_00/CODE/cpp/__S/workspace/Quake3e/code/server/sv_main.c:793
		Info_SetValueForKey( infostring, "game", gamedir );
    158b:	48 8b 55 e8          	mov    rdx,QWORD PTR [rbp-0x18]
    158f:	48 8d 85 e0 fb ff ff 	lea    rax,[rbp-0x420]
    1596:	48 89 d1             	mov    rcx,rdx
    1599:	48 8d 15 00 00 00 00 	lea    rdx,[rip+0x0]        # 15a0 <SVC_Info+0x37f>
    15a0:	be 00 04 00 00       	mov    esi,0x400
    15a5:	48 89 c7             	mov    rdi,rax
    15a8:	e8 00 00 00 00       	call   15ad <SVC_Info+0x38c>
/media/WD3tbUSB3_00/CODE/cpp/__S/workspace/Quake3e/code/server/sv_main.c:796
	}

	NET_OutOfBandPrint( NS_SERVER, from, "infoResponse\n%s", infostring );
    15ad:	48 8d 95 e0 fb ff ff 	lea    rdx,[rbp-0x420]
    15b4:	48 8b 85 d8 fb ff ff 	mov    rax,QWORD PTR [rbp-0x428]
    15bb:	48 89 d1             	mov    rcx,rdx
    15be:	48 8d 15 00 00 00 00 	lea    rdx,[rip+0x0]        # 15c5 <SVC_Info+0x3a4>
    15c5:	48 89 c6             	mov    rsi,rax
    15c8:	bf 01 00 00 00       	mov    edi,0x1
    15cd:	b8 00 00 00 00       	mov    eax,0x0
    15d2:	e8 00 00 00 00       	call   15d7 <SVC_Info+0x3b6>
    15d7:	eb 04                	jmp    15dd <SVC_Info+0x3bc>
/media/WD3tbUSB3_00/CODE/cpp/__S/workspace/Quake3e/code/server/sv_main.c:745
		return;
    15d9:	90                   	nop
    15da:	eb 01                	jmp    15dd <SVC_Info+0x3bc>
/media/WD3tbUSB3_00/CODE/cpp/__S/workspace/Quake3e/code/server/sv_main.c:762
		return;
    15dc:	90                   	nop
/media/WD3tbUSB3_00/CODE/cpp/__S/workspace/Quake3e/code/server/sv_main.c:797
}
    15dd:	c9                   	leave  
    15de:	c3                   	ret    

00000000000015df <SV_FlushRedirect>:
SV_FlushRedirect():
/media/WD3tbUSB3_00/CODE/cpp/__S/workspace/Quake3e/code/server/sv_main.c:808
================
*/
static netadr_t redirectAddress; // for rcon return messages

static void SV_FlushRedirect( const char *outputbuf )
{
    15df:	55                   	push   rbp
    15e0:	48 89 e5             	mov    rbp,rsp
    15e3:	48 83 ec 10          	sub    rsp,0x10
    15e7:	48 89 7d f8          	mov    QWORD PTR [rbp-0x8],rdi
/media/WD3tbUSB3_00/CODE/cpp/__S/workspace/Quake3e/code/server/sv_main.c:809
	if ( *outputbuf )
    15eb:	48 8b 45 f8          	mov    rax,QWORD PTR [rbp-0x8]
    15ef:	0f b6 00             	movzx  eax,BYTE PTR [rax]
    15f2:	84 c0                	test   al,al
    15f4:	74 24                	je     161a <SV_FlushRedirect+0x3b>
/media/WD3tbUSB3_00/CODE/cpp/__S/workspace/Quake3e/code/server/sv_main.c:811
	{
		NET_OutOfBandPrint( NS_SERVER, &redirectAddress, "print\n%s", outputbuf );
    15f6:	48 8b 45 f8          	mov    rax,QWORD PTR [rbp-0x8]
    15fa:	48 89 c1             	mov    rcx,rax
    15fd:	48 8d 15 00 00 00 00 	lea    rdx,[rip+0x0]        # 1604 <SV_FlushRedirect+0x25>
    1604:	48 8d 35 00 00 00 00 	lea    rsi,[rip+0x0]        # 160b <SV_FlushRedirect+0x2c>
    160b:	bf 01 00 00 00       	mov    edi,0x1
    1610:	b8 00 00 00 00       	mov    eax,0x0
    1615:	e8 00 00 00 00       	call   161a <SV_FlushRedirect+0x3b>
/media/WD3tbUSB3_00/CODE/cpp/__S/workspace/Quake3e/code/server/sv_main.c:813
	}
}
    161a:	90                   	nop
    161b:	c9                   	leave  
    161c:	c3                   	ret    

000000000000161d <SVC_RemoteCommand>:
SVC_RemoteCommand():
/media/WD3tbUSB3_00/CODE/cpp/__S/workspace/Quake3e/code/server/sv_main.c:825
An rcon packet arrived from the network.
Shift down the remaining args
Redirect all printfs
===============
*/
static void SVC_RemoteCommand( const netadr_t *from ) {
    161d:	55                   	push   rbp
    161e:	48 89 e5             	mov    rbp,rsp
    1621:	53                   	push   rbx
    1622:	48 81 ec 28 04 00 00 	sub    rsp,0x428
    1629:	48 89 bd d8 fb ff ff 	mov    QWORD PTR [rbp-0x428],rdi
/media/WD3tbUSB3_00/CODE/cpp/__S/workspace/Quake3e/code/server/sv_main.c:834
	// (OOB messages are the bottleneck here)
	char		sv_outputbuf[1024 - 16];
	const char	*cmd_aux, *pw;

	// Prevent using rcon as an amplifier and make dictionary attacks impractical
	if ( SVC_RateLimitAddress( from, 10, 1000 ) ) {
    1630:	48 8b 85 d8 fb ff ff 	mov    rax,QWORD PTR [rbp-0x428]
    1637:	ba e8 03 00 00       	mov    edx,0x3e8
    163c:	be 0a 00 00 00       	mov    esi,0xa
    1641:	48 89 c7             	mov    rdi,rax
    1644:	e8 00 00 00 00       	call   1649 <SVC_RemoteCommand+0x2c>
    1649:	85 c0                	test   eax,eax
    164b:	74 3a                	je     1687 <SVC_RemoteCommand+0x6a>
/media/WD3tbUSB3_00/CODE/cpp/__S/workspace/Quake3e/code/server/sv_main.c:835
		if ( com_developer->integer ) {
    164d:	48 8b 05 00 00 00 00 	mov    rax,QWORD PTR [rip+0x0]        # 1654 <SVC_RemoteCommand+0x37>
    1654:	8b 40 30             	mov    eax,DWORD PTR [rax+0x30]
    1657:	85 c0                	test   eax,eax
    1659:	0f 84 86 02 00 00    	je     18e5 <SVC_RemoteCommand+0x2c8>
/media/WD3tbUSB3_00/CODE/cpp/__S/workspace/Quake3e/code/server/sv_main.c:836
			Com_Printf( "SVC_RemoteCommand: rate limit from %s exceeded, dropping request\n",
    165f:	48 8b 85 d8 fb ff ff 	mov    rax,QWORD PTR [rbp-0x428]
    1666:	48 89 c7             	mov    rdi,rax
    1669:	e8 00 00 00 00       	call   166e <SVC_RemoteCommand+0x51>
    166e:	48 89 c6             	mov    rsi,rax
    1671:	48 8d 3d 00 00 00 00 	lea    rdi,[rip+0x0]        # 1678 <SVC_RemoteCommand+0x5b>
    1678:	b8 00 00 00 00       	mov    eax,0x0
    167d:	e8 00 00 00 00       	call   1682 <SVC_RemoteCommand+0x65>
/media/WD3tbUSB3_00/CODE/cpp/__S/workspace/Quake3e/code/server/sv_main.c:839
				NET_AdrToString( from ) );
		}
		return;
    1682:	e9 5e 02 00 00       	jmp    18e5 <SVC_RemoteCommand+0x2c8>
/media/WD3tbUSB3_00/CODE/cpp/__S/workspace/Quake3e/code/server/sv_main.c:842
	}

	pw = Cmd_Argv( 1 );
    1687:	bf 01 00 00 00       	mov    edi,0x1
    168c:	e8 00 00 00 00       	call   1691 <SVC_RemoteCommand+0x74>
    1691:	48 89 45 d8          	mov    QWORD PTR [rbp-0x28],rax
/media/WD3tbUSB3_00/CODE/cpp/__S/workspace/Quake3e/code/server/sv_main.c:843
	if ( ( sv_rconPassword->string[0] && strcmp( pw, sv_rconPassword->string ) == 0 ) ||
    1695:	48 8b 05 00 00 00 00 	mov    rax,QWORD PTR [rip+0x0]        # 169c <SVC_RemoteCommand+0x7f>
    169c:	48 8b 40 08          	mov    rax,QWORD PTR [rax+0x8]
    16a0:	0f b6 00             	movzx  eax,BYTE PTR [rax]
    16a3:	84 c0                	test   al,al
    16a5:	74 1e                	je     16c5 <SVC_RemoteCommand+0xa8>
/media/WD3tbUSB3_00/CODE/cpp/__S/workspace/Quake3e/code/server/sv_main.c:843 (discriminator 1)
    16a7:	48 8b 05 00 00 00 00 	mov    rax,QWORD PTR [rip+0x0]        # 16ae <SVC_RemoteCommand+0x91>
    16ae:	48 8b 50 08          	mov    rdx,QWORD PTR [rax+0x8]
    16b2:	48 8b 45 d8          	mov    rax,QWORD PTR [rbp-0x28]
    16b6:	48 89 d6             	mov    rsi,rdx
    16b9:	48 89 c7             	mov    rdi,rax
    16bc:	e8 00 00 00 00       	call   16c1 <SVC_RemoteCommand+0xa4>
    16c1:	85 c0                	test   eax,eax
    16c3:	74 22                	je     16e7 <SVC_RemoteCommand+0xca>
/media/WD3tbUSB3_00/CODE/cpp/__S/workspace/Quake3e/code/server/sv_main.c:844 (discriminator 3)
		( rconPassword2[0] && strcmp( pw, rconPassword2 ) == 0 ) ) {
    16c5:	0f b6 05 00 00 00 00 	movzx  eax,BYTE PTR [rip+0x0]        # 16cc <SVC_RemoteCommand+0xaf>
/media/WD3tbUSB3_00/CODE/cpp/__S/workspace/Quake3e/code/server/sv_main.c:843 (discriminator 3)
	if ( ( sv_rconPassword->string[0] && strcmp( pw, sv_rconPassword->string ) == 0 ) ||
    16cc:	84 c0                	test   al,al
    16ce:	74 53                	je     1723 <SVC_RemoteCommand+0x106>
/media/WD3tbUSB3_00/CODE/cpp/__S/workspace/Quake3e/code/server/sv_main.c:844
		( rconPassword2[0] && strcmp( pw, rconPassword2 ) == 0 ) ) {
    16d0:	48 8b 45 d8          	mov    rax,QWORD PTR [rbp-0x28]
    16d4:	48 8d 35 00 00 00 00 	lea    rsi,[rip+0x0]        # 16db <SVC_RemoteCommand+0xbe>
    16db:	48 89 c7             	mov    rdi,rax
    16de:	e8 00 00 00 00       	call   16e3 <SVC_RemoteCommand+0xc6>
    16e3:	85 c0                	test   eax,eax
    16e5:	75 3c                	jne    1723 <SVC_RemoteCommand+0x106>
/media/WD3tbUSB3_00/CODE/cpp/__S/workspace/Quake3e/code/server/sv_main.c:845
		valid = qtrue;
    16e7:	c7 45 ec 01 00 00 00 	mov    DWORD PTR [rbp-0x14],0x1
/media/WD3tbUSB3_00/CODE/cpp/__S/workspace/Quake3e/code/server/sv_main.c:846
		Com_Printf( "Rcon from %s: %s\n", NET_AdrToString( from ), Cmd_ArgsFrom( 2 ) );
    16ee:	bf 02 00 00 00       	mov    edi,0x2
    16f3:	e8 00 00 00 00       	call   16f8 <SVC_RemoteCommand+0xdb>
    16f8:	48 89 c3             	mov    rbx,rax
    16fb:	48 8b 85 d8 fb ff ff 	mov    rax,QWORD PTR [rbp-0x428]
    1702:	48 89 c7             	mov    rdi,rax
    1705:	e8 00 00 00 00       	call   170a <SVC_RemoteCommand+0xed>
    170a:	48 89 da             	mov    rdx,rbx
    170d:	48 89 c6             	mov    rsi,rax
    1710:	48 8d 3d 00 00 00 00 	lea    rdi,[rip+0x0]        # 1717 <SVC_RemoteCommand+0xfa>
    1717:	b8 00 00 00 00       	mov    eax,0x0
    171c:	e8 00 00 00 00       	call   1721 <SVC_RemoteCommand+0x104>
    1721:	eb 6a                	jmp    178d <SVC_RemoteCommand+0x170>
/media/WD3tbUSB3_00/CODE/cpp/__S/workspace/Quake3e/code/server/sv_main.c:849
	} else {
		// Make DoS via rcon impractical
		if ( SVC_RateLimit( &bucket, 10, 1000 ) ) {
    1723:	ba e8 03 00 00       	mov    edx,0x3e8
    1728:	be 0a 00 00 00       	mov    esi,0xa
    172d:	48 8d 3d 00 00 00 00 	lea    rdi,[rip+0x0]        # 1734 <SVC_RemoteCommand+0x117>
    1734:	e8 00 00 00 00       	call   1739 <SVC_RemoteCommand+0x11c>
    1739:	85 c0                	test   eax,eax
    173b:	74 16                	je     1753 <SVC_RemoteCommand+0x136>
/media/WD3tbUSB3_00/CODE/cpp/__S/workspace/Quake3e/code/server/sv_main.c:850
			Com_DPrintf( "SVC_RemoteCommand: rate limit exceeded, dropping request\n" );
    173d:	48 8d 3d 00 00 00 00 	lea    rdi,[rip+0x0]        # 1744 <SVC_RemoteCommand+0x127>
    1744:	b8 00 00 00 00       	mov    eax,0x0
    1749:	e8 00 00 00 00       	call   174e <SVC_RemoteCommand+0x131>
/media/WD3tbUSB3_00/CODE/cpp/__S/workspace/Quake3e/code/server/sv_main.c:851
			return;
    174e:	e9 93 01 00 00       	jmp    18e6 <SVC_RemoteCommand+0x2c9>
/media/WD3tbUSB3_00/CODE/cpp/__S/workspace/Quake3e/code/server/sv_main.c:854
		}

		valid = qfalse;
    1753:	c7 45 ec 00 00 00 00 	mov    DWORD PTR [rbp-0x14],0x0
/media/WD3tbUSB3_00/CODE/cpp/__S/workspace/Quake3e/code/server/sv_main.c:855
		Com_Printf( "Bad rcon from %s: %s\n", NET_AdrToString( from ), Cmd_ArgsFrom( 2 ) );
    175a:	bf 02 00 00 00       	mov    edi,0x2
    175f:	e8 00 00 00 00       	call   1764 <SVC_RemoteCommand+0x147>
    1764:	48 89 c3             	mov    rbx,rax
    1767:	48 8b 85 d8 fb ff ff 	mov    rax,QWORD PTR [rbp-0x428]
    176e:	48 89 c7             	mov    rdi,rax
    1771:	e8 00 00 00 00       	call   1776 <SVC_RemoteCommand+0x159>
    1776:	48 89 da             	mov    rdx,rbx
    1779:	48 89 c6             	mov    rsi,rax
    177c:	48 8d 3d 00 00 00 00 	lea    rdi,[rip+0x0]        # 1783 <SVC_RemoteCommand+0x166>
    1783:	b8 00 00 00 00       	mov    eax,0x0
    1788:	e8 00 00 00 00       	call   178d <SVC_RemoteCommand+0x170>
/media/WD3tbUSB3_00/CODE/cpp/__S/workspace/Quake3e/code/server/sv_main.c:859
	}

	// start redirecting all print outputs to the packet
	redirectAddress = *from;
    178d:	48 8b 8d d8 fb ff ff 	mov    rcx,QWORD PTR [rbp-0x428]
    1794:	48 8b 01             	mov    rax,QWORD PTR [rcx]
    1797:	48 8b 51 08          	mov    rdx,QWORD PTR [rcx+0x8]
    179b:	48 89 05 00 00 00 00 	mov    QWORD PTR [rip+0x0],rax        # 17a2 <SVC_RemoteCommand+0x185>
    17a2:	48 89 15 00 00 00 00 	mov    QWORD PTR [rip+0x0],rdx        # 17a9 <SVC_RemoteCommand+0x18c>
    17a9:	48 8b 41 10          	mov    rax,QWORD PTR [rcx+0x10]
    17ad:	48 8b 51 18          	mov    rdx,QWORD PTR [rcx+0x18]
    17b1:	48 89 05 00 00 00 00 	mov    QWORD PTR [rip+0x0],rax        # 17b8 <SVC_RemoteCommand+0x19b>
    17b8:	48 89 15 00 00 00 00 	mov    QWORD PTR [rip+0x0],rdx        # 17bf <SVC_RemoteCommand+0x1a2>
/media/WD3tbUSB3_00/CODE/cpp/__S/workspace/Quake3e/code/server/sv_main.c:860
	Com_BeginRedirect( sv_outputbuf, sizeof( sv_outputbuf ), SV_FlushRedirect );
    17bf:	48 8d 85 e0 fb ff ff 	lea    rax,[rbp-0x420]
    17c6:	48 8d 15 12 fe ff ff 	lea    rdx,[rip+0xfffffffffffffe12]        # 15df <SV_FlushRedirect>
    17cd:	be f0 03 00 00       	mov    esi,0x3f0
    17d2:	48 89 c7             	mov    rdi,rax
    17d5:	e8 00 00 00 00       	call   17da <SVC_RemoteCommand+0x1bd>
/media/WD3tbUSB3_00/CODE/cpp/__S/workspace/Quake3e/code/server/sv_main.c:862

	if ( !sv_rconPassword->string[0] && !rconPassword2[0] ) {
    17da:	48 8b 05 00 00 00 00 	mov    rax,QWORD PTR [rip+0x0]        # 17e1 <SVC_RemoteCommand+0x1c4>
    17e1:	48 8b 40 08          	mov    rax,QWORD PTR [rax+0x8]
    17e5:	0f b6 00             	movzx  eax,BYTE PTR [rax]
    17e8:	84 c0                	test   al,al
    17ea:	75 21                	jne    180d <SVC_RemoteCommand+0x1f0>
/media/WD3tbUSB3_00/CODE/cpp/__S/workspace/Quake3e/code/server/sv_main.c:862 (discriminator 1)
    17ec:	0f b6 05 00 00 00 00 	movzx  eax,BYTE PTR [rip+0x0]        # 17f3 <SVC_RemoteCommand+0x1d6>
    17f3:	84 c0                	test   al,al
    17f5:	75 16                	jne    180d <SVC_RemoteCommand+0x1f0>
/media/WD3tbUSB3_00/CODE/cpp/__S/workspace/Quake3e/code/server/sv_main.c:863
		Com_Printf( "No rconpassword set on the server.\n" );
    17f7:	48 8d 3d 00 00 00 00 	lea    rdi,[rip+0x0]        # 17fe <SVC_RemoteCommand+0x1e1>
    17fe:	b8 00 00 00 00       	mov    eax,0x0
    1803:	e8 00 00 00 00       	call   1808 <SVC_RemoteCommand+0x1eb>
    1808:	e9 d1 00 00 00       	jmp    18de <SVC_RemoteCommand+0x2c1>
/media/WD3tbUSB3_00/CODE/cpp/__S/workspace/Quake3e/code/server/sv_main.c:864
	} else if ( !valid ) {
    180d:	83 7d ec 00          	cmp    DWORD PTR [rbp-0x14],0x0
    1811:	75 16                	jne    1829 <SVC_RemoteCommand+0x20c>
/media/WD3tbUSB3_00/CODE/cpp/__S/workspace/Quake3e/code/server/sv_main.c:865
		Com_Printf( "Bad rconpassword.\n" );
    1813:	48 8d 3d 00 00 00 00 	lea    rdi,[rip+0x0]        # 181a <SVC_RemoteCommand+0x1fd>
    181a:	b8 00 00 00 00       	mov    eax,0x0
    181f:	e8 00 00 00 00       	call   1824 <SVC_RemoteCommand+0x207>
    1824:	e9 b5 00 00 00       	jmp    18de <SVC_RemoteCommand+0x2c1>
/media/WD3tbUSB3_00/CODE/cpp/__S/workspace/Quake3e/code/server/sv_main.c:871
	} else {
		// https://zerowing.idsoftware.com/bugzilla/show_bug.cgi?id=543
		// get the command directly, "rcon <pass> <command>" to avoid quoting issues
		// extract the command by walking
		// since the cmd formatting can fuckup (amount of spaces), using a dumb step by step parsing
		cmd_aux = Cmd_Cmd();
    1829:	e8 00 00 00 00       	call   182e <SVC_RemoteCommand+0x211>
    182e:	48 89 45 e0          	mov    QWORD PTR [rbp-0x20],rax
/media/WD3tbUSB3_00/CODE/cpp/__S/workspace/Quake3e/code/server/sv_main.c:872
		while ( *cmd_aux && *cmd_aux <= ' ' ) // skip whitespace
    1832:	eb 05                	jmp    1839 <SVC_RemoteCommand+0x21c>
/media/WD3tbUSB3_00/CODE/cpp/__S/workspace/Quake3e/code/server/sv_main.c:873
			cmd_aux++;
    1834:	48 83 45 e0 01       	add    QWORD PTR [rbp-0x20],0x1
/media/WD3tbUSB3_00/CODE/cpp/__S/workspace/Quake3e/code/server/sv_main.c:872
		while ( *cmd_aux && *cmd_aux <= ' ' ) // skip whitespace
    1839:	48 8b 45 e0          	mov    rax,QWORD PTR [rbp-0x20]
    183d:	0f b6 00             	movzx  eax,BYTE PTR [rax]
    1840:	84 c0                	test   al,al
    1842:	74 0b                	je     184f <SVC_RemoteCommand+0x232>
/media/WD3tbUSB3_00/CODE/cpp/__S/workspace/Quake3e/code/server/sv_main.c:872 (discriminator 1)
    1844:	48 8b 45 e0          	mov    rax,QWORD PTR [rbp-0x20]
    1848:	0f b6 00             	movzx  eax,BYTE PTR [rax]
    184b:	3c 20                	cmp    al,0x20
    184d:	7e e5                	jle    1834 <SVC_RemoteCommand+0x217>
/media/WD3tbUSB3_00/CODE/cpp/__S/workspace/Quake3e/code/server/sv_main.c:874
		cmd_aux += 4; // "rcon"
    184f:	48 83 45 e0 04       	add    QWORD PTR [rbp-0x20],0x4
/media/WD3tbUSB3_00/CODE/cpp/__S/workspace/Quake3e/code/server/sv_main.c:875
		while ( *cmd_aux == ' ' )
    1854:	eb 05                	jmp    185b <SVC_RemoteCommand+0x23e>
/media/WD3tbUSB3_00/CODE/cpp/__S/workspace/Quake3e/code/server/sv_main.c:876
			cmd_aux++;
    1856:	48 83 45 e0 01       	add    QWORD PTR [rbp-0x20],0x1
/media/WD3tbUSB3_00/CODE/cpp/__S/workspace/Quake3e/code/server/sv_main.c:875
		while ( *cmd_aux == ' ' )
    185b:	48 8b 45 e0          	mov    rax,QWORD PTR [rbp-0x20]
    185f:	0f b6 00             	movzx  eax,BYTE PTR [rax]
    1862:	3c 20                	cmp    al,0x20
    1864:	74 f0                	je     1856 <SVC_RemoteCommand+0x239>
/media/WD3tbUSB3_00/CODE/cpp/__S/workspace/Quake3e/code/server/sv_main.c:877
		if ( *cmd_aux == '"' ) {
    1866:	48 8b 45 e0          	mov    rax,QWORD PTR [rbp-0x20]
    186a:	0f b6 00             	movzx  eax,BYTE PTR [rax]
    186d:	3c 22                	cmp    al,0x22
    186f:	75 39                	jne    18aa <SVC_RemoteCommand+0x28d>
/media/WD3tbUSB3_00/CODE/cpp/__S/workspace/Quake3e/code/server/sv_main.c:878
			cmd_aux++;
    1871:	48 83 45 e0 01       	add    QWORD PTR [rbp-0x20],0x1
/media/WD3tbUSB3_00/CODE/cpp/__S/workspace/Quake3e/code/server/sv_main.c:879
			while ( *cmd_aux && *cmd_aux != '"' ) // quoted password
    1876:	eb 05                	jmp    187d <SVC_RemoteCommand+0x260>
/media/WD3tbUSB3_00/CODE/cpp/__S/workspace/Quake3e/code/server/sv_main.c:880
				cmd_aux++;
    1878:	48 83 45 e0 01       	add    QWORD PTR [rbp-0x20],0x1
/media/WD3tbUSB3_00/CODE/cpp/__S/workspace/Quake3e/code/server/sv_main.c:879
			while ( *cmd_aux && *cmd_aux != '"' ) // quoted password
    187d:	48 8b 45 e0          	mov    rax,QWORD PTR [rbp-0x20]
    1881:	0f b6 00             	movzx  eax,BYTE PTR [rax]
    1884:	84 c0                	test   al,al
    1886:	74 0b                	je     1893 <SVC_RemoteCommand+0x276>
/media/WD3tbUSB3_00/CODE/cpp/__S/workspace/Quake3e/code/server/sv_main.c:879 (discriminator 1)
    1888:	48 8b 45 e0          	mov    rax,QWORD PTR [rbp-0x20]
    188c:	0f b6 00             	movzx  eax,BYTE PTR [rax]
    188f:	3c 22                	cmp    al,0x22
    1891:	75 e5                	jne    1878 <SVC_RemoteCommand+0x25b>
/media/WD3tbUSB3_00/CODE/cpp/__S/workspace/Quake3e/code/server/sv_main.c:881
			if ( *cmd_aux == '"' )
    1893:	48 8b 45 e0          	mov    rax,QWORD PTR [rbp-0x20]
    1897:	0f b6 00             	movzx  eax,BYTE PTR [rax]
    189a:	3c 22                	cmp    al,0x22
    189c:	75 29                	jne    18c7 <SVC_RemoteCommand+0x2aa>
/media/WD3tbUSB3_00/CODE/cpp/__S/workspace/Quake3e/code/server/sv_main.c:882
				cmd_aux++;
    189e:	48 83 45 e0 01       	add    QWORD PTR [rbp-0x20],0x1
    18a3:	eb 22                	jmp    18c7 <SVC_RemoteCommand+0x2aa>
/media/WD3tbUSB3_00/CODE/cpp/__S/workspace/Quake3e/code/server/sv_main.c:885
		} else {
			while ( *cmd_aux && *cmd_aux != ' ' ) // password
				cmd_aux++;
    18a5:	48 83 45 e0 01       	add    QWORD PTR [rbp-0x20],0x1
/media/WD3tbUSB3_00/CODE/cpp/__S/workspace/Quake3e/code/server/sv_main.c:884
			while ( *cmd_aux && *cmd_aux != ' ' ) // password
    18aa:	48 8b 45 e0          	mov    rax,QWORD PTR [rbp-0x20]
    18ae:	0f b6 00             	movzx  eax,BYTE PTR [rax]
    18b1:	84 c0                	test   al,al
    18b3:	74 12                	je     18c7 <SVC_RemoteCommand+0x2aa>
/media/WD3tbUSB3_00/CODE/cpp/__S/workspace/Quake3e/code/server/sv_main.c:884 (discriminator 1)
    18b5:	48 8b 45 e0          	mov    rax,QWORD PTR [rbp-0x20]
    18b9:	0f b6 00             	movzx  eax,BYTE PTR [rax]
    18bc:	3c 20                	cmp    al,0x20
    18be:	75 e5                	jne    18a5 <SVC_RemoteCommand+0x288>
/media/WD3tbUSB3_00/CODE/cpp/__S/workspace/Quake3e/code/server/sv_main.c:887 (discriminator 1)
		}
		while ( *cmd_aux == ' ' )
    18c0:	eb 05                	jmp    18c7 <SVC_RemoteCommand+0x2aa>
/media/WD3tbUSB3_00/CODE/cpp/__S/workspace/Quake3e/code/server/sv_main.c:888
			cmd_aux++;
    18c2:	48 83 45 e0 01       	add    QWORD PTR [rbp-0x20],0x1
/media/WD3tbUSB3_00/CODE/cpp/__S/workspace/Quake3e/code/server/sv_main.c:887
		while ( *cmd_aux == ' ' )
    18c7:	48 8b 45 e0          	mov    rax,QWORD PTR [rbp-0x20]
    18cb:	0f b6 00             	movzx  eax,BYTE PTR [rax]
    18ce:	3c 20                	cmp    al,0x20
    18d0:	74 f0                	je     18c2 <SVC_RemoteCommand+0x2a5>
/media/WD3tbUSB3_00/CODE/cpp/__S/workspace/Quake3e/code/server/sv_main.c:890

		Cmd_ExecuteString( cmd_aux );
    18d2:	48 8b 45 e0          	mov    rax,QWORD PTR [rbp-0x20]
    18d6:	48 89 c7             	mov    rdi,rax
    18d9:	e8 00 00 00 00       	call   18de <SVC_RemoteCommand+0x2c1>
/media/WD3tbUSB3_00/CODE/cpp/__S/workspace/Quake3e/code/server/sv_main.c:893
	}

	Com_EndRedirect();
    18de:	e8 00 00 00 00       	call   18e3 <SVC_RemoteCommand+0x2c6>
    18e3:	eb 01                	jmp    18e6 <SVC_RemoteCommand+0x2c9>
/media/WD3tbUSB3_00/CODE/cpp/__S/workspace/Quake3e/code/server/sv_main.c:839
		return;
    18e5:	90                   	nop
/media/WD3tbUSB3_00/CODE/cpp/__S/workspace/Quake3e/code/server/sv_main.c:894
}
    18e6:	48 81 c4 28 04 00 00 	add    rsp,0x428
    18ed:	5b                   	pop    rbx
    18ee:	5d                   	pop    rbp
    18ef:	c3                   	ret    

00000000000018f0 <SV_ConnectionlessPacket>:
SV_ConnectionlessPacket():
/media/WD3tbUSB3_00/CODE/cpp/__S/workspace/Quake3e/code/server/sv_main.c:907
characters to distinguish it from a game channel.
Clients that are in the game can still send
connectionless packets.
=================
*/
static void SV_ConnectionlessPacket( const netadr_t *from, msg_t *msg ) {
    18f0:	55                   	push   rbp
    18f1:	48 89 e5             	mov    rbp,rsp
    18f4:	53                   	push   rbx
    18f5:	48 83 ec 28          	sub    rsp,0x28
    18f9:	48 89 7d d8          	mov    QWORD PTR [rbp-0x28],rdi
    18fd:	48 89 75 d0          	mov    QWORD PTR [rbp-0x30],rsi
/media/WD3tbUSB3_00/CODE/cpp/__S/workspace/Quake3e/code/server/sv_main.c:911
	const char *s;
	const char *c;

	MSG_BeginReadingOOB( msg );
    1901:	48 8b 45 d0          	mov    rax,QWORD PTR [rbp-0x30]
    1905:	48 89 c7             	mov    rdi,rax
    1908:	e8 00 00 00 00       	call   190d <SV_ConnectionlessPacket+0x1d>
/media/WD3tbUSB3_00/CODE/cpp/__S/workspace/Quake3e/code/server/sv_main.c:912
	MSG_ReadLong( msg );		// skip the -1 marker
    190d:	48 8b 45 d0          	mov    rax,QWORD PTR [rbp-0x30]
    1911:	48 89 c7             	mov    rdi,rax
    1914:	e8 00 00 00 00       	call   1919 <SV_ConnectionlessPacket+0x29>
/media/WD3tbUSB3_00/CODE/cpp/__S/workspace/Quake3e/code/server/sv_main.c:914

	if ( !memcmp( "connect ", msg->data + 4, 8 ) ) {
    1919:	48 8b 45 d0          	mov    rax,QWORD PTR [rbp-0x30]
    191d:	48 8b 40 10          	mov    rax,QWORD PTR [rax+0x10]
    1921:	48 83 c0 04          	add    rax,0x4
    1925:	ba 08 00 00 00       	mov    edx,0x8
    192a:	48 89 c6             	mov    rsi,rax
    192d:	48 8d 3d 00 00 00 00 	lea    rdi,[rip+0x0]        # 1934 <SV_ConnectionlessPacket+0x44>
    1934:	e8 00 00 00 00       	call   1939 <SV_ConnectionlessPacket+0x49>
    1939:	85 c0                	test   eax,eax
    193b:	75 5f                	jne    199c <SV_ConnectionlessPacket+0xac>
/media/WD3tbUSB3_00/CODE/cpp/__S/workspace/Quake3e/code/server/sv_main.c:915
		if ( msg->cursize > MAX_INFO_STRING*2 ) { // if we assume 200% compression ratio on userinfo
    193d:	48 8b 45 d0          	mov    rax,QWORD PTR [rbp-0x30]
    1941:	8b 40 20             	mov    eax,DWORD PTR [rax+0x20]
    1944:	3d 00 08 00 00       	cmp    eax,0x800
    1949:	7e 40                	jle    198b <SV_ConnectionlessPacket+0x9b>
/media/WD3tbUSB3_00/CODE/cpp/__S/workspace/Quake3e/code/server/sv_main.c:916
			if ( com_developer->integer ) {
    194b:	48 8b 05 00 00 00 00 	mov    rax,QWORD PTR [rip+0x0]        # 1952 <SV_ConnectionlessPacket+0x62>
    1952:	8b 40 30             	mov    eax,DWORD PTR [rax+0x30]
    1955:	85 c0                	test   eax,eax
    1957:	0f 84 e0 01 00 00    	je     1b3d <SV_ConnectionlessPacket+0x24d>
/media/WD3tbUSB3_00/CODE/cpp/__S/workspace/Quake3e/code/server/sv_main.c:917
				Com_Printf( "%s : connect packet is too long - %i\n", NET_AdrToString( from ), msg->cursize );
    195d:	48 8b 45 d0          	mov    rax,QWORD PTR [rbp-0x30]
    1961:	8b 58 20             	mov    ebx,DWORD PTR [rax+0x20]
    1964:	48 8b 45 d8          	mov    rax,QWORD PTR [rbp-0x28]
    1968:	48 89 c7             	mov    rdi,rax
    196b:	e8 00 00 00 00       	call   1970 <SV_ConnectionlessPacket+0x80>
    1970:	89 da                	mov    edx,ebx
    1972:	48 89 c6             	mov    rsi,rax
    1975:	48 8d 3d 00 00 00 00 	lea    rdi,[rip+0x0]        # 197c <SV_ConnectionlessPacket+0x8c>
    197c:	b8 00 00 00 00       	mov    eax,0x0
    1981:	e8 00 00 00 00       	call   1986 <SV_ConnectionlessPacket+0x96>
/media/WD3tbUSB3_00/CODE/cpp/__S/workspace/Quake3e/code/server/sv_main.c:919
			}
			return;
    1986:	e9 b2 01 00 00       	jmp    1b3d <SV_ConnectionlessPacket+0x24d>
/media/WD3tbUSB3_00/CODE/cpp/__S/workspace/Quake3e/code/server/sv_main.c:921
		}
		Huff_Decompress( msg, 12 );
    198b:	48 8b 45 d0          	mov    rax,QWORD PTR [rbp-0x30]
    198f:	be 0c 00 00 00       	mov    esi,0xc
    1994:	48 89 c7             	mov    rdi,rax
    1997:	e8 00 00 00 00       	call   199c <SV_ConnectionlessPacket+0xac>
/media/WD3tbUSB3_00/CODE/cpp/__S/workspace/Quake3e/code/server/sv_main.c:924
	}

	s = MSG_ReadStringLine( msg );
    199c:	48 8b 45 d0          	mov    rax,QWORD PTR [rbp-0x30]
    19a0:	48 89 c7             	mov    rdi,rax
    19a3:	e8 00 00 00 00       	call   19a8 <SV_ConnectionlessPacket+0xb8>
    19a8:	48 89 45 e8          	mov    QWORD PTR [rbp-0x18],rax
/media/WD3tbUSB3_00/CODE/cpp/__S/workspace/Quake3e/code/server/sv_main.c:925
	Cmd_TokenizeString( s );
    19ac:	48 8b 45 e8          	mov    rax,QWORD PTR [rbp-0x18]
    19b0:	48 89 c7             	mov    rdi,rax
    19b3:	e8 00 00 00 00       	call   19b8 <SV_ConnectionlessPacket+0xc8>
/media/WD3tbUSB3_00/CODE/cpp/__S/workspace/Quake3e/code/server/sv_main.c:927

	c = Cmd_Argv(0);
    19b8:	bf 00 00 00 00       	mov    edi,0x0
    19bd:	e8 00 00 00 00       	call   19c2 <SV_ConnectionlessPacket+0xd2>
    19c2:	48 89 45 e0          	mov    QWORD PTR [rbp-0x20],rax
/media/WD3tbUSB3_00/CODE/cpp/__S/workspace/Quake3e/code/server/sv_main.c:929

	if ( com_developer->integer ) {
    19c6:	48 8b 05 00 00 00 00 	mov    rax,QWORD PTR [rip+0x0]        # 19cd <SV_ConnectionlessPacket+0xdd>
    19cd:	8b 40 30             	mov    eax,DWORD PTR [rax+0x30]
    19d0:	85 c0                	test   eax,eax
    19d2:	74 2a                	je     19fe <SV_ConnectionlessPacket+0x10e>
/media/WD3tbUSB3_00/CODE/cpp/__S/workspace/Quake3e/code/server/sv_main.c:930
		Com_Printf( "SV packet %s : %s\n", NET_AdrToString( from ), c );
    19d4:	48 8b 45 d8          	mov    rax,QWORD PTR [rbp-0x28]
    19d8:	48 89 c7             	mov    rdi,rax
    19db:	e8 00 00 00 00       	call   19e0 <SV_ConnectionlessPacket+0xf0>
    19e0:	48 89 c1             	mov    rcx,rax
    19e3:	48 8b 45 e0          	mov    rax,QWORD PTR [rbp-0x20]
    19e7:	48 89 c2             	mov    rdx,rax
    19ea:	48 89 ce             	mov    rsi,rcx
    19ed:	48 8d 3d 00 00 00 00 	lea    rdi,[rip+0x0]        # 19f4 <SV_ConnectionlessPacket+0x104>
    19f4:	b8 00 00 00 00       	mov    eax,0x0
    19f9:	e8 00 00 00 00       	call   19fe <SV_ConnectionlessPacket+0x10e>
/media/WD3tbUSB3_00/CODE/cpp/__S/workspace/Quake3e/code/server/sv_main.c:933
	}

	if ( !Q_stricmp(c, "rcon") ) {
    19fe:	48 8b 45 e0          	mov    rax,QWORD PTR [rbp-0x20]
    1a02:	48 8d 35 00 00 00 00 	lea    rsi,[rip+0x0]        # 1a09 <SV_ConnectionlessPacket+0x119>
    1a09:	48 89 c7             	mov    rdi,rax
    1a0c:	e8 00 00 00 00       	call   1a11 <SV_ConnectionlessPacket+0x121>
    1a11:	85 c0                	test   eax,eax
    1a13:	75 11                	jne    1a26 <SV_ConnectionlessPacket+0x136>
/media/WD3tbUSB3_00/CODE/cpp/__S/workspace/Quake3e/code/server/sv_main.c:934
		SVC_RemoteCommand( from );
    1a15:	48 8b 45 d8          	mov    rax,QWORD PTR [rbp-0x28]
    1a19:	48 89 c7             	mov    rdi,rax
    1a1c:	e8 fc fb ff ff       	call   161d <SVC_RemoteCommand>
/media/WD3tbUSB3_00/CODE/cpp/__S/workspace/Quake3e/code/server/sv_main.c:935
		return;
    1a21:	e9 1b 01 00 00       	jmp    1b41 <SV_ConnectionlessPacket+0x251>
/media/WD3tbUSB3_00/CODE/cpp/__S/workspace/Quake3e/code/server/sv_main.c:938
	}

	if ( !com_sv_running->integer ) {
    1a26:	48 8b 05 00 00 00 00 	mov    rax,QWORD PTR [rip+0x0]        # 1a2d <SV_ConnectionlessPacket+0x13d>
    1a2d:	8b 40 30             	mov    eax,DWORD PTR [rax+0x30]
    1a30:	85 c0                	test   eax,eax
    1a32:	0f 84 08 01 00 00    	je     1b40 <SV_ConnectionlessPacket+0x250>
/media/WD3tbUSB3_00/CODE/cpp/__S/workspace/Quake3e/code/server/sv_main.c:942
		return;
	}

	if (!Q_stricmp(c, "getstatus")) {
    1a38:	48 8b 45 e0          	mov    rax,QWORD PTR [rbp-0x20]
    1a3c:	48 8d 35 00 00 00 00 	lea    rsi,[rip+0x0]        # 1a43 <SV_ConnectionlessPacket+0x153>
    1a43:	48 89 c7             	mov    rdi,rax
    1a46:	e8 00 00 00 00       	call   1a4b <SV_ConnectionlessPacket+0x15b>
    1a4b:	85 c0                	test   eax,eax
    1a4d:	75 11                	jne    1a60 <SV_ConnectionlessPacket+0x170>
/media/WD3tbUSB3_00/CODE/cpp/__S/workspace/Quake3e/code/server/sv_main.c:943
		SVC_Status( from );
    1a4f:	48 8b 45 d8          	mov    rax,QWORD PTR [rbp-0x28]
    1a53:	48 89 c7             	mov    rdi,rax
    1a56:	e8 88 f5 ff ff       	call   fe3 <SVC_Status>
    1a5b:	e9 e1 00 00 00       	jmp    1b41 <SV_ConnectionlessPacket+0x251>
/media/WD3tbUSB3_00/CODE/cpp/__S/workspace/Quake3e/code/server/sv_main.c:944
	} else if (!Q_stricmp(c, "getinfo")) {
    1a60:	48 8b 45 e0          	mov    rax,QWORD PTR [rbp-0x20]
    1a64:	48 8d 35 00 00 00 00 	lea    rsi,[rip+0x0]        # 1a6b <SV_ConnectionlessPacket+0x17b>
    1a6b:	48 89 c7             	mov    rdi,rax
    1a6e:	e8 00 00 00 00       	call   1a73 <SV_ConnectionlessPacket+0x183>
    1a73:	85 c0                	test   eax,eax
    1a75:	75 11                	jne    1a88 <SV_ConnectionlessPacket+0x198>
/media/WD3tbUSB3_00/CODE/cpp/__S/workspace/Quake3e/code/server/sv_main.c:945
		SVC_Info( from );
    1a77:	48 8b 45 d8          	mov    rax,QWORD PTR [rbp-0x28]
    1a7b:	48 89 c7             	mov    rdi,rax
    1a7e:	e8 9e f7 ff ff       	call   1221 <SVC_Info>
    1a83:	e9 b9 00 00 00       	jmp    1b41 <SV_ConnectionlessPacket+0x251>
/media/WD3tbUSB3_00/CODE/cpp/__S/workspace/Quake3e/code/server/sv_main.c:946
	} else if (!Q_stricmp(c, "getchallenge")) {
    1a88:	48 8b 45 e0          	mov    rax,QWORD PTR [rbp-0x20]
    1a8c:	48 8d 35 00 00 00 00 	lea    rsi,[rip+0x0]        # 1a93 <SV_ConnectionlessPacket+0x1a3>
    1a93:	48 89 c7             	mov    rdi,rax
    1a96:	e8 00 00 00 00       	call   1a9b <SV_ConnectionlessPacket+0x1ab>
    1a9b:	85 c0                	test   eax,eax
    1a9d:	75 11                	jne    1ab0 <SV_ConnectionlessPacket+0x1c0>
/media/WD3tbUSB3_00/CODE/cpp/__S/workspace/Quake3e/code/server/sv_main.c:947
		SV_GetChallenge( from );
    1a9f:	48 8b 45 d8          	mov    rax,QWORD PTR [rbp-0x28]
    1aa3:	48 89 c7             	mov    rdi,rax
    1aa6:	e8 00 00 00 00       	call   1aab <SV_ConnectionlessPacket+0x1bb>
    1aab:	e9 91 00 00 00       	jmp    1b41 <SV_ConnectionlessPacket+0x251>
/media/WD3tbUSB3_00/CODE/cpp/__S/workspace/Quake3e/code/server/sv_main.c:948
	} else if (!Q_stricmp(c, "connect")) {
    1ab0:	48 8b 45 e0          	mov    rax,QWORD PTR [rbp-0x20]
    1ab4:	48 8d 35 00 00 00 00 	lea    rsi,[rip+0x0]        # 1abb <SV_ConnectionlessPacket+0x1cb>
    1abb:	48 89 c7             	mov    rdi,rax
    1abe:	e8 00 00 00 00       	call   1ac3 <SV_ConnectionlessPacket+0x1d3>
    1ac3:	85 c0                	test   eax,eax
    1ac5:	75 0e                	jne    1ad5 <SV_ConnectionlessPacket+0x1e5>
/media/WD3tbUSB3_00/CODE/cpp/__S/workspace/Quake3e/code/server/sv_main.c:949
		SV_DirectConnect( from );
    1ac7:	48 8b 45 d8          	mov    rax,QWORD PTR [rbp-0x28]
    1acb:	48 89 c7             	mov    rdi,rax
    1ace:	e8 00 00 00 00       	call   1ad3 <SV_ConnectionlessPacket+0x1e3>
    1ad3:	eb 6c                	jmp    1b41 <SV_ConnectionlessPacket+0x251>
/media/WD3tbUSB3_00/CODE/cpp/__S/workspace/Quake3e/code/server/sv_main.c:951
#ifndef STANDALONE
	} else if (!Q_stricmp(c, "ipAuthorize")) {
    1ad5:	48 8b 45 e0          	mov    rax,QWORD PTR [rbp-0x20]
    1ad9:	48 8d 35 00 00 00 00 	lea    rsi,[rip+0x0]        # 1ae0 <SV_ConnectionlessPacket+0x1f0>
    1ae0:	48 89 c7             	mov    rdi,rax
    1ae3:	e8 00 00 00 00       	call   1ae8 <SV_ConnectionlessPacket+0x1f8>
    1ae8:	85 c0                	test   eax,eax
    1aea:	74 55                	je     1b41 <SV_ConnectionlessPacket+0x251>
/media/WD3tbUSB3_00/CODE/cpp/__S/workspace/Quake3e/code/server/sv_main.c:954
		// removed from codebase since stateless challenges
#endif
	} else if (!Q_stricmp(c, "disconnect")) {
    1aec:	48 8b 45 e0          	mov    rax,QWORD PTR [rbp-0x20]
    1af0:	48 8d 35 00 00 00 00 	lea    rsi,[rip+0x0]        # 1af7 <SV_ConnectionlessPacket+0x207>
    1af7:	48 89 c7             	mov    rdi,rax
    1afa:	e8 00 00 00 00       	call   1aff <SV_ConnectionlessPacket+0x20f>
    1aff:	85 c0                	test   eax,eax
    1b01:	74 3e                	je     1b41 <SV_ConnectionlessPacket+0x251>
/media/WD3tbUSB3_00/CODE/cpp/__S/workspace/Quake3e/code/server/sv_main.c:959
		// if a client starts up a local server, we may see some spurious
		// server disconnect messages when their new server sees our final
		// sequenced messages to the old client
	} else {
		if ( com_developer->integer ) {
    1b03:	48 8b 05 00 00 00 00 	mov    rax,QWORD PTR [rip+0x0]        # 1b0a <SV_ConnectionlessPacket+0x21a>
    1b0a:	8b 40 30             	mov    eax,DWORD PTR [rax+0x30]
    1b0d:	85 c0                	test   eax,eax
    1b0f:	74 30                	je     1b41 <SV_ConnectionlessPacket+0x251>
/media/WD3tbUSB3_00/CODE/cpp/__S/workspace/Quake3e/code/server/sv_main.c:960
			Com_Printf( "bad connectionless packet from %s:\n%s\n",
    1b11:	48 8b 45 d8          	mov    rax,QWORD PTR [rbp-0x28]
    1b15:	48 89 c7             	mov    rdi,rax
    1b18:	e8 00 00 00 00       	call   1b1d <SV_ConnectionlessPacket+0x22d>
    1b1d:	48 89 c1             	mov    rcx,rax
    1b20:	48 8b 45 e8          	mov    rax,QWORD PTR [rbp-0x18]
    1b24:	48 89 c2             	mov    rdx,rax
    1b27:	48 89 ce             	mov    rsi,rcx
    1b2a:	48 8d 3d 00 00 00 00 	lea    rdi,[rip+0x0]        # 1b31 <SV_ConnectionlessPacket+0x241>
    1b31:	b8 00 00 00 00       	mov    eax,0x0
    1b36:	e8 00 00 00 00       	call   1b3b <SV_ConnectionlessPacket+0x24b>
    1b3b:	eb 04                	jmp    1b41 <SV_ConnectionlessPacket+0x251>
/media/WD3tbUSB3_00/CODE/cpp/__S/workspace/Quake3e/code/server/sv_main.c:919
			return;
    1b3d:	90                   	nop
    1b3e:	eb 01                	jmp    1b41 <SV_ConnectionlessPacket+0x251>
/media/WD3tbUSB3_00/CODE/cpp/__S/workspace/Quake3e/code/server/sv_main.c:939
		return;
    1b40:	90                   	nop
/media/WD3tbUSB3_00/CODE/cpp/__S/workspace/Quake3e/code/server/sv_main.c:964
				NET_AdrToString( from ), s );
		}
	}
}
    1b41:	48 83 c4 28          	add    rsp,0x28
    1b45:	5b                   	pop    rbx
    1b46:	5d                   	pop    rbp
    1b47:	c3                   	ret    

0000000000001b48 <SV_PacketEvent>:
SV_PacketEvent():
/media/WD3tbUSB3_00/CODE/cpp/__S/workspace/Quake3e/code/server/sv_main.c:973
/*
=================
SV_PacketEvent
=================
*/
void SV_PacketEvent( const netadr_t *from, msg_t *msg ) {
    1b48:	55                   	push   rbp
    1b49:	48 89 e5             	mov    rbp,rsp
    1b4c:	48 83 ec 30          	sub    rsp,0x30
    1b50:	48 89 7d d8          	mov    QWORD PTR [rbp-0x28],rdi
    1b54:	48 89 75 d0          	mov    QWORD PTR [rbp-0x30],rsi
/media/WD3tbUSB3_00/CODE/cpp/__S/workspace/Quake3e/code/server/sv_main.c:978
	int			i;
	client_t	*cl;
	int			qport;

	if ( msg->cursize < 6 ) // too short for anything
    1b58:	48 8b 45 d0          	mov    rax,QWORD PTR [rbp-0x30]
    1b5c:	8b 40 20             	mov    eax,DWORD PTR [rax+0x20]
    1b5f:	83 f8 05             	cmp    eax,0x5
    1b62:	0f 8e 66 01 00 00    	jle    1cce <SV_PacketEvent+0x186>
/media/WD3tbUSB3_00/CODE/cpp/__S/workspace/Quake3e/code/server/sv_main.c:982
		return;

	// check for connectionless packet (0xffffffff) first
	if ( *(int32_t *)msg->data == -1 ) {
    1b68:	48 8b 45 d0          	mov    rax,QWORD PTR [rbp-0x30]
    1b6c:	48 8b 40 10          	mov    rax,QWORD PTR [rax+0x10]
    1b70:	8b 00                	mov    eax,DWORD PTR [rax]
    1b72:	83 f8 ff             	cmp    eax,0xffffffff
    1b75:	75 18                	jne    1b8f <SV_PacketEvent+0x47>
/media/WD3tbUSB3_00/CODE/cpp/__S/workspace/Quake3e/code/server/sv_main.c:983
		SV_ConnectionlessPacket( from, msg );
    1b77:	48 8b 55 d0          	mov    rdx,QWORD PTR [rbp-0x30]
    1b7b:	48 8b 45 d8          	mov    rax,QWORD PTR [rbp-0x28]
    1b7f:	48 89 d6             	mov    rsi,rdx
    1b82:	48 89 c7             	mov    rdi,rax
    1b85:	e8 66 fd ff ff       	call   18f0 <SV_ConnectionlessPacket>
/media/WD3tbUSB3_00/CODE/cpp/__S/workspace/Quake3e/code/server/sv_main.c:984
		return;
    1b8a:	e9 46 01 00 00       	jmp    1cd5 <SV_PacketEvent+0x18d>
/media/WD3tbUSB3_00/CODE/cpp/__S/workspace/Quake3e/code/server/sv_main.c:987
	}

	if ( sv.state == SS_DEAD ) {
    1b8f:	8b 05 00 00 00 00    	mov    eax,DWORD PTR [rip+0x0]        # 1b95 <SV_PacketEvent+0x4d>
    1b95:	85 c0                	test   eax,eax
    1b97:	0f 84 34 01 00 00    	je     1cd1 <SV_PacketEvent+0x189>
/media/WD3tbUSB3_00/CODE/cpp/__S/workspace/Quake3e/code/server/sv_main.c:993
		return;
	}

	// read the qport out of the message so we can fix up
	// stupid address translating routers
	MSG_BeginReadingOOB( msg );
    1b9d:	48 8b 45 d0          	mov    rax,QWORD PTR [rbp-0x30]
    1ba1:	48 89 c7             	mov    rdi,rax
    1ba4:	e8 00 00 00 00       	call   1ba9 <SV_PacketEvent+0x61>
/media/WD3tbUSB3_00/CODE/cpp/__S/workspace/Quake3e/code/server/sv_main.c:994
	MSG_ReadLong( msg ); // sequence number
    1ba9:	48 8b 45 d0          	mov    rax,QWORD PTR [rbp-0x30]
    1bad:	48 89 c7             	mov    rdi,rax
    1bb0:	e8 00 00 00 00       	call   1bb5 <SV_PacketEvent+0x6d>
/media/WD3tbUSB3_00/CODE/cpp/__S/workspace/Quake3e/code/server/sv_main.c:995
	qport = MSG_ReadShort( msg ) & 0xffff;
    1bb5:	48 8b 45 d0          	mov    rax,QWORD PTR [rbp-0x30]
    1bb9:	48 89 c7             	mov    rdi,rax
    1bbc:	e8 00 00 00 00       	call   1bc1 <SV_PacketEvent+0x79>
    1bc1:	25 ff ff 00 00       	and    eax,0xffff
    1bc6:	89 45 ec             	mov    DWORD PTR [rbp-0x14],eax
/media/WD3tbUSB3_00/CODE/cpp/__S/workspace/Quake3e/code/server/sv_main.c:998

	// find which client the message is from
	for (i=0, cl=svs.clients ; i < sv_maxclients->integer ; i++,cl++) {
    1bc9:	c7 45 fc 00 00 00 00 	mov    DWORD PTR [rbp-0x4],0x0
    1bd0:	48 8b 05 00 00 00 00 	mov    rax,QWORD PTR [rip+0x0]        # 1bd7 <SV_PacketEvent+0x8f>
    1bd7:	48 89 45 f0          	mov    QWORD PTR [rbp-0x10],rax
    1bdb:	e9 d9 00 00 00       	jmp    1cb9 <SV_PacketEvent+0x171>
/media/WD3tbUSB3_00/CODE/cpp/__S/workspace/Quake3e/code/server/sv_main.c:999
		if (cl->state == CS_FREE) {
    1be0:	48 8b 45 f0          	mov    rax,QWORD PTR [rbp-0x10]
    1be4:	8b 00                	mov    eax,DWORD PTR [rax]
    1be6:	85 c0                	test   eax,eax
    1be8:	0f 84 b8 00 00 00    	je     1ca6 <SV_PacketEvent+0x15e>
/media/WD3tbUSB3_00/CODE/cpp/__S/workspace/Quake3e/code/server/sv_main.c:1002
			continue;
		}
		if ( !NET_CompareBaseAdr( from, &cl->netchan.remoteAddress ) ) {
    1bee:	48 8b 45 f0          	mov    rax,QWORD PTR [rbp-0x10]
    1bf2:	48 8d 90 40 4d 02 00 	lea    rdx,[rax+0x24d40]
    1bf9:	48 8b 45 d8          	mov    rax,QWORD PTR [rbp-0x28]
    1bfd:	48 89 d6             	mov    rsi,rdx
    1c00:	48 89 c7             	mov    rdi,rax
    1c03:	e8 00 00 00 00       	call   1c08 <SV_PacketEvent+0xc0>
    1c08:	85 c0                	test   eax,eax
    1c0a:	0f 84 99 00 00 00    	je     1ca9 <SV_PacketEvent+0x161>
/media/WD3tbUSB3_00/CODE/cpp/__S/workspace/Quake3e/code/server/sv_main.c:1007
			continue;
		}
		// it is possible to have multiple clients from a single IP
		// address, so they are differentiated by the qport variable
		if (cl->netchan.qport != qport) {
    1c10:	48 8b 45 f0          	mov    rax,QWORD PTR [rbp-0x10]
    1c14:	8b 80 60 4d 02 00    	mov    eax,DWORD PTR [rax+0x24d60]
    1c1a:	39 45 ec             	cmp    DWORD PTR [rbp-0x14],eax
    1c1d:	0f 85 89 00 00 00    	jne    1cac <SV_PacketEvent+0x164>
/media/WD3tbUSB3_00/CODE/cpp/__S/workspace/Quake3e/code/server/sv_main.c:1012
			continue;
		}

		// make sure it is a valid, in sequence packet
		if (SV_Netchan_Process(cl, msg)) {
    1c23:	48 8b 55 d0          	mov    rdx,QWORD PTR [rbp-0x30]
    1c27:	48 8b 45 f0          	mov    rax,QWORD PTR [rbp-0x10]
    1c2b:	48 89 d6             	mov    rsi,rdx
    1c2e:	48 89 c7             	mov    rdi,rax
    1c31:	e8 00 00 00 00       	call   1c36 <SV_PacketEvent+0xee>
    1c36:	85 c0                	test   eax,eax
    1c38:	74 73                	je     1cad <SV_PacketEvent+0x165>
/media/WD3tbUSB3_00/CODE/cpp/__S/workspace/Quake3e/code/server/sv_main.c:1016
			// the IP port can't be used to differentiate clients, because
			// some address translating routers periodically change UDP
			// port assignments
			if (cl->netchan.remoteAddress.port != from->port) {
    1c3a:	48 8b 45 f0          	mov    rax,QWORD PTR [rbp-0x10]
    1c3e:	0f b7 90 54 4d 02 00 	movzx  edx,WORD PTR [rax+0x24d54]
    1c45:	48 8b 45 d8          	mov    rax,QWORD PTR [rbp-0x28]
    1c49:	0f b7 40 14          	movzx  eax,WORD PTR [rax+0x14]
    1c4d:	66 39 c2             	cmp    dx,ax
    1c50:	74 24                	je     1c76 <SV_PacketEvent+0x12e>
/media/WD3tbUSB3_00/CODE/cpp/__S/workspace/Quake3e/code/server/sv_main.c:1017
				Com_Printf( "SV_PacketEvent: fixing up a translated port\n" );
    1c52:	48 8d 3d 00 00 00 00 	lea    rdi,[rip+0x0]        # 1c59 <SV_PacketEvent+0x111>
    1c59:	b8 00 00 00 00       	mov    eax,0x0
    1c5e:	e8 00 00 00 00       	call   1c63 <SV_PacketEvent+0x11b>
/media/WD3tbUSB3_00/CODE/cpp/__S/workspace/Quake3e/code/server/sv_main.c:1018
				cl->netchan.remoteAddress.port = from->port;
    1c63:	48 8b 45 d8          	mov    rax,QWORD PTR [rbp-0x28]
    1c67:	0f b7 50 14          	movzx  edx,WORD PTR [rax+0x14]
    1c6b:	48 8b 45 f0          	mov    rax,QWORD PTR [rbp-0x10]
    1c6f:	66 89 90 54 4d 02 00 	mov    WORD PTR [rax+0x24d54],dx
/media/WD3tbUSB3_00/CODE/cpp/__S/workspace/Quake3e/code/server/sv_main.c:1023
			}
			// zombie clients still need to do the Netchan_Process
			// to make sure they don't need to retransmit the final
			// reliable message, but they don't do any other processing
			if (cl->state != CS_ZOMBIE) {
    1c76:	48 8b 45 f0          	mov    rax,QWORD PTR [rbp-0x10]
    1c7a:	8b 00                	mov    eax,DWORD PTR [rax]
    1c7c:	83 f8 01             	cmp    eax,0x1
    1c7f:	74 53                	je     1cd4 <SV_PacketEvent+0x18c>
/media/WD3tbUSB3_00/CODE/cpp/__S/workspace/Quake3e/code/server/sv_main.c:1024
				cl->lastPacketTime = svs.time;	// don't timeout
    1c81:	8b 15 00 00 00 00    	mov    edx,DWORD PTR [rip+0x0]        # 1c87 <SV_PacketEvent+0x13f>
    1c87:	48 8b 45 f0          	mov    rax,QWORD PTR [rbp-0x10]
    1c8b:	89 90 04 0b 01 00    	mov    DWORD PTR [rax+0x10b04],edx
/media/WD3tbUSB3_00/CODE/cpp/__S/workspace/Quake3e/code/server/sv_main.c:1025
				SV_ExecuteClientMessage( cl, msg );
    1c91:	48 8b 55 d0          	mov    rdx,QWORD PTR [rbp-0x30]
    1c95:	48 8b 45 f0          	mov    rax,QWORD PTR [rbp-0x10]
    1c99:	48 89 d6             	mov    rsi,rdx
    1c9c:	48 89 c7             	mov    rdi,rax
    1c9f:	e8 00 00 00 00       	call   1ca4 <SV_PacketEvent+0x15c>
/media/WD3tbUSB3_00/CODE/cpp/__S/workspace/Quake3e/code/server/sv_main.c:1027
			}
			return;
    1ca4:	eb 2e                	jmp    1cd4 <SV_PacketEvent+0x18c>
/media/WD3tbUSB3_00/CODE/cpp/__S/workspace/Quake3e/code/server/sv_main.c:1000
			continue;
    1ca6:	90                   	nop
    1ca7:	eb 04                	jmp    1cad <SV_PacketEvent+0x165>
/media/WD3tbUSB3_00/CODE/cpp/__S/workspace/Quake3e/code/server/sv_main.c:1003
			continue;
    1ca9:	90                   	nop
    1caa:	eb 01                	jmp    1cad <SV_PacketEvent+0x165>
/media/WD3tbUSB3_00/CODE/cpp/__S/workspace/Quake3e/code/server/sv_main.c:1008
			continue;
    1cac:	90                   	nop
/media/WD3tbUSB3_00/CODE/cpp/__S/workspace/Quake3e/code/server/sv_main.c:998 (discriminator 2)
	for (i=0, cl=svs.clients ; i < sv_maxclients->integer ; i++,cl++) {
    1cad:	83 45 fc 01          	add    DWORD PTR [rbp-0x4],0x1
    1cb1:	48 81 45 f0 e0 dd 02 	add    QWORD PTR [rbp-0x10],0x2dde0
    1cb8:	00 
/media/WD3tbUSB3_00/CODE/cpp/__S/workspace/Quake3e/code/server/sv_main.c:998 (discriminator 1)
    1cb9:	48 8b 05 00 00 00 00 	mov    rax,QWORD PTR [rip+0x0]        # 1cc0 <SV_PacketEvent+0x178>
    1cc0:	8b 40 30             	mov    eax,DWORD PTR [rax+0x30]
    1cc3:	39 45 fc             	cmp    DWORD PTR [rbp-0x4],eax
    1cc6:	0f 8c 14 ff ff ff    	jl     1be0 <SV_PacketEvent+0x98>
    1ccc:	eb 07                	jmp    1cd5 <SV_PacketEvent+0x18d>
/media/WD3tbUSB3_00/CODE/cpp/__S/workspace/Quake3e/code/server/sv_main.c:979
		return;
    1cce:	90                   	nop
    1ccf:	eb 04                	jmp    1cd5 <SV_PacketEvent+0x18d>
/media/WD3tbUSB3_00/CODE/cpp/__S/workspace/Quake3e/code/server/sv_main.c:988
		return;
    1cd1:	90                   	nop
    1cd2:	eb 01                	jmp    1cd5 <SV_PacketEvent+0x18d>
/media/WD3tbUSB3_00/CODE/cpp/__S/workspace/Quake3e/code/server/sv_main.c:1027
			return;
    1cd4:	90                   	nop
/media/WD3tbUSB3_00/CODE/cpp/__S/workspace/Quake3e/code/server/sv_main.c:1030
		}
	}
}
    1cd5:	c9                   	leave  
    1cd6:	c3                   	ret    

0000000000001cd7 <SV_CalcPings>:
SV_CalcPings():
/media/WD3tbUSB3_00/CODE/cpp/__S/workspace/Quake3e/code/server/sv_main.c:1040
SV_CalcPings

Updates the cl->ping variables
===================
*/
static void SV_CalcPings( void ) {
    1cd7:	55                   	push   rbp
    1cd8:	48 89 e5             	mov    rbp,rsp
    1cdb:	48 83 ec 30          	sub    rsp,0x30
/media/WD3tbUSB3_00/CODE/cpp/__S/workspace/Quake3e/code/server/sv_main.c:1047
	client_t	*cl;
	int			total, count;
	int			delta;
	playerState_t	*ps;

	for (i=0 ; i < sv_maxclients->integer ; i++) {
    1cdf:	c7 45 fc 00 00 00 00 	mov    DWORD PTR [rbp-0x4],0x0
    1ce6:	e9 75 01 00 00       	jmp    1e60 <SV_CalcPings+0x189>
/media/WD3tbUSB3_00/CODE/cpp/__S/workspace/Quake3e/code/server/sv_main.c:1048
		cl = &svs.clients[i];
    1ceb:	48 8b 15 00 00 00 00 	mov    rdx,QWORD PTR [rip+0x0]        # 1cf2 <SV_CalcPings+0x1b>
    1cf2:	8b 45 fc             	mov    eax,DWORD PTR [rbp-0x4]
    1cf5:	48 98                	cdqe   
    1cf7:	48 69 c0 e0 dd 02 00 	imul   rax,rax,0x2dde0
    1cfe:	48 01 d0             	add    rax,rdx
    1d01:	48 89 45 e8          	mov    QWORD PTR [rbp-0x18],rax
/media/WD3tbUSB3_00/CODE/cpp/__S/workspace/Quake3e/code/server/sv_main.c:1049
		if ( cl->state != CS_ACTIVE ) {
    1d05:	48 8b 45 e8          	mov    rax,QWORD PTR [rbp-0x18]
    1d09:	8b 00                	mov    eax,DWORD PTR [rax]
    1d0b:	83 f8 04             	cmp    eax,0x4
    1d0e:	74 13                	je     1d23 <SV_CalcPings+0x4c>
/media/WD3tbUSB3_00/CODE/cpp/__S/workspace/Quake3e/code/server/sv_main.c:1050
			cl->ping = 999;
    1d10:	48 8b 45 e8          	mov    rax,QWORD PTR [rbp-0x18]
    1d14:	c7 80 20 4d 02 00 e7 	mov    DWORD PTR [rax+0x24d20],0x3e7
    1d1b:	03 00 00 
/media/WD3tbUSB3_00/CODE/cpp/__S/workspace/Quake3e/code/server/sv_main.c:1051
			continue;
    1d1e:	e9 39 01 00 00       	jmp    1e5c <SV_CalcPings+0x185>
/media/WD3tbUSB3_00/CODE/cpp/__S/workspace/Quake3e/code/server/sv_main.c:1053
		}
		if ( !cl->gentity ) {
    1d23:	48 8b 45 e8          	mov    rax,QWORD PTR [rbp-0x18]
    1d27:	48 8b 80 38 08 01 00 	mov    rax,QWORD PTR [rax+0x10838]
    1d2e:	48 85 c0             	test   rax,rax
    1d31:	75 13                	jne    1d46 <SV_CalcPings+0x6f>
/media/WD3tbUSB3_00/CODE/cpp/__S/workspace/Quake3e/code/server/sv_main.c:1054
			cl->ping = 999;
    1d33:	48 8b 45 e8          	mov    rax,QWORD PTR [rbp-0x18]
    1d37:	c7 80 20 4d 02 00 e7 	mov    DWORD PTR [rax+0x24d20],0x3e7
    1d3e:	03 00 00 
/media/WD3tbUSB3_00/CODE/cpp/__S/workspace/Quake3e/code/server/sv_main.c:1055
			continue;
    1d41:	e9 16 01 00 00       	jmp    1e5c <SV_CalcPings+0x185>
/media/WD3tbUSB3_00/CODE/cpp/__S/workspace/Quake3e/code/server/sv_main.c:1057
		}
		if ( cl->netchan.remoteAddress.type == NA_BOT ) {
    1d46:	48 8b 45 e8          	mov    rax,QWORD PTR [rbp-0x18]
    1d4a:	8b 80 40 4d 02 00    	mov    eax,DWORD PTR [rax+0x24d40]
    1d50:	83 f8 01             	cmp    eax,0x1
    1d53:	75 13                	jne    1d68 <SV_CalcPings+0x91>
/media/WD3tbUSB3_00/CODE/cpp/__S/workspace/Quake3e/code/server/sv_main.c:1058
			cl->ping = 0;
    1d55:	48 8b 45 e8          	mov    rax,QWORD PTR [rbp-0x18]
    1d59:	c7 80 20 4d 02 00 00 	mov    DWORD PTR [rax+0x24d20],0x0
    1d60:	00 00 00 
/media/WD3tbUSB3_00/CODE/cpp/__S/workspace/Quake3e/code/server/sv_main.c:1059
			continue;
    1d63:	e9 f4 00 00 00       	jmp    1e5c <SV_CalcPings+0x185>
/media/WD3tbUSB3_00/CODE/cpp/__S/workspace/Quake3e/code/server/sv_main.c:1062
		}

		total = 0;
    1d68:	c7 45 f4 00 00 00 00 	mov    DWORD PTR [rbp-0xc],0x0
/media/WD3tbUSB3_00/CODE/cpp/__S/workspace/Quake3e/code/server/sv_main.c:1063
		count = 0;
    1d6f:	c7 45 f0 00 00 00 00 	mov    DWORD PTR [rbp-0x10],0x0
/media/WD3tbUSB3_00/CODE/cpp/__S/workspace/Quake3e/code/server/sv_main.c:1064
		for ( j = 0 ; j < PACKET_BACKUP ; j++ ) {
    1d76:	c7 45 f8 00 00 00 00 	mov    DWORD PTR [rbp-0x8],0x0
    1d7d:	eb 6d                	jmp    1dec <SV_CalcPings+0x115>
/media/WD3tbUSB3_00/CODE/cpp/__S/workspace/Quake3e/code/server/sv_main.c:1065
			if ( cl->frames[j].messageAcked == 0 ) {
    1d7f:	48 8b 55 e8          	mov    rdx,QWORD PTR [rbp-0x18]
    1d83:	8b 45 f8             	mov    eax,DWORD PTR [rbp-0x8]
    1d86:	48 98                	cdqe   
    1d88:	48 69 c0 10 0a 00 00 	imul   rax,rax,0xa10
    1d8f:	48 01 d0             	add    rax,rdx
    1d92:	48 05 20 0d 01 00    	add    rax,0x10d20
    1d98:	8b 00                	mov    eax,DWORD PTR [rax]
    1d9a:	85 c0                	test   eax,eax
    1d9c:	74 49                	je     1de7 <SV_CalcPings+0x110>
/media/WD3tbUSB3_00/CODE/cpp/__S/workspace/Quake3e/code/server/sv_main.c:1068
				continue;
			}
			delta = cl->frames[j].messageAcked - cl->frames[j].messageSent;
    1d9e:	48 8b 55 e8          	mov    rdx,QWORD PTR [rbp-0x18]
    1da2:	8b 45 f8             	mov    eax,DWORD PTR [rbp-0x8]
    1da5:	48 98                	cdqe   
    1da7:	48 69 c0 10 0a 00 00 	imul   rax,rax,0xa10
    1dae:	48 01 d0             	add    rax,rdx
    1db1:	48 05 20 0d 01 00    	add    rax,0x10d20
    1db7:	8b 10                	mov    edx,DWORD PTR [rax]
    1db9:	48 8b 4d e8          	mov    rcx,QWORD PTR [rbp-0x18]
    1dbd:	8b 45 f8             	mov    eax,DWORD PTR [rbp-0x8]
    1dc0:	48 98                	cdqe   
    1dc2:	48 69 c0 10 0a 00 00 	imul   rax,rax,0xa10
    1dc9:	48 01 c8             	add    rax,rcx
    1dcc:	48 05 1c 0d 01 00    	add    rax,0x10d1c
    1dd2:	8b 00                	mov    eax,DWORD PTR [rax]
    1dd4:	29 c2                	sub    edx,eax
    1dd6:	89 d0                	mov    eax,edx
    1dd8:	89 45 e4             	mov    DWORD PTR [rbp-0x1c],eax
/media/WD3tbUSB3_00/CODE/cpp/__S/workspace/Quake3e/code/server/sv_main.c:1069
			count++;
    1ddb:	83 45 f0 01          	add    DWORD PTR [rbp-0x10],0x1
/media/WD3tbUSB3_00/CODE/cpp/__S/workspace/Quake3e/code/server/sv_main.c:1070
			total += delta;
    1ddf:	8b 45 e4             	mov    eax,DWORD PTR [rbp-0x1c]
    1de2:	01 45 f4             	add    DWORD PTR [rbp-0xc],eax
    1de5:	eb 01                	jmp    1de8 <SV_CalcPings+0x111>
/media/WD3tbUSB3_00/CODE/cpp/__S/workspace/Quake3e/code/server/sv_main.c:1066
				continue;
    1de7:	90                   	nop
/media/WD3tbUSB3_00/CODE/cpp/__S/workspace/Quake3e/code/server/sv_main.c:1064 (discriminator 2)
		for ( j = 0 ; j < PACKET_BACKUP ; j++ ) {
    1de8:	83 45 f8 01          	add    DWORD PTR [rbp-0x8],0x1
/media/WD3tbUSB3_00/CODE/cpp/__S/workspace/Quake3e/code/server/sv_main.c:1064 (discriminator 1)
    1dec:	83 7d f8 1f          	cmp    DWORD PTR [rbp-0x8],0x1f
    1df0:	7e 8d                	jle    1d7f <SV_CalcPings+0xa8>
/media/WD3tbUSB3_00/CODE/cpp/__S/workspace/Quake3e/code/server/sv_main.c:1072
		}
		if (!count) {
    1df2:	83 7d f0 00          	cmp    DWORD PTR [rbp-0x10],0x0
    1df6:	75 10                	jne    1e08 <SV_CalcPings+0x131>
/media/WD3tbUSB3_00/CODE/cpp/__S/workspace/Quake3e/code/server/sv_main.c:1073
			cl->ping = 999;
    1df8:	48 8b 45 e8          	mov    rax,QWORD PTR [rbp-0x18]
    1dfc:	c7 80 20 4d 02 00 e7 	mov    DWORD PTR [rax+0x24d20],0x3e7
    1e03:	03 00 00 
    1e06:	eb 32                	jmp    1e3a <SV_CalcPings+0x163>
/media/WD3tbUSB3_00/CODE/cpp/__S/workspace/Quake3e/code/server/sv_main.c:1075
		} else {
			cl->ping = total/count;
    1e08:	8b 45 f4             	mov    eax,DWORD PTR [rbp-0xc]
    1e0b:	99                   	cdq    
    1e0c:	f7 7d f0             	idiv   DWORD PTR [rbp-0x10]
    1e0f:	89 c2                	mov    edx,eax
    1e11:	48 8b 45 e8          	mov    rax,QWORD PTR [rbp-0x18]
    1e15:	89 90 20 4d 02 00    	mov    DWORD PTR [rax+0x24d20],edx
/media/WD3tbUSB3_00/CODE/cpp/__S/workspace/Quake3e/code/server/sv_main.c:1076
			if ( cl->ping > 999 ) {
    1e1b:	48 8b 45 e8          	mov    rax,QWORD PTR [rbp-0x18]
    1e1f:	8b 80 20 4d 02 00    	mov    eax,DWORD PTR [rax+0x24d20]
    1e25:	3d e7 03 00 00       	cmp    eax,0x3e7
    1e2a:	7e 0e                	jle    1e3a <SV_CalcPings+0x163>
/media/WD3tbUSB3_00/CODE/cpp/__S/workspace/Quake3e/code/server/sv_main.c:1077
				cl->ping = 999;
    1e2c:	48 8b 45 e8          	mov    rax,QWORD PTR [rbp-0x18]
    1e30:	c7 80 20 4d 02 00 e7 	mov    DWORD PTR [rax+0x24d20],0x3e7
    1e37:	03 00 00 
/media/WD3tbUSB3_00/CODE/cpp/__S/workspace/Quake3e/code/server/sv_main.c:1082
			}
		}

		// let the game dll know about the ping
		ps = SV_GameClientNum( i );
    1e3a:	8b 45 fc             	mov    eax,DWORD PTR [rbp-0x4]
    1e3d:	89 c7                	mov    edi,eax
    1e3f:	e8 00 00 00 00       	call   1e44 <SV_CalcPings+0x16d>
    1e44:	48 89 45 d8          	mov    QWORD PTR [rbp-0x28],rax
/media/WD3tbUSB3_00/CODE/cpp/__S/workspace/Quake3e/code/server/sv_main.c:1083
		ps->ping = cl->ping;
    1e48:	48 8b 45 e8          	mov    rax,QWORD PTR [rbp-0x18]
    1e4c:	8b 90 20 4d 02 00    	mov    edx,DWORD PTR [rax+0x24d20]
    1e52:	48 8b 45 d8          	mov    rax,QWORD PTR [rbp-0x28]
    1e56:	89 90 c4 01 00 00    	mov    DWORD PTR [rax+0x1c4],edx
/media/WD3tbUSB3_00/CODE/cpp/__S/workspace/Quake3e/code/server/sv_main.c:1047 (discriminator 2)
	for (i=0 ; i < sv_maxclients->integer ; i++) {
    1e5c:	83 45 fc 01          	add    DWORD PTR [rbp-0x4],0x1
/media/WD3tbUSB3_00/CODE/cpp/__S/workspace/Quake3e/code/server/sv_main.c:1047 (discriminator 1)
    1e60:	48 8b 05 00 00 00 00 	mov    rax,QWORD PTR [rip+0x0]        # 1e67 <SV_CalcPings+0x190>
    1e67:	8b 40 30             	mov    eax,DWORD PTR [rax+0x30]
    1e6a:	39 45 fc             	cmp    DWORD PTR [rbp-0x4],eax
    1e6d:	0f 8c 78 fe ff ff    	jl     1ceb <SV_CalcPings+0x14>
/media/WD3tbUSB3_00/CODE/cpp/__S/workspace/Quake3e/code/server/sv_main.c:1085
	}
}
    1e73:	90                   	nop
    1e74:	c9                   	leave  
    1e75:	c3                   	ret    

0000000000001e76 <SV_CheckTimeouts>:
SV_CheckTimeouts():
/media/WD3tbUSB3_00/CODE/cpp/__S/workspace/Quake3e/code/server/sv_main.c:1100
When a client is normally dropped, the client_t goes into a zombie state
for a few seconds to make sure any final reliable message gets resent
if necessary
==================
*/
static void SV_CheckTimeouts( void ) {
    1e76:	55                   	push   rbp
    1e77:	48 89 e5             	mov    rbp,rsp
    1e7a:	48 83 ec 20          	sub    rsp,0x20
/media/WD3tbUSB3_00/CODE/cpp/__S/workspace/Quake3e/code/server/sv_main.c:1106
	int		i;
	client_t	*cl;
	int			droppoint;
	int			zombiepoint;

	droppoint = svs.time - 1000 * sv_timeout->integer;
    1e7e:	8b 15 00 00 00 00    	mov    edx,DWORD PTR [rip+0x0]        # 1e84 <SV_CheckTimeouts+0xe>
    1e84:	48 8b 05 00 00 00 00 	mov    rax,QWORD PTR [rip+0x0]        # 1e8b <SV_CheckTimeouts+0x15>
    1e8b:	8b 40 30             	mov    eax,DWORD PTR [rax+0x30]
    1e8e:	69 c0 18 fc ff ff    	imul   eax,eax,0xfffffc18
    1e94:	01 d0                	add    eax,edx
    1e96:	89 45 ec             	mov    DWORD PTR [rbp-0x14],eax
/media/WD3tbUSB3_00/CODE/cpp/__S/workspace/Quake3e/code/server/sv_main.c:1107
	zombiepoint = svs.time - 1000 * sv_zombietime->integer;
    1e99:	8b 15 00 00 00 00    	mov    edx,DWORD PTR [rip+0x0]        # 1e9f <SV_CheckTimeouts+0x29>
    1e9f:	48 8b 05 00 00 00 00 	mov    rax,QWORD PTR [rip+0x0]        # 1ea6 <SV_CheckTimeouts+0x30>
    1ea6:	8b 40 30             	mov    eax,DWORD PTR [rax+0x30]
    1ea9:	69 c0 18 fc ff ff    	imul   eax,eax,0xfffffc18
    1eaf:	01 d0                	add    eax,edx
    1eb1:	89 45 e8             	mov    DWORD PTR [rbp-0x18],eax
/media/WD3tbUSB3_00/CODE/cpp/__S/workspace/Quake3e/code/server/sv_main.c:1109

	for ( i = 0, cl = svs.clients ; i < sv_maxclients->integer ; i++, cl++ ) {
    1eb4:	c7 45 fc 00 00 00 00 	mov    DWORD PTR [rbp-0x4],0x0
    1ebb:	48 8b 05 00 00 00 00 	mov    rax,QWORD PTR [rip+0x0]        # 1ec2 <SV_CheckTimeouts+0x4c>
    1ec2:	48 89 45 f0          	mov    QWORD PTR [rbp-0x10],rax
    1ec6:	e9 57 01 00 00       	jmp    2022 <SV_CheckTimeouts+0x1ac>
/media/WD3tbUSB3_00/CODE/cpp/__S/workspace/Quake3e/code/server/sv_main.c:1110
		if ( cl->state == CS_FREE ) {
    1ecb:	48 8b 45 f0          	mov    rax,QWORD PTR [rbp-0x10]
    1ecf:	8b 00                	mov    eax,DWORD PTR [rax]
    1ed1:	85 c0                	test   eax,eax
    1ed3:	0f 84 3c 01 00 00    	je     2015 <SV_CheckTimeouts+0x19f>
/media/WD3tbUSB3_00/CODE/cpp/__S/workspace/Quake3e/code/server/sv_main.c:1114
			continue;
		}
		// message times may be wrong across a changelevel
		if ( cl->lastPacketTime - svs.time > 0 ) {
    1ed9:	48 8b 45 f0          	mov    rax,QWORD PTR [rbp-0x10]
    1edd:	8b 90 04 0b 01 00    	mov    edx,DWORD PTR [rax+0x10b04]
    1ee3:	8b 05 00 00 00 00    	mov    eax,DWORD PTR [rip+0x0]        # 1ee9 <SV_CheckTimeouts+0x73>
    1ee9:	29 c2                	sub    edx,eax
    1eeb:	89 d0                	mov    eax,edx
    1eed:	85 c0                	test   eax,eax
    1eef:	7e 10                	jle    1f01 <SV_CheckTimeouts+0x8b>
/media/WD3tbUSB3_00/CODE/cpp/__S/workspace/Quake3e/code/server/sv_main.c:1115
			cl->lastPacketTime = svs.time;
    1ef1:	8b 15 00 00 00 00    	mov    edx,DWORD PTR [rip+0x0]        # 1ef7 <SV_CheckTimeouts+0x81>
    1ef7:	48 8b 45 f0          	mov    rax,QWORD PTR [rbp-0x10]
    1efb:	89 90 04 0b 01 00    	mov    DWORD PTR [rax+0x10b04],edx
/media/WD3tbUSB3_00/CODE/cpp/__S/workspace/Quake3e/code/server/sv_main.c:1118
		}

		if ( cl->state == CS_ZOMBIE && cl->lastPacketTime - zombiepoint < 0 ) {
    1f01:	48 8b 45 f0          	mov    rax,QWORD PTR [rbp-0x10]
    1f05:	8b 00                	mov    eax,DWORD PTR [rax]
    1f07:	83 f8 01             	cmp    eax,0x1
    1f0a:	75 36                	jne    1f42 <SV_CheckTimeouts+0xcc>
/media/WD3tbUSB3_00/CODE/cpp/__S/workspace/Quake3e/code/server/sv_main.c:1118 (discriminator 1)
    1f0c:	48 8b 45 f0          	mov    rax,QWORD PTR [rbp-0x10]
    1f10:	8b 80 04 0b 01 00    	mov    eax,DWORD PTR [rax+0x10b04]
    1f16:	2b 45 e8             	sub    eax,DWORD PTR [rbp-0x18]
    1f19:	85 c0                	test   eax,eax
    1f1b:	79 25                	jns    1f42 <SV_CheckTimeouts+0xcc>
/media/WD3tbUSB3_00/CODE/cpp/__S/workspace/Quake3e/code/server/sv_main.c:1120
			// using the client id cause the cl->name is empty at this point
			Com_DPrintf( "Going from CS_ZOMBIE to CS_FREE for client %d\n", i );
    1f1d:	8b 45 fc             	mov    eax,DWORD PTR [rbp-0x4]
    1f20:	89 c6                	mov    esi,eax
    1f22:	48 8d 3d 00 00 00 00 	lea    rdi,[rip+0x0]        # 1f29 <SV_CheckTimeouts+0xb3>
    1f29:	b8 00 00 00 00       	mov    eax,0x0
    1f2e:	e8 00 00 00 00       	call   1f33 <SV_CheckTimeouts+0xbd>
/media/WD3tbUSB3_00/CODE/cpp/__S/workspace/Quake3e/code/server/sv_main.c:1121
			cl->state = CS_FREE;	// can now be reused
    1f33:	48 8b 45 f0          	mov    rax,QWORD PTR [rbp-0x10]
    1f37:	c7 00 00 00 00 00    	mov    DWORD PTR [rax],0x0
/media/WD3tbUSB3_00/CODE/cpp/__S/workspace/Quake3e/code/server/sv_main.c:1122
			continue;
    1f3d:	e9 d4 00 00 00       	jmp    2016 <SV_CheckTimeouts+0x1a0>
/media/WD3tbUSB3_00/CODE/cpp/__S/workspace/Quake3e/code/server/sv_main.c:1124
		}
		if ( cl->justConnected && svs.time - cl->lastPacketTime > 4000 ) {
    1f42:	48 8b 45 f0          	mov    rax,QWORD PTR [rbp-0x10]
    1f46:	8b 80 cc dd 02 00    	mov    eax,DWORD PTR [rax+0x2ddcc]
    1f4c:	85 c0                	test   eax,eax
    1f4e:	74 54                	je     1fa4 <SV_CheckTimeouts+0x12e>
/media/WD3tbUSB3_00/CODE/cpp/__S/workspace/Quake3e/code/server/sv_main.c:1124 (discriminator 1)
    1f50:	8b 15 00 00 00 00    	mov    edx,DWORD PTR [rip+0x0]        # 1f56 <SV_CheckTimeouts+0xe0>
    1f56:	48 8b 45 f0          	mov    rax,QWORD PTR [rbp-0x10]
    1f5a:	8b 80 04 0b 01 00    	mov    eax,DWORD PTR [rax+0x10b04]
    1f60:	29 c2                	sub    edx,eax
    1f62:	89 d0                	mov    eax,edx
    1f64:	3d a0 0f 00 00       	cmp    eax,0xfa0
    1f69:	7e 39                	jle    1fa4 <SV_CheckTimeouts+0x12e>
/media/WD3tbUSB3_00/CODE/cpp/__S/workspace/Quake3e/code/server/sv_main.c:1126
			// for real client 4 seconds is more than enough to respond
			SVC_RateDropAddress( &cl->netchan.remoteAddress, 10, 1000 ); // enforce burst with progressive multiplier
    1f6b:	48 8b 45 f0          	mov    rax,QWORD PTR [rbp-0x10]
    1f6f:	48 05 40 4d 02 00    	add    rax,0x24d40
    1f75:	ba e8 03 00 00       	mov    edx,0x3e8
    1f7a:	be 0a 00 00 00       	mov    esi,0xa
    1f7f:	48 89 c7             	mov    rdi,rax
    1f82:	e8 00 00 00 00       	call   1f87 <SV_CheckTimeouts+0x111>
/media/WD3tbUSB3_00/CODE/cpp/__S/workspace/Quake3e/code/server/sv_main.c:1127
			SV_DropClient( cl, NULL ); // drop silently
    1f87:	48 8b 45 f0          	mov    rax,QWORD PTR [rbp-0x10]
    1f8b:	be 00 00 00 00       	mov    esi,0x0
    1f90:	48 89 c7             	mov    rdi,rax
    1f93:	e8 00 00 00 00       	call   1f98 <SV_CheckTimeouts+0x122>
/media/WD3tbUSB3_00/CODE/cpp/__S/workspace/Quake3e/code/server/sv_main.c:1128
			cl->state = CS_FREE;
    1f98:	48 8b 45 f0          	mov    rax,QWORD PTR [rbp-0x10]
    1f9c:	c7 00 00 00 00 00    	mov    DWORD PTR [rax],0x0
/media/WD3tbUSB3_00/CODE/cpp/__S/workspace/Quake3e/code/server/sv_main.c:1129
			continue;
    1fa2:	eb 72                	jmp    2016 <SV_CheckTimeouts+0x1a0>
/media/WD3tbUSB3_00/CODE/cpp/__S/workspace/Quake3e/code/server/sv_main.c:1131
		}
		if ( cl->state >= CS_CONNECTED && cl->lastPacketTime - droppoint < 0 ) {
    1fa4:	48 8b 45 f0          	mov    rax,QWORD PTR [rbp-0x10]
    1fa8:	8b 00                	mov    eax,DWORD PTR [rax]
    1faa:	83 f8 01             	cmp    eax,0x1
    1fad:	76 56                	jbe    2005 <SV_CheckTimeouts+0x18f>
/media/WD3tbUSB3_00/CODE/cpp/__S/workspace/Quake3e/code/server/sv_main.c:1131 (discriminator 1)
    1faf:	48 8b 45 f0          	mov    rax,QWORD PTR [rbp-0x10]
    1fb3:	8b 80 04 0b 01 00    	mov    eax,DWORD PTR [rax+0x10b04]
    1fb9:	2b 45 ec             	sub    eax,DWORD PTR [rbp-0x14]
    1fbc:	85 c0                	test   eax,eax
    1fbe:	79 45                	jns    2005 <SV_CheckTimeouts+0x18f>
/media/WD3tbUSB3_00/CODE/cpp/__S/workspace/Quake3e/code/server/sv_main.c:1134
			// wait several frames so a debugger session doesn't
			// cause a timeout
			if ( ++cl->timeoutCount > 5 ) {
    1fc0:	48 8b 45 f0          	mov    rax,QWORD PTR [rbp-0x10]
    1fc4:	8b 80 18 0b 01 00    	mov    eax,DWORD PTR [rax+0x10b18]
    1fca:	8d 50 01             	lea    edx,[rax+0x1]
    1fcd:	48 8b 45 f0          	mov    rax,QWORD PTR [rbp-0x10]
    1fd1:	89 90 18 0b 01 00    	mov    DWORD PTR [rax+0x10b18],edx
    1fd7:	48 8b 45 f0          	mov    rax,QWORD PTR [rbp-0x10]
    1fdb:	8b 80 18 0b 01 00    	mov    eax,DWORD PTR [rax+0x10b18]
    1fe1:	83 f8 05             	cmp    eax,0x5
    1fe4:	7e 30                	jle    2016 <SV_CheckTimeouts+0x1a0>
/media/WD3tbUSB3_00/CODE/cpp/__S/workspace/Quake3e/code/server/sv_main.c:1135
				SV_DropClient( cl, "timed out" );
    1fe6:	48 8b 45 f0          	mov    rax,QWORD PTR [rbp-0x10]
    1fea:	48 8d 35 00 00 00 00 	lea    rsi,[rip+0x0]        # 1ff1 <SV_CheckTimeouts+0x17b>
    1ff1:	48 89 c7             	mov    rdi,rax
    1ff4:	e8 00 00 00 00       	call   1ff9 <SV_CheckTimeouts+0x183>
/media/WD3tbUSB3_00/CODE/cpp/__S/workspace/Quake3e/code/server/sv_main.c:1136
				cl->state = CS_FREE;	// don't bother with zombie state
    1ff9:	48 8b 45 f0          	mov    rax,QWORD PTR [rbp-0x10]
    1ffd:	c7 00 00 00 00 00    	mov    DWORD PTR [rax],0x0
/media/WD3tbUSB3_00/CODE/cpp/__S/workspace/Quake3e/code/server/sv_main.c:1134
			if ( ++cl->timeoutCount > 5 ) {
    2003:	eb 11                	jmp    2016 <SV_CheckTimeouts+0x1a0>
/media/WD3tbUSB3_00/CODE/cpp/__S/workspace/Quake3e/code/server/sv_main.c:1139
			}
		} else {
			cl->timeoutCount = 0;
    2005:	48 8b 45 f0          	mov    rax,QWORD PTR [rbp-0x10]
    2009:	c7 80 18 0b 01 00 00 	mov    DWORD PTR [rax+0x10b18],0x0
    2010:	00 00 00 
    2013:	eb 01                	jmp    2016 <SV_CheckTimeouts+0x1a0>
/media/WD3tbUSB3_00/CODE/cpp/__S/workspace/Quake3e/code/server/sv_main.c:1111
			continue;
    2015:	90                   	nop
/media/WD3tbUSB3_00/CODE/cpp/__S/workspace/Quake3e/code/server/sv_main.c:1109 (discriminator 2)
	for ( i = 0, cl = svs.clients ; i < sv_maxclients->integer ; i++, cl++ ) {
    2016:	83 45 fc 01          	add    DWORD PTR [rbp-0x4],0x1
    201a:	48 81 45 f0 e0 dd 02 	add    QWORD PTR [rbp-0x10],0x2dde0
    2021:	00 
/media/WD3tbUSB3_00/CODE/cpp/__S/workspace/Quake3e/code/server/sv_main.c:1109 (discriminator 1)
    2022:	48 8b 05 00 00 00 00 	mov    rax,QWORD PTR [rip+0x0]        # 2029 <SV_CheckTimeouts+0x1b3>
    2029:	8b 40 30             	mov    eax,DWORD PTR [rax+0x30]
    202c:	39 45 fc             	cmp    DWORD PTR [rbp-0x4],eax
    202f:	0f 8c 96 fe ff ff    	jl     1ecb <SV_CheckTimeouts+0x55>
/media/WD3tbUSB3_00/CODE/cpp/__S/workspace/Quake3e/code/server/sv_main.c:1142
		}
	}
}
    2035:	90                   	nop
    2036:	c9                   	leave  
    2037:	c3                   	ret    

0000000000002038 <SV_CheckPaused>:
SV_CheckPaused():
/media/WD3tbUSB3_00/CODE/cpp/__S/workspace/Quake3e/code/server/sv_main.c:1150
/*
==================
SV_CheckPaused
==================
*/
static qboolean SV_CheckPaused( void ) {
    2038:	55                   	push   rbp
    2039:	48 89 e5             	mov    rbp,rsp
/media/WD3tbUSB3_00/CODE/cpp/__S/workspace/Quake3e/code/server/sv_main.c:1154

#ifdef DEDICATED
	// can't pause on dedicated servers
	return qfalse;
    203c:	b8 00 00 00 00       	mov    eax,0x0
/media/WD3tbUSB3_00/CODE/cpp/__S/workspace/Quake3e/code/server/sv_main.c:1184
	if (!sv_paused->integer)
		Cvar_Set("sv_paused", "1");

	return qtrue;
#endif // !DEDICATED
}
    2041:	5d                   	pop    rbp
    2042:	c3                   	ret    

0000000000002043 <SV_FrameMsec>:
SV_FrameMsec():
/media/WD3tbUSB3_00/CODE/cpp/__S/workspace/Quake3e/code/server/sv_main.c:1194
SV_FrameMsec
Return time in millseconds until processing of the next server frame.
==================
*/
int SV_FrameMsec( void )
{
    2043:	55                   	push   rbp
    2044:	48 89 e5             	mov    rbp,rsp
/media/WD3tbUSB3_00/CODE/cpp/__S/workspace/Quake3e/code/server/sv_main.c:1195
	if ( sv_fps )
    2047:	48 8b 05 00 00 00 00 	mov    rax,QWORD PTR [rip+0x0]        # 204e <SV_FrameMsec+0xb>
    204e:	48 85 c0             	test   rax,rax
    2051:	74 40                	je     2093 <SV_FrameMsec+0x50>
/media/WD3tbUSB3_00/CODE/cpp/__S/workspace/Quake3e/code/server/sv_main.c:1199
	{
		int frameMsec;
		
		frameMsec = 1000.0f / sv_fps->value;
    2053:	48 8b 05 00 00 00 00 	mov    rax,QWORD PTR [rip+0x0]        # 205a <SV_FrameMsec+0x17>
    205a:	f3 0f 10 48 2c       	movss  xmm1,DWORD PTR [rax+0x2c]
    205f:	f3 0f 10 05 00 00 00 	movss  xmm0,DWORD PTR [rip+0x0]        # 2067 <SV_FrameMsec+0x24>
    2066:	00 
    2067:	f3 0f 5e c1          	divss  xmm0,xmm1
    206b:	f3 0f 2c c0          	cvttss2si eax,xmm0
    206f:	89 45 fc             	mov    DWORD PTR [rbp-0x4],eax
/media/WD3tbUSB3_00/CODE/cpp/__S/workspace/Quake3e/code/server/sv_main.c:1201
		
		if ( frameMsec < sv.timeResidual )
    2072:	8b 05 00 00 00 00    	mov    eax,DWORD PTR [rip+0x0]        # 2078 <SV_FrameMsec+0x35>
    2078:	39 45 fc             	cmp    DWORD PTR [rbp-0x4],eax
    207b:	7d 07                	jge    2084 <SV_FrameMsec+0x41>
/media/WD3tbUSB3_00/CODE/cpp/__S/workspace/Quake3e/code/server/sv_main.c:1202
			return 0;
    207d:	b8 00 00 00 00       	mov    eax,0x0
    2082:	eb 14                	jmp    2098 <SV_FrameMsec+0x55>
/media/WD3tbUSB3_00/CODE/cpp/__S/workspace/Quake3e/code/server/sv_main.c:1204
		else
			return frameMsec - sv.timeResidual;
    2084:	8b 05 00 00 00 00    	mov    eax,DWORD PTR [rip+0x0]        # 208a <SV_FrameMsec+0x47>
    208a:	8b 55 fc             	mov    edx,DWORD PTR [rbp-0x4]
    208d:	29 c2                	sub    edx,eax
    208f:	89 d0                	mov    eax,edx
    2091:	eb 05                	jmp    2098 <SV_FrameMsec+0x55>
/media/WD3tbUSB3_00/CODE/cpp/__S/workspace/Quake3e/code/server/sv_main.c:1207
	}
	else
		return 1;
    2093:	b8 01 00 00 00       	mov    eax,0x1
/media/WD3tbUSB3_00/CODE/cpp/__S/workspace/Quake3e/code/server/sv_main.c:1208
}
    2098:	5d                   	pop    rbp
    2099:	c3                   	ret    

000000000000209a <SV_TrackCvarChanges>:
SV_TrackCvarChanges():
/media/WD3tbUSB3_00/CODE/cpp/__S/workspace/Quake3e/code/server/sv_main.c:1217
==================
SV_TrackCvarChanges
==================
*/
void SV_TrackCvarChanges( void )
{
    209a:	55                   	push   rbp
    209b:	48 89 e5             	mov    rbp,rsp
    209e:	48 83 ec 10          	sub    rsp,0x10
/media/WD3tbUSB3_00/CODE/cpp/__S/workspace/Quake3e/code/server/sv_main.c:1221
	client_t *cl;
	int i;

	if ( sv_maxRate->integer && sv_maxRate->integer < 1000 ) {
    20a2:	48 8b 05 00 00 00 00 	mov    rax,QWORD PTR [rip+0x0]        # 20a9 <SV_TrackCvarChanges+0xf>
    20a9:	8b 40 30             	mov    eax,DWORD PTR [rax+0x30]
    20ac:	85 c0                	test   eax,eax
    20ae:	74 35                	je     20e5 <SV_TrackCvarChanges+0x4b>
/media/WD3tbUSB3_00/CODE/cpp/__S/workspace/Quake3e/code/server/sv_main.c:1221 (discriminator 1)
    20b0:	48 8b 05 00 00 00 00 	mov    rax,QWORD PTR [rip+0x0]        # 20b7 <SV_TrackCvarChanges+0x1d>
    20b7:	8b 40 30             	mov    eax,DWORD PTR [rax+0x30]
    20ba:	3d e7 03 00 00       	cmp    eax,0x3e7
    20bf:	7f 24                	jg     20e5 <SV_TrackCvarChanges+0x4b>
/media/WD3tbUSB3_00/CODE/cpp/__S/workspace/Quake3e/code/server/sv_main.c:1222
		Cvar_Set( "sv_maxRate", "1000" );
    20c1:	48 8d 35 00 00 00 00 	lea    rsi,[rip+0x0]        # 20c8 <SV_TrackCvarChanges+0x2e>
    20c8:	48 8d 3d 00 00 00 00 	lea    rdi,[rip+0x0]        # 20cf <SV_TrackCvarChanges+0x35>
    20cf:	e8 00 00 00 00       	call   20d4 <SV_TrackCvarChanges+0x3a>
/media/WD3tbUSB3_00/CODE/cpp/__S/workspace/Quake3e/code/server/sv_main.c:1223
		Com_DPrintf( "sv_maxRate adjusted to 1000\n" );
    20d4:	48 8d 3d 00 00 00 00 	lea    rdi,[rip+0x0]        # 20db <SV_TrackCvarChanges+0x41>
    20db:	b8 00 00 00 00       	mov    eax,0x0
    20e0:	e8 00 00 00 00       	call   20e5 <SV_TrackCvarChanges+0x4b>
/media/WD3tbUSB3_00/CODE/cpp/__S/workspace/Quake3e/code/server/sv_main.c:1226
	}

	if ( sv_minRate->integer && sv_minRate->integer < 1000 ) {
    20e5:	48 8b 05 00 00 00 00 	mov    rax,QWORD PTR [rip+0x0]        # 20ec <SV_TrackCvarChanges+0x52>
    20ec:	8b 40 30             	mov    eax,DWORD PTR [rax+0x30]
    20ef:	85 c0                	test   eax,eax
    20f1:	74 35                	je     2128 <SV_TrackCvarChanges+0x8e>
/media/WD3tbUSB3_00/CODE/cpp/__S/workspace/Quake3e/code/server/sv_main.c:1226 (discriminator 1)
    20f3:	48 8b 05 00 00 00 00 	mov    rax,QWORD PTR [rip+0x0]        # 20fa <SV_TrackCvarChanges+0x60>
    20fa:	8b 40 30             	mov    eax,DWORD PTR [rax+0x30]
    20fd:	3d e7 03 00 00       	cmp    eax,0x3e7
    2102:	7f 24                	jg     2128 <SV_TrackCvarChanges+0x8e>
/media/WD3tbUSB3_00/CODE/cpp/__S/workspace/Quake3e/code/server/sv_main.c:1227
		Cvar_Set( "sv_minRate", "1000" );
    2104:	48 8d 35 00 00 00 00 	lea    rsi,[rip+0x0]        # 210b <SV_TrackCvarChanges+0x71>
    210b:	48 8d 3d 00 00 00 00 	lea    rdi,[rip+0x0]        # 2112 <SV_TrackCvarChanges+0x78>
    2112:	e8 00 00 00 00       	call   2117 <SV_TrackCvarChanges+0x7d>
/media/WD3tbUSB3_00/CODE/cpp/__S/workspace/Quake3e/code/server/sv_main.c:1228
		Com_DPrintf( "sv_minRate adjusted to 1000\n" );
    2117:	48 8d 3d 00 00 00 00 	lea    rdi,[rip+0x0]        # 211e <SV_TrackCvarChanges+0x84>
    211e:	b8 00 00 00 00       	mov    eax,0x0
    2123:	e8 00 00 00 00       	call   2128 <SV_TrackCvarChanges+0x8e>
/media/WD3tbUSB3_00/CODE/cpp/__S/workspace/Quake3e/code/server/sv_main.c:1231
	}

	Cvar_ResetGroup( CVG_SERVER, qfalse );
    2128:	be 00 00 00 00       	mov    esi,0x0
    212d:	bf 02 00 00 00       	mov    edi,0x2
    2132:	e8 00 00 00 00       	call   2137 <SV_TrackCvarChanges+0x9d>
/media/WD3tbUSB3_00/CODE/cpp/__S/workspace/Quake3e/code/server/sv_main.c:1233

	if ( sv.state == SS_DEAD || !svs.clients )
    2137:	8b 05 00 00 00 00    	mov    eax,DWORD PTR [rip+0x0]        # 213d <SV_TrackCvarChanges+0xa3>
    213d:	85 c0                	test   eax,eax
    213f:	74 5e                	je     219f <SV_TrackCvarChanges+0x105>
/media/WD3tbUSB3_00/CODE/cpp/__S/workspace/Quake3e/code/server/sv_main.c:1233 (discriminator 1)
    2141:	48 8b 05 00 00 00 00 	mov    rax,QWORD PTR [rip+0x0]        # 2148 <SV_TrackCvarChanges+0xae>
    2148:	48 85 c0             	test   rax,rax
    214b:	74 52                	je     219f <SV_TrackCvarChanges+0x105>
/media/WD3tbUSB3_00/CODE/cpp/__S/workspace/Quake3e/code/server/sv_main.c:1236
		return;

	for ( i = 0, cl = svs.clients; i < sv_maxclients->integer; i++, cl++ ) {
    214d:	c7 45 f4 00 00 00 00 	mov    DWORD PTR [rbp-0xc],0x0
    2154:	48 8b 05 00 00 00 00 	mov    rax,QWORD PTR [rip+0x0]        # 215b <SV_TrackCvarChanges+0xc1>
    215b:	48 89 45 f8          	mov    QWORD PTR [rbp-0x8],rax
    215f:	eb 2d                	jmp    218e <SV_TrackCvarChanges+0xf4>
/media/WD3tbUSB3_00/CODE/cpp/__S/workspace/Quake3e/code/server/sv_main.c:1237
		if ( cl->state >= CS_CONNECTED ) {
    2161:	48 8b 45 f8          	mov    rax,QWORD PTR [rbp-0x8]
    2165:	8b 00                	mov    eax,DWORD PTR [rax]
    2167:	83 f8 01             	cmp    eax,0x1
    216a:	76 16                	jbe    2182 <SV_TrackCvarChanges+0xe8>
/media/WD3tbUSB3_00/CODE/cpp/__S/workspace/Quake3e/code/server/sv_main.c:1238
			SV_UserinfoChanged( cl, qfalse, qfalse ); // do not update userinfo, do not run filter
    216c:	48 8b 45 f8          	mov    rax,QWORD PTR [rbp-0x8]
    2170:	ba 00 00 00 00       	mov    edx,0x0
    2175:	be 00 00 00 00       	mov    esi,0x0
    217a:	48 89 c7             	mov    rdi,rax
    217d:	e8 00 00 00 00       	call   2182 <SV_TrackCvarChanges+0xe8>
/media/WD3tbUSB3_00/CODE/cpp/__S/workspace/Quake3e/code/server/sv_main.c:1236 (discriminator 2)
	for ( i = 0, cl = svs.clients; i < sv_maxclients->integer; i++, cl++ ) {
    2182:	83 45 f4 01          	add    DWORD PTR [rbp-0xc],0x1
    2186:	48 81 45 f8 e0 dd 02 	add    QWORD PTR [rbp-0x8],0x2dde0
    218d:	00 
/media/WD3tbUSB3_00/CODE/cpp/__S/workspace/Quake3e/code/server/sv_main.c:1236 (discriminator 1)
    218e:	48 8b 05 00 00 00 00 	mov    rax,QWORD PTR [rip+0x0]        # 2195 <SV_TrackCvarChanges+0xfb>
    2195:	8b 40 30             	mov    eax,DWORD PTR [rax+0x30]
    2198:	39 45 f4             	cmp    DWORD PTR [rbp-0xc],eax
    219b:	7c c4                	jl     2161 <SV_TrackCvarChanges+0xc7>
    219d:	eb 01                	jmp    21a0 <SV_TrackCvarChanges+0x106>
/media/WD3tbUSB3_00/CODE/cpp/__S/workspace/Quake3e/code/server/sv_main.c:1234
		return;
    219f:	90                   	nop
/media/WD3tbUSB3_00/CODE/cpp/__S/workspace/Quake3e/code/server/sv_main.c:1241
		}
	}
}
    21a0:	c9                   	leave  
    21a1:	c3                   	ret    

00000000000021a2 <SV_Restart>:
SV_Restart():
/media/WD3tbUSB3_00/CODE/cpp/__S/workspace/Quake3e/code/server/sv_main.c:1249
/*
==================
SV_Restart
==================
*/
static void SV_Restart( const char *reason ) {
    21a2:	55                   	push   rbp
    21a3:	48 89 e5             	mov    rbp,rsp
    21a6:	48 81 ec 20 01 00 00 	sub    rsp,0x120
    21ad:	48 89 bd e8 fe ff ff 	mov    QWORD PTR [rbp-0x118],rdi
/media/WD3tbUSB3_00/CODE/cpp/__S/workspace/Quake3e/code/server/sv_main.c:1250
	qboolean sv_shutdown = qfalse;
    21b4:	c7 45 fc 00 00 00 00 	mov    DWORD PTR [rbp-0x4],0x0
/media/WD3tbUSB3_00/CODE/cpp/__S/workspace/Quake3e/code/server/sv_main.c:1254
	char mapName[ MAX_CVAR_VALUE_STRING ];
	int i;

	if ( svs.clients ) {
    21bb:	48 8b 05 00 00 00 00 	mov    rax,QWORD PTR [rip+0x0]        # 21c2 <SV_Restart+0x20>
    21c2:	48 85 c0             	test   rax,rax
    21c5:	74 42                	je     2209 <SV_Restart+0x67>
/media/WD3tbUSB3_00/CODE/cpp/__S/workspace/Quake3e/code/server/sv_main.c:1256
		// check if we can reset map time without full server shutdown
		for ( i = 0; i < sv_maxclients->integer; i++ ) {
    21c7:	c7 45 f8 00 00 00 00 	mov    DWORD PTR [rbp-0x8],0x0
    21ce:	eb 2a                	jmp    21fa <SV_Restart+0x58>
/media/WD3tbUSB3_00/CODE/cpp/__S/workspace/Quake3e/code/server/sv_main.c:1257
			if ( svs.clients[i].state >= CS_CONNECTED ) {
    21d0:	48 8b 15 00 00 00 00 	mov    rdx,QWORD PTR [rip+0x0]        # 21d7 <SV_Restart+0x35>
    21d7:	8b 45 f8             	mov    eax,DWORD PTR [rbp-0x8]
    21da:	48 98                	cdqe   
    21dc:	48 69 c0 e0 dd 02 00 	imul   rax,rax,0x2dde0
    21e3:	48 01 d0             	add    rax,rdx
    21e6:	8b 00                	mov    eax,DWORD PTR [rax]
    21e8:	83 f8 01             	cmp    eax,0x1
    21eb:	76 09                	jbe    21f6 <SV_Restart+0x54>
/media/WD3tbUSB3_00/CODE/cpp/__S/workspace/Quake3e/code/server/sv_main.c:1258
				sv_shutdown = qtrue;
    21ed:	c7 45 fc 01 00 00 00 	mov    DWORD PTR [rbp-0x4],0x1
/media/WD3tbUSB3_00/CODE/cpp/__S/workspace/Quake3e/code/server/sv_main.c:1259
				break;
    21f4:	eb 13                	jmp    2209 <SV_Restart+0x67>
/media/WD3tbUSB3_00/CODE/cpp/__S/workspace/Quake3e/code/server/sv_main.c:1256 (discriminator 2)
		for ( i = 0; i < sv_maxclients->integer; i++ ) {
    21f6:	83 45 f8 01          	add    DWORD PTR [rbp-0x8],0x1
/media/WD3tbUSB3_00/CODE/cpp/__S/workspace/Quake3e/code/server/sv_main.c:1256 (discriminator 1)
    21fa:	48 8b 05 00 00 00 00 	mov    rax,QWORD PTR [rip+0x0]        # 2201 <SV_Restart+0x5f>
    2201:	8b 40 30             	mov    eax,DWORD PTR [rax+0x30]
    2204:	39 45 f8             	cmp    DWORD PTR [rbp-0x8],eax
    2207:	7c c7                	jl     21d0 <SV_Restart+0x2e>
/media/WD3tbUSB3_00/CODE/cpp/__S/workspace/Quake3e/code/server/sv_main.c:1264
			}
		}
	}

	sv.time = 0; // force level time reset
    2209:	c7 05 00 00 00 00 00 	mov    DWORD PTR [rip+0x0],0x0        # 2213 <SV_Restart+0x71>
    2210:	00 00 00 
/media/WD3tbUSB3_00/CODE/cpp/__S/workspace/Quake3e/code/server/sv_main.c:1265
	sv.restartTime = 0;
    2213:	c7 05 00 00 00 00 00 	mov    DWORD PTR [rip+0x0],0x0        # 221d <SV_Restart+0x7b>
    221a:	00 00 00 
/media/WD3tbUSB3_00/CODE/cpp/__S/workspace/Quake3e/code/server/sv_main.c:1267
	
	Cvar_VariableStringBuffer( "mapname", mapName, sizeof( mapName ) );
    221d:	48 8d 85 f0 fe ff ff 	lea    rax,[rbp-0x110]
    2224:	ba 00 01 00 00       	mov    edx,0x100
    2229:	48 89 c6             	mov    rsi,rax
    222c:	48 8d 3d 00 00 00 00 	lea    rdi,[rip+0x0]        # 2233 <SV_Restart+0x91>
    2233:	e8 00 00 00 00       	call   2238 <SV_Restart+0x96>
/media/WD3tbUSB3_00/CODE/cpp/__S/workspace/Quake3e/code/server/sv_main.c:1269
	
	if ( sv_shutdown ) {
    2238:	83 7d fc 00          	cmp    DWORD PTR [rbp-0x4],0x0
    223c:	74 0f                	je     224d <SV_Restart+0xab>
/media/WD3tbUSB3_00/CODE/cpp/__S/workspace/Quake3e/code/server/sv_main.c:1270
		SV_Shutdown( reason );
    223e:	48 8b 85 e8 fe ff ff 	mov    rax,QWORD PTR [rbp-0x118]
    2245:	48 89 c7             	mov    rdi,rax
    2248:	e8 00 00 00 00       	call   224d <SV_Restart+0xab>
/media/WD3tbUSB3_00/CODE/cpp/__S/workspace/Quake3e/code/server/sv_main.c:1273
	}

	Cbuf_AddText( va( "map %s\n", mapName ) );
    224d:	48 8d 85 f0 fe ff ff 	lea    rax,[rbp-0x110]
    2254:	48 89 c6             	mov    rsi,rax
    2257:	48 8d 3d 00 00 00 00 	lea    rdi,[rip+0x0]        # 225e <SV_Restart+0xbc>
    225e:	b8 00 00 00 00       	mov    eax,0x0
    2263:	e8 00 00 00 00       	call   2268 <SV_Restart+0xc6>
    2268:	48 89 c7             	mov    rdi,rax
    226b:	e8 00 00 00 00       	call   2270 <SV_Restart+0xce>
/media/WD3tbUSB3_00/CODE/cpp/__S/workspace/Quake3e/code/server/sv_main.c:1274
}
    2270:	90                   	nop
    2271:	c9                   	leave  
    2272:	c3                   	ret    

0000000000002273 <SV_Frame>:
SV_Frame():
/media/WD3tbUSB3_00/CODE/cpp/__S/workspace/Quake3e/code/server/sv_main.c:1285

Player movement occurs as a result of packet events, which
happen before SV_Frame is called
==================
*/
void SV_Frame( int msec ) {
    2273:	55                   	push   rbp
    2274:	48 89 e5             	mov    rbp,rsp
    2277:	48 83 ec 20          	sub    rsp,0x20
    227b:	89 7d ec             	mov    DWORD PTR [rbp-0x14],edi
/media/WD3tbUSB3_00/CODE/cpp/__S/workspace/Quake3e/code/server/sv_main.c:1290
	int		frameMsec;
	int		startTime;
	int		i;

	if ( Cvar_CheckGroup( CVG_SERVER ) )
    227e:	bf 02 00 00 00       	mov    edi,0x2
    2283:	e8 00 00 00 00       	call   2288 <SV_Frame+0x15>
    2288:	85 c0                	test   eax,eax
    228a:	74 05                	je     2291 <SV_Frame+0x1e>
/media/WD3tbUSB3_00/CODE/cpp/__S/workspace/Quake3e/code/server/sv_main.c:1291
		SV_TrackCvarChanges(); // update rate settings, etc.
    228c:	e8 00 00 00 00       	call   2291 <SV_Frame+0x1e>
/media/WD3tbUSB3_00/CODE/cpp/__S/workspace/Quake3e/code/server/sv_main.c:1294

	// the menu kills the server with this cvar
	if ( sv_killserver->integer ) {
    2291:	48 8b 05 00 00 00 00 	mov    rax,QWORD PTR [rip+0x0]        # 2298 <SV_Frame+0x25>
    2298:	8b 40 30             	mov    eax,DWORD PTR [rax+0x30]
    229b:	85 c0                	test   eax,eax
    229d:	74 24                	je     22c3 <SV_Frame+0x50>
/media/WD3tbUSB3_00/CODE/cpp/__S/workspace/Quake3e/code/server/sv_main.c:1295
		SV_Shutdown( "Server was killed" );
    229f:	48 8d 3d 00 00 00 00 	lea    rdi,[rip+0x0]        # 22a6 <SV_Frame+0x33>
    22a6:	e8 00 00 00 00       	call   22ab <SV_Frame+0x38>
/media/WD3tbUSB3_00/CODE/cpp/__S/workspace/Quake3e/code/server/sv_main.c:1296
		Cvar_Set( "sv_killserver", "0" );
    22ab:	48 8d 35 00 00 00 00 	lea    rsi,[rip+0x0]        # 22b2 <SV_Frame+0x3f>
    22b2:	48 8d 3d 00 00 00 00 	lea    rdi,[rip+0x0]        # 22b9 <SV_Frame+0x46>
    22b9:	e8 00 00 00 00       	call   22be <SV_Frame+0x4b>
/media/WD3tbUSB3_00/CODE/cpp/__S/workspace/Quake3e/code/server/sv_main.c:1297
		return;
    22be:	e9 66 03 00 00       	jmp    2629 <SV_Frame+0x3b6>
/media/WD3tbUSB3_00/CODE/cpp/__S/workspace/Quake3e/code/server/sv_main.c:1300
	}

	if ( !com_sv_running->integer )
    22c3:	48 8b 05 00 00 00 00 	mov    rax,QWORD PTR [rip+0x0]        # 22ca <SV_Frame+0x57>
    22ca:	8b 40 30             	mov    eax,DWORD PTR [rax+0x30]
    22cd:	85 c0                	test   eax,eax
    22cf:	75 21                	jne    22f2 <SV_Frame+0x7f>
/media/WD3tbUSB3_00/CODE/cpp/__S/workspace/Quake3e/code/server/sv_main.c:1302
	{
		if ( com_dedicated->integer )
    22d1:	48 8b 05 00 00 00 00 	mov    rax,QWORD PTR [rip+0x0]        # 22d8 <SV_Frame+0x65>
    22d8:	8b 40 30             	mov    eax,DWORD PTR [rax+0x30]
    22db:	85 c0                	test   eax,eax
    22dd:	0f 84 42 03 00 00    	je     2625 <SV_Frame+0x3b2>
/media/WD3tbUSB3_00/CODE/cpp/__S/workspace/Quake3e/code/server/sv_main.c:1306
		{
			// Block indefinitely until something interesting happens
			// on STDIN.
			Sys_Sleep( -1 );
    22e3:	bf ff ff ff ff       	mov    edi,0xffffffff
    22e8:	e8 00 00 00 00       	call   22ed <SV_Frame+0x7a>
/media/WD3tbUSB3_00/CODE/cpp/__S/workspace/Quake3e/code/server/sv_main.c:1308
		}
		return;
    22ed:	e9 33 03 00 00       	jmp    2625 <SV_Frame+0x3b2>
/media/WD3tbUSB3_00/CODE/cpp/__S/workspace/Quake3e/code/server/sv_main.c:1312
	}

	// allow pause if only the local client is connected
	if ( SV_CheckPaused() ) {
    22f2:	e8 41 fd ff ff       	call   2038 <SV_CheckPaused>
    22f7:	85 c0                	test   eax,eax
    22f9:	0f 85 29 03 00 00    	jne    2628 <SV_Frame+0x3b5>
/media/WD3tbUSB3_00/CODE/cpp/__S/workspace/Quake3e/code/server/sv_main.c:1318
		return;
	}

	// if it isn't time for the next frame, do nothing

	frameMsec = 1000 / sv_fps->integer * com_timescale->value;
    22ff:	48 8b 05 00 00 00 00 	mov    rax,QWORD PTR [rip+0x0]        # 2306 <SV_Frame+0x93>
    2306:	8b 48 30             	mov    ecx,DWORD PTR [rax+0x30]
    2309:	b8 e8 03 00 00       	mov    eax,0x3e8
    230e:	99                   	cdq    
    230f:	f7 f9                	idiv   ecx
    2311:	f3 0f 2a c8          	cvtsi2ss xmm1,eax
    2315:	48 8b 05 00 00 00 00 	mov    rax,QWORD PTR [rip+0x0]        # 231c <SV_Frame+0xa9>
    231c:	f3 0f 10 40 2c       	movss  xmm0,DWORD PTR [rax+0x2c]
    2321:	f3 0f 59 c1          	mulss  xmm0,xmm1
    2325:	f3 0f 2c c0          	cvttss2si eax,xmm0
    2329:	89 45 fc             	mov    DWORD PTR [rbp-0x4],eax
/media/WD3tbUSB3_00/CODE/cpp/__S/workspace/Quake3e/code/server/sv_main.c:1320
	// don't let it scale below 1ms
	if(frameMsec < 1)
    232c:	83 7d fc 00          	cmp    DWORD PTR [rbp-0x4],0x0
    2330:	7f 64                	jg     2396 <SV_Frame+0x123>
/media/WD3tbUSB3_00/CODE/cpp/__S/workspace/Quake3e/code/server/sv_main.c:1322
	{
		Cvar_Set( "timescale", va( "%f", sv_fps->value / 1000.0f ) );
    2332:	48 8b 05 00 00 00 00 	mov    rax,QWORD PTR [rip+0x0]        # 2339 <SV_Frame+0xc6>
    2339:	f3 0f 10 40 2c       	movss  xmm0,DWORD PTR [rax+0x2c]
    233e:	f3 0f 10 0d 00 00 00 	movss  xmm1,DWORD PTR [rip+0x0]        # 2346 <SV_Frame+0xd3>
    2345:	00 
    2346:	f3 0f 5e c1          	divss  xmm0,xmm1
    234a:	f3 0f 5a c0          	cvtss2sd xmm0,xmm0
    234e:	48 8d 3d 00 00 00 00 	lea    rdi,[rip+0x0]        # 2355 <SV_Frame+0xe2>
    2355:	b8 01 00 00 00       	mov    eax,0x1
    235a:	e8 00 00 00 00       	call   235f <SV_Frame+0xec>
    235f:	48 89 c6             	mov    rsi,rax
    2362:	48 8d 3d 00 00 00 00 	lea    rdi,[rip+0x0]        # 2369 <SV_Frame+0xf6>
    2369:	e8 00 00 00 00       	call   236e <SV_Frame+0xfb>
/media/WD3tbUSB3_00/CODE/cpp/__S/workspace/Quake3e/code/server/sv_main.c:1323
		Com_DPrintf( "timescale adjusted to %f\n", com_timescale->value );
    236e:	48 8b 05 00 00 00 00 	mov    rax,QWORD PTR [rip+0x0]        # 2375 <SV_Frame+0x102>
    2375:	f3 0f 10 40 2c       	movss  xmm0,DWORD PTR [rax+0x2c]
    237a:	f3 0f 5a c0          	cvtss2sd xmm0,xmm0
    237e:	48 8d 3d 00 00 00 00 	lea    rdi,[rip+0x0]        # 2385 <SV_Frame+0x112>
    2385:	b8 01 00 00 00       	mov    eax,0x1
    238a:	e8 00 00 00 00       	call   238f <SV_Frame+0x11c>
/media/WD3tbUSB3_00/CODE/cpp/__S/workspace/Quake3e/code/server/sv_main.c:1324
		frameMsec = 1;
    238f:	c7 45 fc 01 00 00 00 	mov    DWORD PTR [rbp-0x4],0x1
/media/WD3tbUSB3_00/CODE/cpp/__S/workspace/Quake3e/code/server/sv_main.c:1327
	}

	sv.timeResidual += msec;
    2396:	8b 15 00 00 00 00    	mov    edx,DWORD PTR [rip+0x0]        # 239c <SV_Frame+0x129>
    239c:	8b 45 ec             	mov    eax,DWORD PTR [rbp-0x14]
    239f:	01 d0                	add    eax,edx
    23a1:	89 05 00 00 00 00    	mov    DWORD PTR [rip+0x0],eax        # 23a7 <SV_Frame+0x134>
/media/WD3tbUSB3_00/CODE/cpp/__S/workspace/Quake3e/code/server/sv_main.c:1329

	if ( !com_dedicated->integer )
    23a7:	48 8b 05 00 00 00 00 	mov    rax,QWORD PTR [rip+0x0]        # 23ae <SV_Frame+0x13b>
    23ae:	8b 40 30             	mov    eax,DWORD PTR [rax+0x30]
    23b1:	85 c0                	test   eax,eax
    23b3:	75 15                	jne    23ca <SV_Frame+0x157>
/media/WD3tbUSB3_00/CODE/cpp/__S/workspace/Quake3e/code/server/sv_main.c:1330
		SV_BotFrame( sv.time + sv.timeResidual );
    23b5:	8b 15 00 00 00 00    	mov    edx,DWORD PTR [rip+0x0]        # 23bb <SV_Frame+0x148>
    23bb:	8b 05 00 00 00 00    	mov    eax,DWORD PTR [rip+0x0]        # 23c1 <SV_Frame+0x14e>
    23c1:	01 d0                	add    eax,edx
    23c3:	89 c7                	mov    edi,eax
    23c5:	e8 00 00 00 00       	call   23ca <SV_Frame+0x157>
/media/WD3tbUSB3_00/CODE/cpp/__S/workspace/Quake3e/code/server/sv_main.c:1336

	// if time is about to hit the 32nd bit, kick all clients
	// and clear sv.time, rather
	// than checking for negative time wraparound everywhere.
	// 2giga-milliseconds = 23 days, so it won't be too often
	if ( sv.time > 0x78000000 ) {
    23ca:	8b 05 00 00 00 00    	mov    eax,DWORD PTR [rip+0x0]        # 23d0 <SV_Frame+0x15d>
    23d0:	3d 00 00 00 78       	cmp    eax,0x78000000
    23d5:	7e 11                	jle    23e8 <SV_Frame+0x175>
/media/WD3tbUSB3_00/CODE/cpp/__S/workspace/Quake3e/code/server/sv_main.c:1337
		SV_Restart( "Restarting server due to time wrapping" );
    23d7:	48 8d 3d 00 00 00 00 	lea    rdi,[rip+0x0]        # 23de <SV_Frame+0x16b>
    23de:	e8 bf fd ff ff       	call   21a2 <SV_Restart>
/media/WD3tbUSB3_00/CODE/cpp/__S/workspace/Quake3e/code/server/sv_main.c:1338
		return;
    23e3:	e9 41 02 00 00       	jmp    2629 <SV_Frame+0x3b6>
/media/WD3tbUSB3_00/CODE/cpp/__S/workspace/Quake3e/code/server/sv_main.c:1342
	}

	// try to do silent restart earlier if possible
	if ( sv.time > (12*3600*1000) && ( sv_levelTimeReset->integer == 0 || sv.time > 0x40000000 ) ) {
    23e8:	8b 05 00 00 00 00    	mov    eax,DWORD PTR [rip+0x0]        # 23ee <SV_Frame+0x17b>
    23ee:	3d 00 2e 93 02       	cmp    eax,0x2932e00
    23f3:	0f 8e a7 00 00 00    	jle    24a0 <SV_Frame+0x22d>
/media/WD3tbUSB3_00/CODE/cpp/__S/workspace/Quake3e/code/server/sv_main.c:1342 (discriminator 1)
    23f9:	48 8b 05 00 00 00 00 	mov    rax,QWORD PTR [rip+0x0]        # 2400 <SV_Frame+0x18d>
    2400:	8b 40 30             	mov    eax,DWORD PTR [rax+0x30]
    2403:	85 c0                	test   eax,eax
    2405:	74 11                	je     2418 <SV_Frame+0x1a5>
/media/WD3tbUSB3_00/CODE/cpp/__S/workspace/Quake3e/code/server/sv_main.c:1342 (discriminator 2)
    2407:	8b 05 00 00 00 00    	mov    eax,DWORD PTR [rip+0x0]        # 240d <SV_Frame+0x19a>
    240d:	3d 00 00 00 40       	cmp    eax,0x40000000
    2412:	0f 8e 88 00 00 00    	jle    24a0 <SV_Frame+0x22d>
/media/WD3tbUSB3_00/CODE/cpp/__S/workspace/Quake3e/code/server/sv_main.c:1343
		if ( svs.clients ) {
    2418:	48 8b 05 00 00 00 00 	mov    rax,QWORD PTR [rip+0x0]        # 241f <SV_Frame+0x1ac>
    241f:	48 85 c0             	test   rax,rax
    2422:	74 7c                	je     24a0 <SV_Frame+0x22d>
/media/WD3tbUSB3_00/CODE/cpp/__S/workspace/Quake3e/code/server/sv_main.c:1344
			for ( i = 0; i < sv_maxclients->integer; i++ ) {
    2424:	c7 45 f4 00 00 00 00 	mov    DWORD PTR [rbp-0xc],0x0
    242b:	eb 41                	jmp    246e <SV_Frame+0x1fb>
/media/WD3tbUSB3_00/CODE/cpp/__S/workspace/Quake3e/code/server/sv_main.c:1346
				// FIXME: deal with bots (reconnect?)
				if ( svs.clients[i].state != CS_FREE && svs.clients[i].netchan.remoteAddress.type != NA_BOT ) {
    242d:	48 8b 15 00 00 00 00 	mov    rdx,QWORD PTR [rip+0x0]        # 2434 <SV_Frame+0x1c1>
    2434:	8b 45 f4             	mov    eax,DWORD PTR [rbp-0xc]
    2437:	48 98                	cdqe   
    2439:	48 69 c0 e0 dd 02 00 	imul   rax,rax,0x2dde0
    2440:	48 01 d0             	add    rax,rdx
    2443:	8b 00                	mov    eax,DWORD PTR [rax]
    2445:	85 c0                	test   eax,eax
    2447:	74 21                	je     246a <SV_Frame+0x1f7>
/media/WD3tbUSB3_00/CODE/cpp/__S/workspace/Quake3e/code/server/sv_main.c:1346 (discriminator 1)
    2449:	48 8b 15 00 00 00 00 	mov    rdx,QWORD PTR [rip+0x0]        # 2450 <SV_Frame+0x1dd>
    2450:	8b 45 f4             	mov    eax,DWORD PTR [rbp-0xc]
    2453:	48 98                	cdqe   
    2455:	48 69 c0 e0 dd 02 00 	imul   rax,rax,0x2dde0
    245c:	48 01 d0             	add    rax,rdx
    245f:	8b 80 40 4d 02 00    	mov    eax,DWORD PTR [rax+0x24d40]
    2465:	83 f8 01             	cmp    eax,0x1
    2468:	75 15                	jne    247f <SV_Frame+0x20c>
/media/WD3tbUSB3_00/CODE/cpp/__S/workspace/Quake3e/code/server/sv_main.c:1344 (discriminator 2)
			for ( i = 0; i < sv_maxclients->integer; i++ ) {
    246a:	83 45 f4 01          	add    DWORD PTR [rbp-0xc],0x1
/media/WD3tbUSB3_00/CODE/cpp/__S/workspace/Quake3e/code/server/sv_main.c:1344 (discriminator 1)
    246e:	48 8b 05 00 00 00 00 	mov    rax,QWORD PTR [rip+0x0]        # 2475 <SV_Frame+0x202>
    2475:	8b 40 30             	mov    eax,DWORD PTR [rax+0x30]
    2478:	39 45 f4             	cmp    DWORD PTR [rbp-0xc],eax
    247b:	7c b0                	jl     242d <SV_Frame+0x1ba>
    247d:	eb 01                	jmp    2480 <SV_Frame+0x20d>
/media/WD3tbUSB3_00/CODE/cpp/__S/workspace/Quake3e/code/server/sv_main.c:1347
					break;
    247f:	90                   	nop
/media/WD3tbUSB3_00/CODE/cpp/__S/workspace/Quake3e/code/server/sv_main.c:1350
				}
			}
			if ( i == sv_maxclients->integer ) {
    2480:	48 8b 05 00 00 00 00 	mov    rax,QWORD PTR [rip+0x0]        # 2487 <SV_Frame+0x214>
    2487:	8b 40 30             	mov    eax,DWORD PTR [rax+0x30]
    248a:	39 45 f4             	cmp    DWORD PTR [rbp-0xc],eax
    248d:	75 11                	jne    24a0 <SV_Frame+0x22d>
/media/WD3tbUSB3_00/CODE/cpp/__S/workspace/Quake3e/code/server/sv_main.c:1351
				SV_Restart( "Restarting server" );
    248f:	48 8d 3d 00 00 00 00 	lea    rdi,[rip+0x0]        # 2496 <SV_Frame+0x223>
    2496:	e8 07 fd ff ff       	call   21a2 <SV_Restart>
/media/WD3tbUSB3_00/CODE/cpp/__S/workspace/Quake3e/code/server/sv_main.c:1352
				return;
    249b:	e9 89 01 00 00       	jmp    2629 <SV_Frame+0x3b6>
/media/WD3tbUSB3_00/CODE/cpp/__S/workspace/Quake3e/code/server/sv_main.c:1357
			}
		}
	}

	if ( sv.restartTime && sv.time - sv.restartTime >= 0 ) {
    24a0:	8b 05 00 00 00 00    	mov    eax,DWORD PTR [rip+0x0]        # 24a6 <SV_Frame+0x233>
    24a6:	85 c0                	test   eax,eax
    24a8:	74 2f                	je     24d9 <SV_Frame+0x266>
/media/WD3tbUSB3_00/CODE/cpp/__S/workspace/Quake3e/code/server/sv_main.c:1357 (discriminator 1)
    24aa:	8b 15 00 00 00 00    	mov    edx,DWORD PTR [rip+0x0]        # 24b0 <SV_Frame+0x23d>
    24b0:	8b 05 00 00 00 00    	mov    eax,DWORD PTR [rip+0x0]        # 24b6 <SV_Frame+0x243>
    24b6:	29 c2                	sub    edx,eax
    24b8:	89 d0                	mov    eax,edx
    24ba:	85 c0                	test   eax,eax
    24bc:	78 1b                	js     24d9 <SV_Frame+0x266>
/media/WD3tbUSB3_00/CODE/cpp/__S/workspace/Quake3e/code/server/sv_main.c:1358
		sv.restartTime = 0;
    24be:	c7 05 00 00 00 00 00 	mov    DWORD PTR [rip+0x0],0x0        # 24c8 <SV_Frame+0x255>
    24c5:	00 00 00 
/media/WD3tbUSB3_00/CODE/cpp/__S/workspace/Quake3e/code/server/sv_main.c:1359
		Cbuf_AddText( "map_restart 0\n" );
    24c8:	48 8d 3d 00 00 00 00 	lea    rdi,[rip+0x0]        # 24cf <SV_Frame+0x25c>
    24cf:	e8 00 00 00 00       	call   24d4 <SV_Frame+0x261>
/media/WD3tbUSB3_00/CODE/cpp/__S/workspace/Quake3e/code/server/sv_main.c:1360
		return;
    24d4:	e9 50 01 00 00       	jmp    2629 <SV_Frame+0x3b6>
/media/WD3tbUSB3_00/CODE/cpp/__S/workspace/Quake3e/code/server/sv_main.c:1364
	}

	// update infostrings if anything has been changed
	if ( cvar_modifiedFlags & CVAR_SERVERINFO ) {
    24d9:	8b 05 00 00 00 00    	mov    eax,DWORD PTR [rip+0x0]        # 24df <SV_Frame+0x26c>
    24df:	83 e0 04             	and    eax,0x4
    24e2:	85 c0                	test   eax,eax
    24e4:	74 2b                	je     2511 <SV_Frame+0x29e>
/media/WD3tbUSB3_00/CODE/cpp/__S/workspace/Quake3e/code/server/sv_main.c:1365
		SV_SetConfigstring( CS_SERVERINFO, Cvar_InfoString( CVAR_SERVERINFO, NULL ) );
    24e6:	be 00 00 00 00       	mov    esi,0x0
    24eb:	bf 04 00 00 00       	mov    edi,0x4
    24f0:	e8 00 00 00 00       	call   24f5 <SV_Frame+0x282>
    24f5:	48 89 c6             	mov    rsi,rax
    24f8:	bf 00 00 00 00       	mov    edi,0x0
    24fd:	e8 00 00 00 00       	call   2502 <SV_Frame+0x28f>
/media/WD3tbUSB3_00/CODE/cpp/__S/workspace/Quake3e/code/server/sv_main.c:1366
		cvar_modifiedFlags &= ~CVAR_SERVERINFO;
    2502:	8b 05 00 00 00 00    	mov    eax,DWORD PTR [rip+0x0]        # 2508 <SV_Frame+0x295>
    2508:	83 e0 fb             	and    eax,0xfffffffb
    250b:	89 05 00 00 00 00    	mov    DWORD PTR [rip+0x0],eax        # 2511 <SV_Frame+0x29e>
/media/WD3tbUSB3_00/CODE/cpp/__S/workspace/Quake3e/code/server/sv_main.c:1368
	}
	if ( cvar_modifiedFlags & CVAR_SYSTEMINFO ) {
    2511:	8b 05 00 00 00 00    	mov    eax,DWORD PTR [rip+0x0]        # 2517 <SV_Frame+0x2a4>
    2517:	83 e0 08             	and    eax,0x8
    251a:	85 c0                	test   eax,eax
    251c:	74 2b                	je     2549 <SV_Frame+0x2d6>
/media/WD3tbUSB3_00/CODE/cpp/__S/workspace/Quake3e/code/server/sv_main.c:1369
		SV_SetConfigstring( CS_SYSTEMINFO, Cvar_InfoString_Big( CVAR_SYSTEMINFO, NULL ) );
    251e:	be 00 00 00 00       	mov    esi,0x0
    2523:	bf 08 00 00 00       	mov    edi,0x8
    2528:	e8 00 00 00 00       	call   252d <SV_Frame+0x2ba>
    252d:	48 89 c6             	mov    rsi,rax
    2530:	bf 01 00 00 00       	mov    edi,0x1
    2535:	e8 00 00 00 00       	call   253a <SV_Frame+0x2c7>
/media/WD3tbUSB3_00/CODE/cpp/__S/workspace/Quake3e/code/server/sv_main.c:1370
		cvar_modifiedFlags &= ~CVAR_SYSTEMINFO;
    253a:	8b 05 00 00 00 00    	mov    eax,DWORD PTR [rip+0x0]        # 2540 <SV_Frame+0x2cd>
    2540:	83 e0 f7             	and    eax,0xfffffff7
    2543:	89 05 00 00 00 00    	mov    DWORD PTR [rip+0x0],eax        # 2549 <SV_Frame+0x2d6>
/media/WD3tbUSB3_00/CODE/cpp/__S/workspace/Quake3e/code/server/sv_main.c:1373
	}

	if ( com_speeds->integer ) {
    2549:	48 8b 05 00 00 00 00 	mov    rax,QWORD PTR [rip+0x0]        # 2550 <SV_Frame+0x2dd>
    2550:	8b 40 30             	mov    eax,DWORD PTR [rax+0x30]
    2553:	85 c0                	test   eax,eax
    2555:	74 0a                	je     2561 <SV_Frame+0x2ee>
/media/WD3tbUSB3_00/CODE/cpp/__S/workspace/Quake3e/code/server/sv_main.c:1374
		startTime = Sys_Milliseconds();
    2557:	e8 00 00 00 00       	call   255c <SV_Frame+0x2e9>
    255c:	89 45 f8             	mov    DWORD PTR [rbp-0x8],eax
    255f:	eb 07                	jmp    2568 <SV_Frame+0x2f5>
/media/WD3tbUSB3_00/CODE/cpp/__S/workspace/Quake3e/code/server/sv_main.c:1376
	} else {
		startTime = 0;	// quite a compiler warning
    2561:	c7 45 f8 00 00 00 00 	mov    DWORD PTR [rbp-0x8],0x0
/media/WD3tbUSB3_00/CODE/cpp/__S/workspace/Quake3e/code/server/sv_main.c:1380
	}

	// update ping based on the all received frames
	SV_CalcPings();
    2568:	e8 6a f7 ff ff       	call   1cd7 <SV_CalcPings>
/media/WD3tbUSB3_00/CODE/cpp/__S/workspace/Quake3e/code/server/sv_main.c:1382

	if (com_dedicated->integer) SV_BotFrame (sv.time);
    256d:	48 8b 05 00 00 00 00 	mov    rax,QWORD PTR [rip+0x0]        # 2574 <SV_Frame+0x301>
    2574:	8b 40 30             	mov    eax,DWORD PTR [rax+0x30]
    2577:	85 c0                	test   eax,eax
    2579:	74 66                	je     25e1 <SV_Frame+0x36e>
/media/WD3tbUSB3_00/CODE/cpp/__S/workspace/Quake3e/code/server/sv_main.c:1382 (discriminator 1)
    257b:	8b 05 00 00 00 00    	mov    eax,DWORD PTR [rip+0x0]        # 2581 <SV_Frame+0x30e>
    2581:	89 c7                	mov    edi,eax
    2583:	e8 00 00 00 00       	call   2588 <SV_Frame+0x315>
/media/WD3tbUSB3_00/CODE/cpp/__S/workspace/Quake3e/code/server/sv_main.c:1385 (discriminator 1)

	// run the game simulation in chunks
	while ( sv.timeResidual >= frameMsec ) {
    2588:	eb 57                	jmp    25e1 <SV_Frame+0x36e>
/media/WD3tbUSB3_00/CODE/cpp/__S/workspace/Quake3e/code/server/sv_main.c:1386
		sv.timeResidual -= frameMsec;
    258a:	8b 05 00 00 00 00    	mov    eax,DWORD PTR [rip+0x0]        # 2590 <SV_Frame+0x31d>
    2590:	2b 45 fc             	sub    eax,DWORD PTR [rbp-0x4]
    2593:	89 05 00 00 00 00    	mov    DWORD PTR [rip+0x0],eax        # 2599 <SV_Frame+0x326>
/media/WD3tbUSB3_00/CODE/cpp/__S/workspace/Quake3e/code/server/sv_main.c:1387
		svs.time += frameMsec;
    2599:	8b 15 00 00 00 00    	mov    edx,DWORD PTR [rip+0x0]        # 259f <SV_Frame+0x32c>
    259f:	8b 45 fc             	mov    eax,DWORD PTR [rbp-0x4]
    25a2:	01 d0                	add    eax,edx
    25a4:	89 05 00 00 00 00    	mov    DWORD PTR [rip+0x0],eax        # 25aa <SV_Frame+0x337>
/media/WD3tbUSB3_00/CODE/cpp/__S/workspace/Quake3e/code/server/sv_main.c:1388
		sv.time += frameMsec;
    25aa:	8b 15 00 00 00 00    	mov    edx,DWORD PTR [rip+0x0]        # 25b0 <SV_Frame+0x33d>
    25b0:	8b 45 fc             	mov    eax,DWORD PTR [rbp-0x4]
    25b3:	01 d0                	add    eax,edx
    25b5:	89 05 00 00 00 00    	mov    DWORD PTR [rip+0x0],eax        # 25bb <SV_Frame+0x348>
/media/WD3tbUSB3_00/CODE/cpp/__S/workspace/Quake3e/code/server/sv_main.c:1391

		// let everything in the world think and move
		VM_Call( gvm, 1, GAME_RUN_FRAME, sv.time );
    25bb:	8b 15 00 00 00 00    	mov    edx,DWORD PTR [rip+0x0]        # 25c1 <SV_Frame+0x34e>
    25c1:	48 8b 05 00 00 00 00 	mov    rax,QWORD PTR [rip+0x0]        # 25c8 <SV_Frame+0x355>
    25c8:	89 d1                	mov    ecx,edx
    25ca:	ba 08 00 00 00       	mov    edx,0x8
    25cf:	be 01 00 00 00       	mov    esi,0x1
    25d4:	48 89 c7             	mov    rdi,rax
    25d7:	b8 00 00 00 00       	mov    eax,0x0
    25dc:	e8 00 00 00 00       	call   25e1 <SV_Frame+0x36e>
/media/WD3tbUSB3_00/CODE/cpp/__S/workspace/Quake3e/code/server/sv_main.c:1385
	while ( sv.timeResidual >= frameMsec ) {
    25e1:	8b 05 00 00 00 00    	mov    eax,DWORD PTR [rip+0x0]        # 25e7 <SV_Frame+0x374>
    25e7:	39 45 fc             	cmp    DWORD PTR [rbp-0x4],eax
    25ea:	7e 9e                	jle    258a <SV_Frame+0x317>
/media/WD3tbUSB3_00/CODE/cpp/__S/workspace/Quake3e/code/server/sv_main.c:1394
	}

	if ( com_speeds->integer ) {
    25ec:	48 8b 05 00 00 00 00 	mov    rax,QWORD PTR [rip+0x0]        # 25f3 <SV_Frame+0x380>
    25f3:	8b 40 30             	mov    eax,DWORD PTR [rax+0x30]
    25f6:	85 c0                	test   eax,eax
    25f8:	74 0e                	je     2608 <SV_Frame+0x395>
/media/WD3tbUSB3_00/CODE/cpp/__S/workspace/Quake3e/code/server/sv_main.c:1395
		time_game = Sys_Milliseconds () - startTime;
    25fa:	e8 00 00 00 00       	call   25ff <SV_Frame+0x38c>
    25ff:	2b 45 f8             	sub    eax,DWORD PTR [rbp-0x8]
    2602:	89 05 00 00 00 00    	mov    DWORD PTR [rip+0x0],eax        # 2608 <SV_Frame+0x395>
/media/WD3tbUSB3_00/CODE/cpp/__S/workspace/Quake3e/code/server/sv_main.c:1399
	}

	// check timeouts
	SV_CheckTimeouts();
    2608:	e8 69 f8 ff ff       	call   1e76 <SV_CheckTimeouts>
/media/WD3tbUSB3_00/CODE/cpp/__S/workspace/Quake3e/code/server/sv_main.c:1402

	// reset current and build new snapshot on first query
	SV_IssueNewSnapshot();
    260d:	e8 00 00 00 00       	call   2612 <SV_Frame+0x39f>
/media/WD3tbUSB3_00/CODE/cpp/__S/workspace/Quake3e/code/server/sv_main.c:1405

	// send messages back to the clients
	SV_SendClientMessages();
    2612:	e8 00 00 00 00       	call   2617 <SV_Frame+0x3a4>
/media/WD3tbUSB3_00/CODE/cpp/__S/workspace/Quake3e/code/server/sv_main.c:1408

	// send a heartbeat to the master if needed
	SV_MasterHeartbeat(HEARTBEAT_FOR_MASTER);
    2617:	48 8d 3d 00 00 00 00 	lea    rdi,[rip+0x0]        # 261e <SV_Frame+0x3ab>
    261e:	e8 8a dd ff ff       	call   3ad <SV_MasterHeartbeat>
    2623:	eb 04                	jmp    2629 <SV_Frame+0x3b6>
/media/WD3tbUSB3_00/CODE/cpp/__S/workspace/Quake3e/code/server/sv_main.c:1308
		return;
    2625:	90                   	nop
    2626:	eb 01                	jmp    2629 <SV_Frame+0x3b6>
/media/WD3tbUSB3_00/CODE/cpp/__S/workspace/Quake3e/code/server/sv_main.c:1313
		return;
    2628:	90                   	nop
/media/WD3tbUSB3_00/CODE/cpp/__S/workspace/Quake3e/code/server/sv_main.c:1409
}
    2629:	c9                   	leave  
    262a:	c3                   	ret    

000000000000262b <SV_RateMsec>:
SV_RateMsec():
/media/WD3tbUSB3_00/CODE/cpp/__S/workspace/Quake3e/code/server/sv_main.c:1425

#define UDPIP_HEADER_SIZE 28
#define UDPIP6_HEADER_SIZE 48

int SV_RateMsec( const client_t *client )
{
    262b:	55                   	push   rbp
    262c:	48 89 e5             	mov    rbp,rsp
    262f:	48 83 ec 20          	sub    rsp,0x20
    2633:	48 89 7d e8          	mov    QWORD PTR [rbp-0x18],rdi
/media/WD3tbUSB3_00/CODE/cpp/__S/workspace/Quake3e/code/server/sv_main.c:1429
	int rate, rateMsec;
	int messageSize;
	
	if ( !client->rate )
    2637:	48 8b 45 e8          	mov    rax,QWORD PTR [rbp-0x18]
    263b:	8b 80 24 4d 02 00    	mov    eax,DWORD PTR [rax+0x24d24]
    2641:	85 c0                	test   eax,eax
    2643:	75 0a                	jne    264f <SV_RateMsec+0x24>
/media/WD3tbUSB3_00/CODE/cpp/__S/workspace/Quake3e/code/server/sv_main.c:1430
		return 0;
    2645:	b8 00 00 00 00       	mov    eax,0x0
    264a:	e9 84 00 00 00       	jmp    26d3 <SV_RateMsec+0xa8>
/media/WD3tbUSB3_00/CODE/cpp/__S/workspace/Quake3e/code/server/sv_main.c:1432

	messageSize = client->netchan.lastSentSize;
    264f:	48 8b 45 e8          	mov    rax,QWORD PTR [rbp-0x18]
    2653:	8b 80 88 cd 02 00    	mov    eax,DWORD PTR [rax+0x2cd88]
    2659:	89 45 fc             	mov    DWORD PTR [rbp-0x4],eax
/media/WD3tbUSB3_00/CODE/cpp/__S/workspace/Quake3e/code/server/sv_main.c:1435

#ifdef USE_IPV6
	if ( client->netchan.remoteAddress.type == NA_IP6 )
    265c:	48 8b 45 e8          	mov    rax,QWORD PTR [rbp-0x18]
    2660:	8b 80 40 4d 02 00    	mov    eax,DWORD PTR [rax+0x24d40]
    2666:	83 f8 05             	cmp    eax,0x5
    2669:	75 06                	jne    2671 <SV_RateMsec+0x46>
/media/WD3tbUSB3_00/CODE/cpp/__S/workspace/Quake3e/code/server/sv_main.c:1436
		messageSize += UDPIP6_HEADER_SIZE;
    266b:	83 45 fc 30          	add    DWORD PTR [rbp-0x4],0x30
    266f:	eb 04                	jmp    2675 <SV_RateMsec+0x4a>
/media/WD3tbUSB3_00/CODE/cpp/__S/workspace/Quake3e/code/server/sv_main.c:1439
	else
#endif
		messageSize += UDPIP_HEADER_SIZE;
    2671:	83 45 fc 1c          	add    DWORD PTR [rbp-0x4],0x1c
/media/WD3tbUSB3_00/CODE/cpp/__S/workspace/Quake3e/code/server/sv_main.c:1441
		
	rateMsec = messageSize * 1000 / ((int) (client->rate * com_timescale->value));
    2675:	8b 45 fc             	mov    eax,DWORD PTR [rbp-0x4]
    2678:	69 c0 e8 03 00 00    	imul   eax,eax,0x3e8
    267e:	48 8b 55 e8          	mov    rdx,QWORD PTR [rbp-0x18]
    2682:	8b 92 24 4d 02 00    	mov    edx,DWORD PTR [rdx+0x24d24]
    2688:	f3 0f 2a ca          	cvtsi2ss xmm1,edx
    268c:	48 8b 15 00 00 00 00 	mov    rdx,QWORD PTR [rip+0x0]        # 2693 <SV_RateMsec+0x68>
    2693:	f3 0f 10 42 2c       	movss  xmm0,DWORD PTR [rdx+0x2c]
    2698:	f3 0f 59 c1          	mulss  xmm0,xmm1
    269c:	f3 0f 2c c8          	cvttss2si ecx,xmm0
    26a0:	99                   	cdq    
    26a1:	f7 f9                	idiv   ecx
    26a3:	89 45 f8             	mov    DWORD PTR [rbp-0x8],eax
/media/WD3tbUSB3_00/CODE/cpp/__S/workspace/Quake3e/code/server/sv_main.c:1442
	rate = Sys_Milliseconds() - client->netchan.lastSentTime;
    26a6:	e8 00 00 00 00       	call   26ab <SV_RateMsec+0x80>
    26ab:	89 c2                	mov    edx,eax
    26ad:	48 8b 45 e8          	mov    rax,QWORD PTR [rbp-0x18]
    26b1:	8b 80 84 cd 02 00    	mov    eax,DWORD PTR [rax+0x2cd84]
    26b7:	29 c2                	sub    edx,eax
    26b9:	89 d0                	mov    eax,edx
    26bb:	89 45 f4             	mov    DWORD PTR [rbp-0xc],eax
/media/WD3tbUSB3_00/CODE/cpp/__S/workspace/Quake3e/code/server/sv_main.c:1444
	
	if ( rate > rateMsec )
    26be:	8b 45 f4             	mov    eax,DWORD PTR [rbp-0xc]
    26c1:	3b 45 f8             	cmp    eax,DWORD PTR [rbp-0x8]
    26c4:	7e 07                	jle    26cd <SV_RateMsec+0xa2>
/media/WD3tbUSB3_00/CODE/cpp/__S/workspace/Quake3e/code/server/sv_main.c:1445
		return 0;
    26c6:	b8 00 00 00 00       	mov    eax,0x0
    26cb:	eb 06                	jmp    26d3 <SV_RateMsec+0xa8>
/media/WD3tbUSB3_00/CODE/cpp/__S/workspace/Quake3e/code/server/sv_main.c:1447
	else
		return rateMsec - rate;
    26cd:	8b 45 f8             	mov    eax,DWORD PTR [rbp-0x8]
    26d0:	2b 45 f4             	sub    eax,DWORD PTR [rbp-0xc]
/media/WD3tbUSB3_00/CODE/cpp/__S/workspace/Quake3e/code/server/sv_main.c:1448
}
    26d3:	c9                   	leave  
    26d4:	c3                   	ret    

00000000000026d5 <SV_SendQueuedPackets>:
SV_SendQueuedPackets():
/media/WD3tbUSB3_00/CODE/cpp/__S/workspace/Quake3e/code/server/sv_main.c:1461
not computing a server frame or sending client snapshots.
Return the time in msec until we expect to be called next
====================
*/
int SV_SendQueuedPackets( void )
{
    26d5:	55                   	push   rbp
    26d6:	48 89 e5             	mov    rbp,rsp
    26d9:	48 83 ec 20          	sub    rsp,0x20
/media/WD3tbUSB3_00/CODE/cpp/__S/workspace/Quake3e/code/server/sv_main.c:1465
	int numBlocks;
	int dlStart, deltaT, delayT;
	static int dlNextRound = 0;
	int timeVal = INT_MAX;
    26dd:	c7 45 fc ff ff ff 7f 	mov    DWORD PTR [rbp-0x4],0x7fffffff
/media/WD3tbUSB3_00/CODE/cpp/__S/workspace/Quake3e/code/server/sv_main.c:1468

	// Send out fragmented packets now that we're idle
	delayT = SV_SendQueuedMessages();
    26e4:	e8 00 00 00 00       	call   26e9 <SV_SendQueuedPackets+0x14>
    26e9:	89 45 f8             	mov    DWORD PTR [rbp-0x8],eax
/media/WD3tbUSB3_00/CODE/cpp/__S/workspace/Quake3e/code/server/sv_main.c:1469
	if(delayT >= 0)
    26ec:	83 7d f8 00          	cmp    DWORD PTR [rbp-0x8],0x0
    26f0:	78 06                	js     26f8 <SV_SendQueuedPackets+0x23>
/media/WD3tbUSB3_00/CODE/cpp/__S/workspace/Quake3e/code/server/sv_main.c:1470
		timeVal = delayT;
    26f2:	8b 45 f8             	mov    eax,DWORD PTR [rbp-0x8]
    26f5:	89 45 fc             	mov    DWORD PTR [rbp-0x4],eax
/media/WD3tbUSB3_00/CODE/cpp/__S/workspace/Quake3e/code/server/sv_main.c:1472

	if(sv_dlRate->integer)
    26f8:	48 8b 05 00 00 00 00 	mov    rax,QWORD PTR [rip+0x0]        # 26ff <SV_SendQueuedPackets+0x2a>
    26ff:	8b 40 30             	mov    eax,DWORD PTR [rax+0x30]
    2702:	85 c0                	test   eax,eax
    2704:	0f 84 c4 00 00 00    	je     27ce <SV_SendQueuedPackets+0xf9>
/media/WD3tbUSB3_00/CODE/cpp/__S/workspace/Quake3e/code/server/sv_main.c:1476
	{
		// Rate limiting. This is very imprecise for high
		// download rates due to millisecond timedelta resolution
		dlStart = Sys_Milliseconds();
    270a:	e8 00 00 00 00       	call   270f <SV_SendQueuedPackets+0x3a>
    270f:	89 45 f4             	mov    DWORD PTR [rbp-0xc],eax
/media/WD3tbUSB3_00/CODE/cpp/__S/workspace/Quake3e/code/server/sv_main.c:1477
		deltaT = dlNextRound - dlStart;
    2712:	8b 05 00 00 00 00    	mov    eax,DWORD PTR [rip+0x0]        # 2718 <SV_SendQueuedPackets+0x43>
    2718:	2b 45 f4             	sub    eax,DWORD PTR [rbp-0xc]
    271b:	89 45 f0             	mov    DWORD PTR [rbp-0x10],eax
/media/WD3tbUSB3_00/CODE/cpp/__S/workspace/Quake3e/code/server/sv_main.c:1479

		if(deltaT > 0)
    271e:	83 7d f0 00          	cmp    DWORD PTR [rbp-0x10],0x0
    2722:	7e 1a                	jle    273e <SV_SendQueuedPackets+0x69>
/media/WD3tbUSB3_00/CODE/cpp/__S/workspace/Quake3e/code/server/sv_main.c:1481
		{
			if(deltaT < timeVal)
    2724:	8b 45 f0             	mov    eax,DWORD PTR [rbp-0x10]
    2727:	3b 45 fc             	cmp    eax,DWORD PTR [rbp-0x4]
    272a:	0f 8d ae 00 00 00    	jge    27de <SV_SendQueuedPackets+0x109>
/media/WD3tbUSB3_00/CODE/cpp/__S/workspace/Quake3e/code/server/sv_main.c:1482
				timeVal = deltaT + 1;
    2730:	8b 45 f0             	mov    eax,DWORD PTR [rbp-0x10]
    2733:	83 c0 01             	add    eax,0x1
    2736:	89 45 fc             	mov    DWORD PTR [rbp-0x4],eax
    2739:	e9 a0 00 00 00       	jmp    27de <SV_SendQueuedPackets+0x109>
/media/WD3tbUSB3_00/CODE/cpp/__S/workspace/Quake3e/code/server/sv_main.c:1486
		}
		else
		{
			numBlocks = SV_SendDownloadMessages();
    273e:	e8 00 00 00 00       	call   2743 <SV_SendQueuedPackets+0x6e>
    2743:	89 45 ec             	mov    DWORD PTR [rbp-0x14],eax
/media/WD3tbUSB3_00/CODE/cpp/__S/workspace/Quake3e/code/server/sv_main.c:1488

			if(numBlocks)
    2746:	83 7d ec 00          	cmp    DWORD PTR [rbp-0x14],0x0
    274a:	0f 84 8e 00 00 00    	je     27de <SV_SendQueuedPackets+0x109>
/media/WD3tbUSB3_00/CODE/cpp/__S/workspace/Quake3e/code/server/sv_main.c:1491
			{
				// There are active downloads
				deltaT = Sys_Milliseconds() - dlStart;
    2750:	e8 00 00 00 00       	call   2755 <SV_SendQueuedPackets+0x80>
    2755:	2b 45 f4             	sub    eax,DWORD PTR [rbp-0xc]
    2758:	89 45 f0             	mov    DWORD PTR [rbp-0x10],eax
/media/WD3tbUSB3_00/CODE/cpp/__S/workspace/Quake3e/code/server/sv_main.c:1493

				delayT = 1000 * numBlocks * MAX_DOWNLOAD_BLKSIZE;
    275b:	8b 45 ec             	mov    eax,DWORD PTR [rbp-0x14]
    275e:	69 c0 00 a0 0f 00    	imul   eax,eax,0xfa000
    2764:	89 45 f8             	mov    DWORD PTR [rbp-0x8],eax
/media/WD3tbUSB3_00/CODE/cpp/__S/workspace/Quake3e/code/server/sv_main.c:1494
				delayT /= sv_dlRate->integer * 1024;
    2767:	48 8b 05 00 00 00 00 	mov    rax,QWORD PTR [rip+0x0]        # 276e <SV_SendQueuedPackets+0x99>
    276e:	8b 40 30             	mov    eax,DWORD PTR [rax+0x30]
    2771:	c1 e0 0a             	shl    eax,0xa
    2774:	89 c1                	mov    ecx,eax
    2776:	8b 45 f8             	mov    eax,DWORD PTR [rbp-0x8]
    2779:	99                   	cdq    
    277a:	f7 f9                	idiv   ecx
    277c:	89 45 f8             	mov    DWORD PTR [rbp-0x8],eax
/media/WD3tbUSB3_00/CODE/cpp/__S/workspace/Quake3e/code/server/sv_main.c:1496

				if(delayT <= deltaT + 1)
    277f:	8b 45 f0             	mov    eax,DWORD PTR [rbp-0x10]
    2782:	83 c0 01             	add    eax,0x1
    2785:	39 45 f8             	cmp    DWORD PTR [rbp-0x8],eax
    2788:	7f 20                	jg     27aa <SV_SendQueuedPackets+0xd5>
/media/WD3tbUSB3_00/CODE/cpp/__S/workspace/Quake3e/code/server/sv_main.c:1505
					// next round, but always enforce a 1ms delay
					// between DL message rounds so we don't hog
					// all of the bandwidth. This will result in an
					// effective maximum rate of 1MB/s per user, but the
					// low download window size limits this anyways.
					if(timeVal > 2)
    278a:	83 7d fc 02          	cmp    DWORD PTR [rbp-0x4],0x2
    278e:	7e 07                	jle    2797 <SV_SendQueuedPackets+0xc2>
/media/WD3tbUSB3_00/CODE/cpp/__S/workspace/Quake3e/code/server/sv_main.c:1506
						timeVal = 2;
    2790:	c7 45 fc 02 00 00 00 	mov    DWORD PTR [rbp-0x4],0x2
/media/WD3tbUSB3_00/CODE/cpp/__S/workspace/Quake3e/code/server/sv_main.c:1508

					dlNextRound = dlStart + deltaT + 1;
    2797:	8b 55 f4             	mov    edx,DWORD PTR [rbp-0xc]
    279a:	8b 45 f0             	mov    eax,DWORD PTR [rbp-0x10]
    279d:	01 d0                	add    eax,edx
    279f:	83 c0 01             	add    eax,0x1
    27a2:	89 05 00 00 00 00    	mov    DWORD PTR [rip+0x0],eax        # 27a8 <SV_SendQueuedPackets+0xd3>
    27a8:	eb 34                	jmp    27de <SV_SendQueuedPackets+0x109>
/media/WD3tbUSB3_00/CODE/cpp/__S/workspace/Quake3e/code/server/sv_main.c:1512
				}
				else
				{
					dlNextRound = dlStart + delayT;
    27aa:	8b 55 f4             	mov    edx,DWORD PTR [rbp-0xc]
    27ad:	8b 45 f8             	mov    eax,DWORD PTR [rbp-0x8]
    27b0:	01 d0                	add    eax,edx
    27b2:	89 05 00 00 00 00    	mov    DWORD PTR [rip+0x0],eax        # 27b8 <SV_SendQueuedPackets+0xe3>
/media/WD3tbUSB3_00/CODE/cpp/__S/workspace/Quake3e/code/server/sv_main.c:1513
					delayT -= deltaT;
    27b8:	8b 45 f0             	mov    eax,DWORD PTR [rbp-0x10]
    27bb:	29 45 f8             	sub    DWORD PTR [rbp-0x8],eax
/media/WD3tbUSB3_00/CODE/cpp/__S/workspace/Quake3e/code/server/sv_main.c:1515

					if(delayT < timeVal)
    27be:	8b 45 f8             	mov    eax,DWORD PTR [rbp-0x8]
    27c1:	3b 45 fc             	cmp    eax,DWORD PTR [rbp-0x4]
    27c4:	7d 18                	jge    27de <SV_SendQueuedPackets+0x109>
/media/WD3tbUSB3_00/CODE/cpp/__S/workspace/Quake3e/code/server/sv_main.c:1516
						timeVal = delayT;
    27c6:	8b 45 f8             	mov    eax,DWORD PTR [rbp-0x8]
    27c9:	89 45 fc             	mov    DWORD PTR [rbp-0x4],eax
    27cc:	eb 10                	jmp    27de <SV_SendQueuedPackets+0x109>
/media/WD3tbUSB3_00/CODE/cpp/__S/workspace/Quake3e/code/server/sv_main.c:1523
			}
		}
	}
	else
	{
		if(SV_SendDownloadMessages())
    27ce:	e8 00 00 00 00       	call   27d3 <SV_SendQueuedPackets+0xfe>
    27d3:	85 c0                	test   eax,eax
    27d5:	74 07                	je     27de <SV_SendQueuedPackets+0x109>
/media/WD3tbUSB3_00/CODE/cpp/__S/workspace/Quake3e/code/server/sv_main.c:1524
			timeVal = 0;
    27d7:	c7 45 fc 00 00 00 00 	mov    DWORD PTR [rbp-0x4],0x0
/media/WD3tbUSB3_00/CODE/cpp/__S/workspace/Quake3e/code/server/sv_main.c:1527
	}

	return timeVal;
    27de:	8b 45 fc             	mov    eax,DWORD PTR [rbp-0x4]
/media/WD3tbUSB3_00/CODE/cpp/__S/workspace/Quake3e/code/server/sv_main.c:1528
}
    27e1:	c9                   	leave  
    27e2:	c3                   	ret    
