
./build/release-linux-x86_64_-_obj/client/cl_main.o:     file format elf64-x86-64


Disassembly of section .text:

0000000000000000 <CL_IsMininized>:
CL_IsMininized():
       0:	8b 05 00 00 00 00    	mov    eax,DWORD PTR [rip+0x0]        # 6 <CL_IsMininized+0x6>
       6:	c3                   	ret    
       7:	66 0f 1f 84 00 00 00 	nop    WORD PTR [rax+rax*1+0x0]
       e:	00 00 

0000000000000010 <CL_SetScaling>:
CL_SetScaling():
      10:	89 f1                	mov    ecx,esi
      12:	ba 49 d6 b9 f2       	mov    edx,0xf2b9d649
      17:	66 0f ef c9          	pxor   xmm1,xmm1
      1b:	f3 0f 10 15 00 00 00 	movss  xmm2,DWORD PTR [rip+0x0]        # 23 <CL_SetScaling+0x13>
      22:	00 
      23:	c1 e1 04             	shl    ecx,0x4
      26:	89 c8                	mov    eax,ecx
      28:	f7 ea                	imul   edx
      2a:	01 ca                	add    edx,ecx
      2c:	c1 f9 1f             	sar    ecx,0x1f
      2f:	c1 fa 0a             	sar    edx,0xa
      32:	29 ca                	sub    edx,ecx
      34:	f3 0f 2a ca          	cvtsi2ss xmm1,edx
      38:	f3 0f 59 0d 00 00 00 	mulss  xmm1,DWORD PTR [rip+0x0]        # 40 <CL_SetScaling+0x30>
      3f:	00 
      40:	0f 2f d1             	comiss xmm2,xmm1
      43:	77 04                	ja     49 <CL_SetScaling+0x39>
      45:	f3 0f 59 c1          	mulss  xmm0,xmm1
      49:	f3 0f 10 0d 00 00 00 	movss  xmm1,DWORD PTR [rip+0x0]        # 51 <CL_SetScaling+0x41>
      50:	00 
      51:	89 3d 00 00 00 00    	mov    DWORD PTR [rip+0x0],edi        # 57 <CL_SetScaling+0x47>
      57:	89 35 00 00 00 00    	mov    DWORD PTR [rip+0x0],esi        # 5d <CL_SetScaling+0x4d>
      5d:	f3 0f 59 c8          	mulss  xmm1,xmm0
      61:	f3 0f 59 05 00 00 00 	mulss  xmm0,DWORD PTR [rip+0x0]        # 69 <CL_SetScaling+0x59>
      68:	00 
      69:	f3 0f 2c c1          	cvttss2si eax,xmm1
      6d:	89 05 00 00 00 00    	mov    DWORD PTR [rip+0x0],eax        # 73 <CL_SetScaling+0x63>
      73:	f3 0f 2c c0          	cvttss2si eax,xmm0
      77:	89 05 00 00 00 00    	mov    DWORD PTR [rip+0x0],eax        # 7d <CL_SetScaling+0x6d>
      7d:	89 05 00 00 00 00    	mov    DWORD PTR [rip+0x0],eax        # 83 <CL_SetScaling+0x73>
      83:	89 05 00 00 00 00    	mov    DWORD PTR [rip+0x0],eax        # 89 <CL_SetScaling+0x79>
      89:	c3                   	ret    
      8a:	66 0f 1f 44 00 00    	nop    WORD PTR [rax+rax*1+0x0]

0000000000000090 <CL_StopRecord_f>:
CL_StopRecord_f():
      90:	41 56                	push   r14
      92:	41 55                	push   r13
      94:	41 54                	push   r12
      96:	55                   	push   rbp
      97:	53                   	push   rbx
      98:	48 81 ec 10 20 00 00 	sub    rsp,0x2010
      9f:	8b 15 00 00 00 00    	mov    edx,DWORD PTR [rip+0x0]        # a5 <CL_StopRecord_f+0x15>
      a5:	85 d2                	test   edx,edx
      a7:	75 47                	jne    f0 <CL_StopRecord_f+0x60>
      a9:	8b 05 00 00 00 00    	mov    eax,DWORD PTR [rip+0x0]        # af <CL_StopRecord_f+0x1f>
      af:	85 c0                	test   eax,eax
      b1:	75 2d                	jne    e0 <CL_StopRecord_f+0x50>
      b3:	48 8d 3d 00 00 00 00 	lea    rdi,[rip+0x0]        # ba <CL_StopRecord_f+0x2a>
      ba:	31 c0                	xor    eax,eax
      bc:	e8 00 00 00 00       	call   c1 <CL_StopRecord_f+0x31>
      c1:	48 c7 05 00 00 00 00 	mov    QWORD PTR [rip+0x0],0x0        # cc <CL_StopRecord_f+0x3c>
      c8:	00 00 00 00 
      cc:	48 81 c4 10 20 00 00 	add    rsp,0x2010
      d3:	5b                   	pop    rbx
      d4:	5d                   	pop    rbp
      d5:	41 5c                	pop    r12
      d7:	41 5d                	pop    r13
      d9:	41 5e                	pop    r14
      db:	c3                   	ret    
      dc:	0f 1f 40 00          	nop    DWORD PTR [rax+0x0]
      e0:	48 8d 3d 00 00 00 00 	lea    rdi,[rip+0x0]        # e7 <CL_StopRecord_f+0x57>
      e7:	31 c0                	xor    eax,eax
      e9:	e8 00 00 00 00       	call   ee <CL_StopRecord_f+0x5e>
      ee:	eb d1                	jmp    c1 <CL_StopRecord_f+0x31>
      f0:	48 8d 5c 24 0c       	lea    rbx,[rsp+0xc]
      f5:	be 04 00 00 00       	mov    esi,0x4
      fa:	c7 44 24 0c ff ff ff 	mov    DWORD PTR [rsp+0xc],0xffffffff
     101:	ff 
     102:	4c 8d 74 24 10       	lea    r14,[rsp+0x10]
     107:	48 89 df             	mov    rdi,rbx
     10a:	48 8d ac 24 10 10 00 	lea    rbp,[rsp+0x1010]
     111:	00 
     112:	4c 8d 2d 00 00 00 00 	lea    r13,[rip+0x0]        # 119 <CL_StopRecord_f+0x89>
     119:	e8 00 00 00 00       	call   11e <CL_StopRecord_f+0x8e>
     11e:	8b 15 00 00 00 00    	mov    edx,DWORD PTR [rip+0x0]        # 124 <CL_StopRecord_f+0x94>
     124:	be 04 00 00 00       	mov    esi,0x4
     129:	48 89 df             	mov    rdi,rbx
     12c:	e8 00 00 00 00       	call   131 <CL_StopRecord_f+0xa1>
     131:	8b 3d 00 00 00 00    	mov    edi,DWORD PTR [rip+0x0]        # 137 <CL_StopRecord_f+0xa7>
     137:	e8 00 00 00 00       	call   13c <CL_StopRecord_f+0xac>
     13c:	8b 05 00 00 00 00    	mov    eax,DWORD PTR [rip+0x0]        # 142 <CL_StopRecord_f+0xb2>
     142:	0b 05 00 00 00 00    	or     eax,DWORD PTR [rip+0x0]        # 148 <CL_StopRecord_f+0xb8>
     148:	4c 89 f7             	mov    rdi,r14
     14b:	83 f8 01             	cmp    eax,0x1
     14e:	48 8d 0d 00 00 00 00 	lea    rcx,[rip+0x0]        # 155 <CL_StopRecord_f+0xc5>
     155:	be 00 10 00 00       	mov    esi,0x1000
     15a:	c7 05 00 00 00 00 00 	mov    DWORD PTR [rip+0x0],0x0        # 164 <CL_StopRecord_f+0xd4>
     161:	00 00 00 
     164:	45 19 e4             	sbb    r12d,r12d
     167:	48 8d 15 00 00 00 00 	lea    rdx,[rip+0x0]        # 16e <CL_StopRecord_f+0xde>
     16e:	31 c0                	xor    eax,eax
     170:	31 db                	xor    ebx,ebx
     172:	e8 00 00 00 00       	call   177 <CL_StopRecord_f+0xe7>
     177:	41 83 e4 03          	and    r12d,0x3
     17b:	be 00 10 00 00       	mov    esi,0x1000
     180:	31 c0                	xor    eax,eax
     182:	41 83 c4 44          	add    r12d,0x44
     186:	4c 8d 05 00 00 00 00 	lea    r8,[rip+0x0]        # 18d <CL_StopRecord_f+0xfd>
     18d:	48 89 ef             	mov    rdi,rbp
     190:	45 89 e1             	mov    r9d,r12d
     193:	48 8d 0d 00 00 00 00 	lea    rcx,[rip+0x0]        # 19a <CL_StopRecord_f+0x10a>
     19a:	48 8d 15 00 00 00 00 	lea    rdx,[rip+0x0]        # 1a1 <CL_StopRecord_f+0x111>
     1a1:	e8 00 00 00 00       	call   1a6 <CL_StopRecord_f+0x116>
     1a6:	8b 35 00 00 00 00    	mov    esi,DWORD PTR [rip+0x0]        # 1ac <CL_StopRecord_f+0x11c>
     1ac:	85 f6                	test   esi,esi
     1ae:	74 3e                	je     1ee <CL_StopRecord_f+0x15e>
     1b0:	eb 5e                	jmp    210 <CL_StopRecord_f+0x180>
     1b2:	66 0f 1f 44 00 00    	nop    WORD PTR [rax+rax*1+0x0]
     1b8:	83 c3 01             	add    ebx,0x1
     1bb:	81 fb e8 03 00 00    	cmp    ebx,0x3e8
     1c1:	74 37                	je     1fa <CL_StopRecord_f+0x16a>
     1c3:	48 83 ec 08          	sub    rsp,0x8
     1c7:	48 8d 0d 00 00 00 00 	lea    rcx,[rip+0x0]        # 1ce <CL_StopRecord_f+0x13e>
     1ce:	4d 89 e9             	mov    r9,r13
     1d1:	31 c0                	xor    eax,eax
     1d3:	41 54                	push   r12
     1d5:	48 8d 15 00 00 00 00 	lea    rdx,[rip+0x0]        # 1dc <CL_StopRecord_f+0x14c>
     1dc:	41 89 d8             	mov    r8d,ebx
     1df:	48 89 ef             	mov    rdi,rbp
     1e2:	be 00 10 00 00       	mov    esi,0x1000
     1e7:	e8 00 00 00 00       	call   1ec <CL_StopRecord_f+0x15c>
     1ec:	5a                   	pop    rdx
     1ed:	59                   	pop    rcx
     1ee:	48 89 ef             	mov    rdi,rbp
     1f1:	e8 00 00 00 00       	call   1f6 <CL_StopRecord_f+0x166>
     1f6:	85 c0                	test   eax,eax
     1f8:	75 be                	jne    1b8 <CL_StopRecord_f+0x128>
     1fa:	48 89 ee             	mov    rsi,rbp
     1fd:	4c 89 f7             	mov    rdi,r14
     200:	e8 00 00 00 00       	call   205 <CL_StopRecord_f+0x175>
     205:	e9 9f fe ff ff       	jmp    a9 <CL_StopRecord_f+0x19>
     20a:	66 0f 1f 44 00 00    	nop    WORD PTR [rax+rax*1+0x0]
     210:	48 89 ef             	mov    rdi,rbp
     213:	e8 00 00 00 00       	call   218 <CL_StopRecord_f+0x188>
     218:	48 89 ee             	mov    rsi,rbp
     21b:	4c 89 f7             	mov    rdi,r14
     21e:	e8 00 00 00 00       	call   223 <CL_StopRecord_f+0x193>
     223:	e9 81 fe ff ff       	jmp    a9 <CL_StopRecord_f+0x19>
     228:	0f 1f 84 00 00 00 00 	nop    DWORD PTR [rax+rax*1+0x0]
     22f:	00 

0000000000000230 <CL_ModeList_f>:
CL_ModeList_f():
     230:	41 54                	push   r12
     232:	48 8d 3d 00 00 00 00 	lea    rdi,[rip+0x0]        # 239 <CL_ModeList_f+0x9>
     239:	31 c0                	xor    eax,eax
     23b:	55                   	push   rbp
     23c:	48 8d 2d 00 00 00 00 	lea    rbp,[rip+0x0]        # 243 <CL_ModeList_f+0x13>
     243:	53                   	push   rbx
     244:	48 8d 1d 00 00 00 00 	lea    rbx,[rip+0x0]        # 24b <CL_ModeList_f+0x1b>
     24b:	4c 8d a3 40 02 00 00 	lea    r12,[rbx+0x240]
     252:	e8 00 00 00 00       	call   257 <CL_ModeList_f+0x27>
     257:	48 8d 35 00 00 00 00 	lea    rsi,[rip+0x0]        # 25e <CL_ModeList_f+0x2e>
     25e:	eb 07                	jmp    267 <CL_ModeList_f+0x37>
     260:	48 8b 33             	mov    rsi,QWORD PTR [rbx]
     263:	48 83 c3 18          	add    rbx,0x18
     267:	31 c0                	xor    eax,eax
     269:	48 89 ef             	mov    rdi,rbp
     26c:	e8 00 00 00 00       	call   271 <CL_ModeList_f+0x41>
     271:	4c 39 e3             	cmp    rbx,r12
     274:	75 ea                	jne    260 <CL_ModeList_f+0x30>
     276:	5b                   	pop    rbx
     277:	48 8d 3d 00 00 00 00 	lea    rdi,[rip+0x0]        # 27e <CL_ModeList_f+0x4e>
     27e:	5d                   	pop    rbp
     27f:	31 c0                	xor    eax,eax
     281:	41 5c                	pop    r12
     283:	e9 00 00 00 00       	jmp    288 <CL_ModeList_f+0x58>
     288:	0f 1f 84 00 00 00 00 	nop    DWORD PTR [rax+rax*1+0x0]
     28f:	00 

0000000000000290 <CL_ScaledMilliseconds>:
CL_ScaledMilliseconds():
     290:	48 83 ec 08          	sub    rsp,0x8
     294:	e8 00 00 00 00       	call   299 <CL_ScaledMilliseconds+0x9>
     299:	66 0f ef c0          	pxor   xmm0,xmm0
     29d:	f3 0f 2a c0          	cvtsi2ss xmm0,eax
     2a1:	48 8b 05 00 00 00 00 	mov    rax,QWORD PTR [rip+0x0]        # 2a8 <CL_ScaledMilliseconds+0x18>
     2a8:	f3 0f 59 40 2c       	mulss  xmm0,DWORD PTR [rax+0x2c]
     2ad:	48 83 c4 08          	add    rsp,0x8
     2b1:	f3 0f 2c c0          	cvttss2si eax,xmm0
     2b5:	c3                   	ret    
     2b6:	66 2e 0f 1f 84 00 00 	nop    WORD PTR cs:[rax+rax*1+0x0]
     2bd:	00 00 00 

00000000000002c0 <CL_WriteServerCommands>:
CL_WriteServerCommands():
     2c0:	41 54                	push   r12
     2c2:	8b 05 00 00 00 00    	mov    eax,DWORD PTR [rip+0x0]        # 2c8 <CL_WriteServerCommands+0x8>
     2c8:	55                   	push   rbp
     2c9:	53                   	push   rbx
     2ca:	8b 1d 00 00 00 00    	mov    ebx,DWORD PTR [rip+0x0]        # 2d0 <CL_WriteServerCommands+0x10>
     2d0:	39 c3                	cmp    ebx,eax
     2d2:	7d 69                	jge    33d <CL_WriteServerCommands+0x7d>
     2d4:	89 c2                	mov    edx,eax
     2d6:	29 da                	sub    edx,ebx
     2d8:	83 fa 40             	cmp    edx,0x40
     2db:	7e 09                	jle    2e6 <CL_WriteServerCommands+0x26>
     2dd:	8d 58 c0             	lea    ebx,[rax-0x40]
     2e0:	89 1d 00 00 00 00    	mov    DWORD PTR [rip+0x0],ebx        # 2e6 <CL_WriteServerCommands+0x26>
     2e6:	83 c3 01             	add    ebx,0x1
     2e9:	39 d8                	cmp    eax,ebx
     2eb:	7c 50                	jl     33d <CL_WriteServerCommands+0x7d>
     2ed:	48 89 fd             	mov    rbp,rdi
     2f0:	4c 8d 25 00 00 00 00 	lea    r12,[rip+0x0]        # 2f7 <CL_WriteServerCommands+0x37>
     2f7:	66 0f 1f 84 00 00 00 	nop    WORD PTR [rax+rax*1+0x0]
     2fe:	00 00 
     300:	be 05 00 00 00       	mov    esi,0x5
     305:	48 89 ef             	mov    rdi,rbp
     308:	e8 00 00 00 00       	call   30d <CL_WriteServerCommands+0x4d>
     30d:	89 de                	mov    esi,ebx
     30f:	48 89 ef             	mov    rdi,rbp
     312:	e8 00 00 00 00       	call   317 <CL_WriteServerCommands+0x57>
     317:	89 d8                	mov    eax,ebx
     319:	48 89 ef             	mov    rdi,rbp
     31c:	83 c3 01             	add    ebx,0x1
     31f:	83 e0 3f             	and    eax,0x3f
     322:	48 c1 e0 0a          	shl    rax,0xa
     326:	49 8d b4 04 54 04 01 	lea    rsi,[r12+rax*1+0x10454]
     32d:	00 
     32e:	e8 00 00 00 00       	call   333 <CL_WriteServerCommands+0x73>
     333:	8b 05 00 00 00 00    	mov    eax,DWORD PTR [rip+0x0]        # 339 <CL_WriteServerCommands+0x79>
     339:	39 d8                	cmp    eax,ebx
     33b:	7d c3                	jge    300 <CL_WriteServerCommands+0x40>
     33d:	5b                   	pop    rbx
     33e:	5d                   	pop    rbp
     33f:	89 05 00 00 00 00    	mov    DWORD PTR [rip+0x0],eax        # 345 <CL_WriteServerCommands+0x85>
     345:	41 5c                	pop    r12
     347:	c3                   	ret    
     348:	0f 1f 84 00 00 00 00 	nop    DWORD PTR [rax+rax*1+0x0]
     34f:	00 

0000000000000350 <CL_WriteGamestate>:
CL_WriteGamestate():
     350:	41 56                	push   r14
     352:	ba 00 40 00 00       	mov    edx,0x4000
     357:	41 55                	push   r13
     359:	41 54                	push   r12
     35b:	55                   	push   rbp
     35c:	53                   	push   rbx
     35d:	89 fb                	mov    ebx,edi
     35f:	48 81 ec 20 41 00 00 	sub    rsp,0x4120
     366:	4c 8d 64 24 10       	lea    r12,[rsp+0x10]
     36b:	48 8d b4 24 10 01 00 	lea    rsi,[rsp+0x110]
     372:	00 
     373:	4c 89 e7             	mov    rdi,r12
     376:	e8 00 00 00 00       	call   37b <CL_WriteGamestate+0x2b>
     37b:	4c 89 e7             	mov    rdi,r12
     37e:	e8 00 00 00 00       	call   383 <CL_WriteGamestate+0x33>
     383:	8b 35 00 00 00 00    	mov    esi,DWORD PTR [rip+0x0]        # 389 <CL_WriteGamestate+0x39>
     389:	4c 89 e7             	mov    rdi,r12
     38c:	e8 00 00 00 00       	call   391 <CL_WriteGamestate+0x41>
     391:	85 db                	test   ebx,ebx
     393:	0f 84 9b 01 00 00    	je     534 <CL_WriteGamestate+0x1e4>
     399:	c7 05 00 00 00 00 01 	mov    DWORD PTR [rip+0x0],0x1        # 3a3 <CL_WriteGamestate+0x53>
     3a0:	00 00 00 
     3a3:	8b 05 00 00 00 00    	mov    eax,DWORD PTR [rip+0x0]        # 3a9 <CL_WriteGamestate+0x59>
     3a9:	89 05 00 00 00 00    	mov    DWORD PTR [rip+0x0],eax        # 3af <CL_WriteGamestate+0x5f>
     3af:	be 02 00 00 00       	mov    esi,0x2
     3b4:	4c 89 e7             	mov    rdi,r12
     3b7:	4c 8d 35 00 00 00 00 	lea    r14,[rip+0x0]        # 3be <CL_WriteGamestate+0x6e>
     3be:	31 db                	xor    ebx,ebx
     3c0:	c7 05 00 00 00 00 00 	mov    DWORD PTR [rip+0x0],0x0        # 3ca <CL_WriteGamestate+0x7a>
     3c7:	00 00 00 
     3ca:	4d 8d ae 00 10 00 00 	lea    r13,[r14+0x1000]
     3d1:	e8 00 00 00 00       	call   3d6 <CL_WriteGamestate+0x86>
     3d6:	8b 35 00 00 00 00    	mov    esi,DWORD PTR [rip+0x0]        # 3dc <CL_WriteGamestate+0x8c>
     3dc:	4c 89 e7             	mov    rdi,r12
     3df:	e8 00 00 00 00       	call   3e4 <CL_WriteGamestate+0x94>
     3e4:	0f 1f 40 00          	nop    DWORD PTR [rax+0x0]
     3e8:	41 8b 2c 9e          	mov    ebp,DWORD PTR [r14+rbx*4]
     3ec:	85 ed                	test   ebp,ebp
     3ee:	74 25                	je     415 <CL_WriteGamestate+0xc5>
     3f0:	be 03 00 00 00       	mov    esi,0x3
     3f5:	4c 89 e7             	mov    rdi,r12
     3f8:	e8 00 00 00 00       	call   3fd <CL_WriteGamestate+0xad>
     3fd:	89 de                	mov    esi,ebx
     3ff:	4c 89 e7             	mov    rdi,r12
     402:	e8 00 00 00 00       	call   407 <CL_WriteGamestate+0xb7>
     407:	48 63 f5             	movsxd rsi,ebp
     40a:	4c 89 e7             	mov    rdi,r12
     40d:	4c 01 ee             	add    rsi,r13
     410:	e8 00 00 00 00       	call   415 <CL_WriteGamestate+0xc5>
     415:	48 83 c3 01          	add    rbx,0x1
     419:	48 81 fb 00 04 00 00 	cmp    rbx,0x400
     420:	75 c6                	jne    3e8 <CL_WriteGamestate+0x98>
     422:	4c 8d 74 24 40       	lea    r14,[rsp+0x40]
     427:	b9 1a 00 00 00       	mov    ecx,0x1a
     42c:	31 c0                	xor    eax,eax
     42e:	4c 89 f7             	mov    rdi,r14
     431:	48 8d 1d 00 00 00 00 	lea    rbx,[rip+0x0]        # 438 <CL_WriteGamestate+0xe8>
     438:	f3 48 ab             	rep stos QWORD PTR es:[rdi],rax
     43b:	48 8d ab 00 c0 e2 ff 	lea    rbp,[rbx-0x1d4000]
     442:	4c 8d ab 00 04 00 00 	lea    r13,[rbx+0x400]
     449:	0f 1f 80 00 00 00 00 	nop    DWORD PTR [rax+0x0]
     450:	80 3b 00             	cmp    BYTE PTR [rbx],0x0
     453:	74 20                	je     475 <CL_WriteGamestate+0x125>
     455:	be 04 00 00 00       	mov    esi,0x4
     45a:	4c 89 e7             	mov    rdi,r12
     45d:	e8 00 00 00 00       	call   462 <CL_WriteGamestate+0x112>
     462:	b9 01 00 00 00       	mov    ecx,0x1
     467:	48 89 ea             	mov    rdx,rbp
     46a:	4c 89 f6             	mov    rsi,r14
     46d:	4c 89 e7             	mov    rdi,r12
     470:	e8 00 00 00 00       	call   475 <CL_WriteGamestate+0x125>
     475:	48 83 c3 01          	add    rbx,0x1
     479:	48 81 c5 d0 00 00 00 	add    rbp,0xd0
     480:	4c 39 eb             	cmp    rbx,r13
     483:	75 cb                	jne    450 <CL_WriteGamestate+0x100>
     485:	be 08 00 00 00       	mov    esi,0x8
     48a:	4c 89 e7             	mov    rdi,r12
     48d:	e8 00 00 00 00       	call   492 <CL_WriteGamestate+0x142>
     492:	8b 35 00 00 00 00    	mov    esi,DWORD PTR [rip+0x0]        # 498 <CL_WriteGamestate+0x148>
     498:	4c 89 e7             	mov    rdi,r12
     49b:	e8 00 00 00 00       	call   4a0 <CL_WriteGamestate+0x150>
     4a0:	8b 35 00 00 00 00    	mov    esi,DWORD PTR [rip+0x0]        # 4a6 <CL_WriteGamestate+0x156>
     4a6:	4c 89 e7             	mov    rdi,r12
     4a9:	e8 00 00 00 00       	call   4ae <CL_WriteGamestate+0x15e>
     4ae:	be 08 00 00 00       	mov    esi,0x8
     4b3:	4c 89 e7             	mov    rdi,r12
     4b6:	e8 00 00 00 00       	call   4bb <CL_WriteGamestate+0x16b>
     4bb:	8b 05 00 00 00 00    	mov    eax,DWORD PTR [rip+0x0]        # 4c1 <CL_WriteGamestate+0x171>
     4c1:	85 c0                	test   eax,eax
     4c3:	74 64                	je     529 <CL_WriteGamestate+0x1d9>
     4c5:	8b 05 00 00 00 00    	mov    eax,DWORD PTR [rip+0x0]        # 4cb <CL_WriteGamestate+0x17b>
     4cb:	83 e8 01             	sub    eax,0x1
     4ce:	48 8d 5c 24 0c       	lea    rbx,[rsp+0xc]
     4d3:	8b 15 00 00 00 00    	mov    edx,DWORD PTR [rip+0x0]        # 4d9 <CL_WriteGamestate+0x189>
     4d9:	be 04 00 00 00       	mov    esi,0x4
     4de:	89 44 24 0c          	mov    DWORD PTR [rsp+0xc],eax
     4e2:	48 89 df             	mov    rdi,rbx
     4e5:	e8 00 00 00 00       	call   4ea <CL_WriteGamestate+0x19a>
     4ea:	8b 44 24 30          	mov    eax,DWORD PTR [rsp+0x30]
     4ee:	8b 15 00 00 00 00    	mov    edx,DWORD PTR [rip+0x0]        # 4f4 <CL_WriteGamestate+0x1a4>
     4f4:	48 89 df             	mov    rdi,rbx
     4f7:	be 04 00 00 00       	mov    esi,0x4
     4fc:	89 44 24 0c          	mov    DWORD PTR [rsp+0xc],eax
     500:	e8 00 00 00 00       	call   505 <CL_WriteGamestate+0x1b5>
     505:	8b 74 24 30          	mov    esi,DWORD PTR [rsp+0x30]
     509:	48 8b 7c 24 20       	mov    rdi,QWORD PTR [rsp+0x20]
     50e:	8b 15 00 00 00 00    	mov    edx,DWORD PTR [rip+0x0]        # 514 <CL_WriteGamestate+0x1c4>
     514:	e8 00 00 00 00       	call   519 <CL_WriteGamestate+0x1c9>
     519:	48 81 c4 20 41 00 00 	add    rsp,0x4120
     520:	5b                   	pop    rbx
     521:	5d                   	pop    rbp
     522:	41 5c                	pop    r12
     524:	41 5d                	pop    r13
     526:	41 5e                	pop    r14
     528:	c3                   	ret    
     529:	8b 05 00 00 00 00    	mov    eax,DWORD PTR [rip+0x0]        # 52f <CL_WriteGamestate+0x1df>
     52f:	83 e8 01             	sub    eax,0x1
     532:	eb 9a                	jmp    4ce <CL_WriteGamestate+0x17e>
     534:	4c 89 e7             	mov    rdi,r12
     537:	e8 84 fd ff ff       	call   2c0 <CL_WriteServerCommands>
     53c:	e9 6e fe ff ff       	jmp    3af <CL_WriteGamestate+0x5f>
     541:	66 66 2e 0f 1f 84 00 	data16 nop WORD PTR cs:[rax+rax*1+0x0]
     548:	00 00 00 00 
     54c:	0f 1f 40 00          	nop    DWORD PTR [rax+0x0]

0000000000000550 <CL_ShutdownRef>:
CL_ShutdownRef():
     550:	48 8b 05 00 00 00 00 	mov    rax,QWORD PTR [rip+0x0]        # 557 <CL_ShutdownRef+0x7>
     557:	53                   	push   rbx
     558:	8b 40 24             	mov    eax,DWORD PTR [rax+0x24]
     55b:	85 c0                	test   eax,eax
     55d:	75 61                	jne    5c0 <CL_ShutdownRef+0x70>
     55f:	89 fb                	mov    ebx,edi
     561:	83 ff 01             	cmp    edi,0x1
     564:	74 05                	je     56b <CL_ShutdownRef+0x1b>
     566:	e8 00 00 00 00       	call   56b <CL_ShutdownRef+0x1b>
     56b:	e8 00 00 00 00       	call   570 <CL_ShutdownRef+0x20>
     570:	48 8b 05 00 00 00 00 	mov    rax,QWORD PTR [rip+0x0]        # 577 <CL_ShutdownRef+0x27>
     577:	48 85 c0             	test   rax,rax
     57a:	74 04                	je     580 <CL_ShutdownRef+0x30>
     57c:	89 df                	mov    edi,ebx
     57e:	ff d0                	call   rax
     580:	48 8b 3d 00 00 00 00 	mov    rdi,QWORD PTR [rip+0x0]        # 587 <CL_ShutdownRef+0x37>
     587:	48 85 ff             	test   rdi,rdi
     58a:	74 10                	je     59c <CL_ShutdownRef+0x4c>
     58c:	e8 00 00 00 00       	call   591 <CL_ShutdownRef+0x41>
     591:	48 c7 05 00 00 00 00 	mov    QWORD PTR [rip+0x0],0x0        # 59c <CL_ShutdownRef+0x4c>
     598:	00 00 00 00 
     59c:	48 8d 15 00 00 00 00 	lea    rdx,[rip+0x0]        # 5a3 <CL_ShutdownRef+0x53>
     5a3:	b9 26 00 00 00       	mov    ecx,0x26
     5a8:	31 c0                	xor    eax,eax
     5aa:	c7 05 00 00 00 00 00 	mov    DWORD PTR [rip+0x0],0x0        # 5b4 <CL_ShutdownRef+0x64>
     5b1:	00 00 00 
     5b4:	48 89 d7             	mov    rdi,rdx
     5b7:	f3 48 ab             	rep stos QWORD PTR es:[rdi],rax
     5ba:	5b                   	pop    rbx
     5bb:	c3                   	ret    
     5bc:	0f 1f 40 00          	nop    DWORD PTR [rax+0x0]
     5c0:	bb 03 00 00 00       	mov    ebx,0x3
     5c5:	eb 9f                	jmp    566 <CL_ShutdownRef+0x16>
     5c7:	66 0f 1f 84 00 00 00 	nop    WORD PTR [rax+rax*1+0x0]
     5ce:	00 00 

00000000000005d0 <CL_CheckForResend>:
CL_CheckForResend():
     5d0:	44 8b 15 00 00 00 00 	mov    r10d,DWORD PTR [rip+0x0]        # 5d7 <CL_CheckForResend+0x7>
     5d7:	45 85 d2             	test   r10d,r10d
     5da:	0f 85 e8 01 00 00    	jne    7c8 <CL_CheckForResend+0x1f8>
     5e0:	8b 05 00 00 00 00    	mov    eax,DWORD PTR [rip+0x0]        # 5e6 <CL_CheckForResend+0x16>
     5e6:	8d 50 fd             	lea    edx,[rax-0x3]
     5e9:	83 fa 01             	cmp    edx,0x1
     5ec:	0f 87 d6 01 00 00    	ja     7c8 <CL_CheckForResend+0x1f8>
     5f2:	8b 15 00 00 00 00    	mov    edx,DWORD PTR [rip+0x0]        # 5f8 <CL_CheckForResend+0x28>
     5f8:	89 d1                	mov    ecx,edx
     5fa:	2b 0d 00 00 00 00    	sub    ecx,DWORD PTR [rip+0x0]        # 600 <CL_CheckForResend+0x30>
     600:	81 f9 b7 0b 00 00    	cmp    ecx,0xbb7
     606:	0f 8e bc 01 00 00    	jle    7c8 <CL_CheckForResend+0x1f8>
     60c:	41 54                	push   r12
     60e:	55                   	push   rbp
     60f:	53                   	push   rbx
     610:	48 81 ec 10 0c 00 00 	sub    rsp,0xc10
     617:	89 15 00 00 00 00    	mov    DWORD PTR [rip+0x0],edx        # 61d <CL_CheckForResend+0x4d>
     61d:	83 05 00 00 00 00 01 	add    DWORD PTR [rip+0x0],0x1        # 624 <CL_CheckForResend+0x54>
     624:	83 f8 04             	cmp    eax,0x4
     627:	0f 85 a3 01 00 00    	jne    7d0 <CL_CheckForResend+0x200>
     62d:	48 8d 3d 00 00 00 00 	lea    rdi,[rip+0x0]        # 634 <CL_CheckForResend+0x64>
     634:	48 8d 9c 24 10 04 00 	lea    rbx,[rsp+0x410]
     63b:	00 
     63c:	e8 00 00 00 00       	call   641 <CL_CheckForResend+0x71>
     641:	48 8d 74 24 0c       	lea    rsi,[rsp+0xc]
     646:	bf 02 00 00 00       	mov    edi,0x2
     64b:	c7 44 24 0c 00 00 00 	mov    DWORD PTR [rsp+0xc],0x0
     652:	00 
     653:	41 89 c4             	mov    r12d,eax
     656:	e8 00 00 00 00       	call   65b <CL_CheckForResend+0x8b>
     65b:	ba 00 08 00 00       	mov    edx,0x800
     660:	48 89 df             	mov    rdi,rbx
     663:	48 89 c6             	mov    rsi,rax
     666:	e8 00 00 00 00       	call   66b <CL_CheckForResend+0x9b>
     66b:	48 89 d8             	mov    rax,rbx
     66e:	8b 08                	mov    ecx,DWORD PTR [rax]
     670:	48 83 c0 04          	add    rax,0x4
     674:	8d 91 ff fe fe fe    	lea    edx,[rcx-0x1010101]
     67a:	f7 d1                	not    ecx
     67c:	21 ca                	and    edx,ecx
     67e:	81 e2 80 80 80 80    	and    edx,0x80808080
     684:	74 e8                	je     66e <CL_CheckForResend+0x9e>
     686:	89 d1                	mov    ecx,edx
     688:	c1 e9 10             	shr    ecx,0x10
     68b:	f7 c2 80 80 00 00    	test   edx,0x8080
     691:	0f 44 d1             	cmove  edx,ecx
     694:	48 8d 48 02          	lea    rcx,[rax+0x2]
     698:	48 0f 44 c1          	cmove  rax,rcx
     69c:	89 d6                	mov    esi,edx
     69e:	40 00 d6             	add    sil,dl
     6a1:	48 83 d8 03          	sbb    rax,0x3
     6a5:	48 29 d8             	sub    rax,rbx
     6a8:	48 3d b3 03 00 00    	cmp    rax,0x3b3
     6ae:	0f 87 5c 02 00 00    	ja     910 <CL_CheckForResend+0x340>
     6b4:	31 ed                	xor    ebp,ebp
     6b6:	48 3d f3 03 00 00    	cmp    rax,0x3f3
     6bc:	48 8b 05 00 00 00 00 	mov    rax,QWORD PTR [rip+0x0]        # 6c3 <CL_CheckForResend+0xf3>
     6c3:	40 0f 96 c5          	setbe  bpl
     6c7:	83 78 30 44          	cmp    DWORD PTR [rax+0x30],0x44
     6cb:	0f 84 4f 01 00 00    	je     820 <CL_CheckForResend+0x250>
     6d1:	48 8b 48 08          	mov    rcx,QWORD PTR [rax+0x8]
     6d5:	48 8d 15 00 00 00 00 	lea    rdx,[rip+0x0]        # 6dc <CL_CheckForResend+0x10c>
     6dc:	be f3 03 00 00       	mov    esi,0x3f3
     6e1:	48 89 df             	mov    rdi,rbx
     6e4:	e8 00 00 00 00       	call   6e9 <CL_CheckForResend+0x119>
     6e9:	44 89 e6             	mov    esi,r12d
     6ec:	48 8d 3d 00 00 00 00 	lea    rdi,[rip+0x0]        # 6f3 <CL_CheckForResend+0x123>
     6f3:	21 c5                	and    ebp,eax
     6f5:	31 c0                	xor    eax,eax
     6f7:	e8 00 00 00 00       	call   6fc <CL_CheckForResend+0x12c>
     6fc:	48 8d 15 00 00 00 00 	lea    rdx,[rip+0x0]        # 703 <CL_CheckForResend+0x133>
     703:	be f3 03 00 00       	mov    esi,0x3f3
     708:	48 89 df             	mov    rdi,rbx
     70b:	48 89 c1             	mov    rcx,rax
     70e:	e8 00 00 00 00       	call   713 <CL_CheckForResend+0x143>
     713:	8b 35 00 00 00 00    	mov    esi,DWORD PTR [rip+0x0]        # 719 <CL_CheckForResend+0x149>
     719:	48 8d 3d 00 00 00 00 	lea    rdi,[rip+0x0]        # 720 <CL_CheckForResend+0x150>
     720:	21 c5                	and    ebp,eax
     722:	31 c0                	xor    eax,eax
     724:	e8 00 00 00 00       	call   729 <CL_CheckForResend+0x159>
     729:	48 8d 15 00 00 00 00 	lea    rdx,[rip+0x0]        # 730 <CL_CheckForResend+0x160>
     730:	be f3 03 00 00       	mov    esi,0x3f3
     735:	48 89 df             	mov    rdi,rbx
     738:	48 89 c1             	mov    rcx,rax
     73b:	e8 00 00 00 00       	call   740 <CL_CheckForResend+0x170>
     740:	48 8d 0d 00 00 00 00 	lea    rcx,[rip+0x0]        # 747 <CL_CheckForResend+0x177>
     747:	be f3 03 00 00       	mov    esi,0x3f3
     74c:	48 89 df             	mov    rdi,rbx
     74f:	21 c5                	and    ebp,eax
     751:	48 8d 15 00 00 00 00 	lea    rdx,[rip+0x0]        # 758 <CL_CheckForResend+0x188>
     758:	e8 00 00 00 00       	call   75d <CL_CheckForResend+0x18d>
     75d:	85 ed                	test   ebp,ebp
     75f:	0f 84 2b 02 00 00    	je     990 <CL_CheckForResend+0x3c0>
     765:	48 8d 6c 24 10       	lea    rbp,[rsp+0x10]
     76a:	48 89 d9             	mov    rcx,rbx
     76d:	be 00 04 00 00       	mov    esi,0x400
     772:	31 c0                	xor    eax,eax
     774:	48 8d 15 00 00 00 00 	lea    rdx,[rip+0x0]        # 77b <CL_CheckForResend+0x1ab>
     77b:	48 89 ef             	mov    rdi,rbp
     77e:	e8 00 00 00 00       	call   783 <CL_CheckForResend+0x1b3>
     783:	48 89 ea             	mov    rdx,rbp
     786:	48 8d 35 00 00 00 00 	lea    rsi,[rip+0x0]        # 78d <CL_CheckForResend+0x1bd>
     78d:	31 ff                	xor    edi,edi
     78f:	89 c1                	mov    ecx,eax
     791:	e8 00 00 00 00       	call   796 <CL_CheckForResend+0x1c6>
     796:	8b 05 00 00 00 00    	mov    eax,DWORD PTR [rip+0x0]        # 79c <CL_CheckForResend+0x1cc>
     79c:	8b 54 24 0c          	mov    edx,DWORD PTR [rsp+0xc]
     7a0:	83 e0 fd             	and    eax,0xfffffffd
     7a3:	89 05 00 00 00 00    	mov    DWORD PTR [rip+0x0],eax        # 7a9 <CL_CheckForResend+0x1d9>
     7a9:	85 d2                	test   edx,edx
     7ab:	74 09                	je     7b6 <CL_CheckForResend+0x1e6>
     7ad:	83 c8 02             	or     eax,0x2
     7b0:	89 05 00 00 00 00    	mov    DWORD PTR [rip+0x0],eax        # 7b6 <CL_CheckForResend+0x1e6>
     7b6:	48 81 c4 10 0c 00 00 	add    rsp,0xc10
     7bd:	5b                   	pop    rbx
     7be:	5d                   	pop    rbp
     7bf:	41 5c                	pop    r12
     7c1:	c3                   	ret    
     7c2:	66 0f 1f 44 00 00    	nop    WORD PTR [rax+rax*1+0x0]
     7c8:	c3                   	ret    
     7c9:	0f 1f 80 00 00 00 00 	nop    DWORD PTR [rax+0x0]
     7d0:	48 8d 3d 00 00 00 00 	lea    rdi,[rip+0x0]        # 7d7 <CL_CheckForResend+0x207>
     7d7:	e8 00 00 00 00       	call   7dc <CL_CheckForResend+0x20c>
     7dc:	89 c3                	mov    ebx,eax
     7de:	85 c0                	test   eax,eax
     7e0:	75 09                	jne    7eb <CL_CheckForResend+0x21b>
     7e2:	83 3d 00 00 00 00 04 	cmp    DWORD PTR [rip+0x0],0x4        # 7e9 <CL_CheckForResend+0x219>
     7e9:	74 55                	je     840 <CL_CheckForResend+0x270>
     7eb:	8b 0d 00 00 00 00    	mov    ecx,DWORD PTR [rip+0x0]        # 7f1 <CL_CheckForResend+0x221>
     7f1:	4c 8d 05 00 00 00 00 	lea    r8,[rip+0x0]        # 7f8 <CL_CheckForResend+0x228>
     7f8:	31 ff                	xor    edi,edi
     7fa:	31 c0                	xor    eax,eax
     7fc:	48 8d 15 00 00 00 00 	lea    rdx,[rip+0x0]        # 803 <CL_CheckForResend+0x233>
     803:	48 8d 35 00 00 00 00 	lea    rsi,[rip+0x0]        # 80a <CL_CheckForResend+0x23a>
     80a:	e8 00 00 00 00       	call   80f <CL_CheckForResend+0x23f>
     80f:	48 81 c4 10 0c 00 00 	add    rsp,0xc10
     816:	5b                   	pop    rbx
     817:	5d                   	pop    rbp
     818:	41 5c                	pop    r12
     81a:	c3                   	ret    
     81b:	0f 1f 44 00 00       	nop    DWORD PTR [rax+rax*1+0x0]
     820:	8b 0d 00 00 00 00    	mov    ecx,DWORD PTR [rip+0x0]        # 826 <CL_CheckForResend+0x256>
     826:	48 8d 05 00 00 00 00 	lea    rax,[rip+0x0]        # 82d <CL_CheckForResend+0x25d>
     82d:	85 c9                	test   ecx,ecx
     82f:	48 8d 0d 00 00 00 00 	lea    rcx,[rip+0x0]        # 836 <CL_CheckForResend+0x266>
     836:	48 0f 44 c8          	cmove  rcx,rax
     83a:	e9 96 fe ff ff       	jmp    6d5 <CL_CheckForResend+0x105>
     83f:	90                   	nop
     840:	48 8d 3d 00 00 00 00 	lea    rdi,[rip+0x0]        # 847 <CL_CheckForResend+0x277>
     847:	e8 00 00 00 00       	call   84c <CL_CheckForResend+0x27c>
     84c:	85 c0                	test   eax,eax
     84e:	75 9b                	jne    7eb <CL_CheckForResend+0x21b>
     850:	66 83 3d 00 00 00 00 	cmp    WORD PTR [rip+0x0],0x0        # 858 <CL_CheckForResend+0x288>
     857:	00 
     858:	0f 84 7f 01 00 00    	je     9dd <CL_CheckForResend+0x40d>
     85e:	8b 35 00 00 00 00    	mov    esi,DWORD PTR [rip+0x0]        # 864 <CL_CheckForResend+0x294>
     864:	85 f6                	test   esi,esi
     866:	74 83                	je     7eb <CL_CheckForResend+0x21b>
     868:	48 8d 3d 00 00 00 00 	lea    rdi,[rip+0x0]        # 86f <CL_CheckForResend+0x29f>
     86f:	e8 00 00 00 00       	call   874 <CL_CheckForResend+0x2a4>
     874:	48 83 f8 21          	cmp    rax,0x21
     878:	0f 84 e6 01 00 00    	je     a64 <CL_CheckForResend+0x494>
     87e:	89 c7                	mov    edi,eax
     880:	48 85 c0             	test   rax,rax
     883:	74 39                	je     8be <CL_CheckForResend+0x2ee>
     885:	31 c0                	xor    eax,eax
     887:	48 8d 35 00 00 00 00 	lea    rsi,[rip+0x0]        # 88e <CL_CheckForResend+0x2be>
     88e:	66 90                	xchg   ax,ax
     890:	0f b6 14 06          	movzx  edx,BYTE PTR [rsi+rax*1]
     894:	8d 4a d0             	lea    ecx,[rdx-0x30]
     897:	80 f9 09             	cmp    cl,0x9
     89a:	76 0d                	jbe    8a9 <CL_CheckForResend+0x2d9>
     89c:	89 d1                	mov    ecx,edx
     89e:	83 e1 df             	and    ecx,0xffffffdf
     8a1:	83 e9 41             	sub    ecx,0x41
     8a4:	80 f9 19             	cmp    cl,0x19
     8a7:	77 0d                	ja     8b6 <CL_CheckForResend+0x2e6>
     8a9:	48 63 cb             	movsxd rcx,ebx
     8ac:	83 c3 01             	add    ebx,0x1
     8af:	88 94 0c 10 04 00 00 	mov    BYTE PTR [rsp+rcx*1+0x410],dl
     8b6:	48 83 c0 01          	add    rax,0x1
     8ba:	39 c7                	cmp    edi,eax
     8bc:	7f d2                	jg     890 <CL_CheckForResend+0x2c0>
     8be:	48 63 db             	movsxd rbx,ebx
     8c1:	ba 18 00 00 00       	mov    edx,0x18
     8c6:	48 8d 35 00 00 00 00 	lea    rsi,[rip+0x0]        # 8cd <CL_CheckForResend+0x2fd>
     8cd:	48 8d 3d 00 00 00 00 	lea    rdi,[rip+0x0]        # 8d4 <CL_CheckForResend+0x304>
     8d4:	c6 84 1c 10 04 00 00 	mov    BYTE PTR [rsp+rbx*1+0x410],0x0
     8db:	00 
     8dc:	e8 00 00 00 00       	call   8e1 <CL_CheckForResend+0x311>
     8e1:	4c 8d 84 24 10 04 00 	lea    r8,[rsp+0x410]
     8e8:	00 
     8e9:	48 8d 15 00 00 00 00 	lea    rdx,[rip+0x0]        # 8f0 <CL_CheckForResend+0x320>
     8f0:	31 ff                	xor    edi,edi
     8f2:	8b 48 30             	mov    ecx,DWORD PTR [rax+0x30]
     8f5:	48 8d 35 00 00 00 00 	lea    rsi,[rip+0x0]        # 8fc <CL_CheckForResend+0x32c>
     8fc:	31 c0                	xor    eax,eax
     8fe:	e8 00 00 00 00       	call   903 <CL_CheckForResend+0x333>
     903:	e9 e3 fe ff ff       	jmp    7eb <CL_CheckForResend+0x21b>
     908:	0f 1f 84 00 00 00 00 	nop    DWORD PTR [rax+rax*1+0x0]
     90f:	00 
     910:	48 8d 35 00 00 00 00 	lea    rsi,[rip+0x0]        # 917 <CL_CheckForResend+0x347>
     917:	48 89 df             	mov    rdi,rbx
     91a:	e8 00 00 00 00       	call   91f <CL_CheckForResend+0x34f>
     91f:	48 8d 35 00 00 00 00 	lea    rsi,[rip+0x0]        # 926 <CL_CheckForResend+0x356>
     926:	48 89 df             	mov    rdi,rbx
     929:	85 c0                	test   eax,eax
     92b:	0f 95 c0             	setne  al
     92e:	0f b6 c0             	movzx  eax,al
     931:	09 44 24 0c          	or     DWORD PTR [rsp+0xc],eax
     935:	e8 00 00 00 00       	call   93a <CL_CheckForResend+0x36a>
     93a:	85 c0                	test   eax,eax
     93c:	0f 95 c0             	setne  al
     93f:	0f b6 c0             	movzx  eax,al
     942:	09 44 24 0c          	or     DWORD PTR [rsp+0xc],eax
     946:	48 89 d8             	mov    rax,rbx
     949:	8b 08                	mov    ecx,DWORD PTR [rax]
     94b:	48 83 c0 04          	add    rax,0x4
     94f:	8d 91 ff fe fe fe    	lea    edx,[rcx-0x1010101]
     955:	f7 d1                	not    ecx
     957:	21 ca                	and    edx,ecx
     959:	81 e2 80 80 80 80    	and    edx,0x80808080
     95f:	74 e8                	je     949 <CL_CheckForResend+0x379>
     961:	89 d1                	mov    ecx,edx
     963:	c1 e9 10             	shr    ecx,0x10
     966:	f7 c2 80 80 00 00    	test   edx,0x8080
     96c:	0f 44 d1             	cmove  edx,ecx
     96f:	48 8d 48 02          	lea    rcx,[rax+0x2]
     973:	48 0f 44 c1          	cmove  rax,rcx
     977:	89 d7                	mov    edi,edx
     979:	40 00 d7             	add    dil,dl
     97c:	48 83 d8 03          	sbb    rax,0x3
     980:	48 29 d8             	sub    rax,rbx
     983:	e9 2c fd ff ff       	jmp    6b4 <CL_CheckForResend+0xe4>
     988:	0f 1f 84 00 00 00 00 	nop    DWORD PTR [rax+rax*1+0x0]
     98f:	00 
     990:	48 8d 3d 00 00 00 00 	lea    rdi,[rip+0x0]        # 997 <CL_CheckForResend+0x3c7>
     997:	31 c0                	xor    eax,eax
     999:	48 8d 6c 24 10       	lea    rbp,[rsp+0x10]
     99e:	e8 00 00 00 00       	call   9a3 <CL_CheckForResend+0x3d3>
     9a3:	48 89 d9             	mov    rcx,rbx
     9a6:	be 00 04 00 00       	mov    esi,0x400
     9ab:	48 89 ef             	mov    rdi,rbp
     9ae:	48 8d 15 00 00 00 00 	lea    rdx,[rip+0x0]        # 9b5 <CL_CheckForResend+0x3e5>
     9b5:	31 c0                	xor    eax,eax
     9b7:	e8 00 00 00 00       	call   9bc <CL_CheckForResend+0x3ec>
     9bc:	48 89 ea             	mov    rdx,rbp
     9bf:	48 8d 35 00 00 00 00 	lea    rsi,[rip+0x0]        # 9c6 <CL_CheckForResend+0x3f6>
     9c6:	31 ff                	xor    edi,edi
     9c8:	89 c1                	mov    ecx,eax
     9ca:	e8 00 00 00 00       	call   9cf <CL_CheckForResend+0x3ff>
     9cf:	8b 05 00 00 00 00    	mov    eax,DWORD PTR [rip+0x0]        # 9d5 <CL_CheckForResend+0x405>
     9d5:	83 e0 fd             	and    eax,0xfffffffd
     9d8:	e9 d0 fd ff ff       	jmp    7ad <CL_CheckForResend+0x1dd>
     9dd:	48 8d 35 00 00 00 00 	lea    rsi,[rip+0x0]        # 9e4 <CL_CheckForResend+0x414>
     9e4:	48 8d 3d 00 00 00 00 	lea    rdi,[rip+0x0]        # 9eb <CL_CheckForResend+0x41b>
     9eb:	e8 00 00 00 00       	call   9f0 <CL_CheckForResend+0x420>
     9f0:	ba 04 00 00 00       	mov    edx,0x4
     9f5:	48 8d 35 00 00 00 00 	lea    rsi,[rip+0x0]        # 9fc <CL_CheckForResend+0x42c>
     9fc:	48 8d 3d 00 00 00 00 	lea    rdi,[rip+0x0]        # a03 <CL_CheckForResend+0x433>
     a03:	e8 00 00 00 00       	call   a08 <CL_CheckForResend+0x438>
     a08:	85 c0                	test   eax,eax
     a0a:	74 62                	je     a6e <CL_CheckForResend+0x49e>
     a0c:	bf 30 6d 00 00       	mov    edi,0x6d30
     a11:	e8 00 00 00 00       	call   a16 <CL_CheckForResend+0x446>
     a16:	0f bf f8             	movsx  edi,ax
     a19:	66 89 05 00 00 00 00 	mov    WORD PTR [rip+0x0],ax        # a20 <CL_CheckForResend+0x450>
     a20:	e8 00 00 00 00       	call   a25 <CL_CheckForResend+0x455>
     a25:	44 0f b6 0d 00 00 00 	movzx  r9d,BYTE PTR [rip+0x0]        # a2d <CL_CheckForResend+0x45d>
     a2c:	00 
     a2d:	44 0f b6 05 00 00 00 	movzx  r8d,BYTE PTR [rip+0x0]        # a35 <CL_CheckForResend+0x465>
     a34:	00 
     a35:	48 8d 35 00 00 00 00 	lea    rsi,[rip+0x0]        # a3c <CL_CheckForResend+0x46c>
     a3c:	98                   	cwde   
     a3d:	0f b6 0d 00 00 00 00 	movzx  ecx,BYTE PTR [rip+0x0]        # a44 <CL_CheckForResend+0x474>
     a44:	0f b6 15 00 00 00 00 	movzx  edx,BYTE PTR [rip+0x0]        # a4b <CL_CheckForResend+0x47b>
     a4b:	57                   	push   rdi
     a4c:	50                   	push   rax
     a4d:	48 8d 3d 00 00 00 00 	lea    rdi,[rip+0x0]        # a54 <CL_CheckForResend+0x484>
     a54:	31 c0                	xor    eax,eax
     a56:	e8 00 00 00 00       	call   a5b <CL_CheckForResend+0x48b>
     a5b:	41 58                	pop    r8
     a5d:	41 59                	pop    r9
     a5f:	e9 fa fd ff ff       	jmp    85e <CL_CheckForResend+0x28e>
     a64:	bf 20 00 00 00       	mov    edi,0x20
     a69:	e9 17 fe ff ff       	jmp    885 <CL_CheckForResend+0x2b5>
     a6e:	48 8d 3d 00 00 00 00 	lea    rdi,[rip+0x0]        # a75 <CL_CheckForResend+0x4a5>
     a75:	e8 00 00 00 00       	call   a7a <CL_CheckForResend+0x4aa>
     a7a:	e9 6c fd ff ff       	jmp    7eb <CL_CheckForResend+0x21b>
     a7f:	90                   	nop

0000000000000a80 <CL_StopVideo_f>:
CL_StopVideo_f():
     a80:	e9 00 00 00 00       	jmp    a85 <CL_StopVideo_f+0x5>
     a85:	66 66 2e 0f 1f 84 00 	data16 nop WORD PTR cs:[rax+rax*1+0x0]
     a8c:	00 00 00 00 

0000000000000a90 <CL_UpdateGUID>:
CL_UpdateGUID():
     a90:	48 83 ec 08          	sub    rsp,0x8
     a94:	48 89 fa             	mov    rdx,rdi
     a97:	48 8d 3d 00 00 00 00 	lea    rdi,[rip+0x0]        # a9e <CL_UpdateGUID+0xe>
     a9e:	89 f1                	mov    ecx,esi
     aa0:	be 22 00 00 00       	mov    esi,0x22
     aa5:	e8 00 00 00 00       	call   aaa <CL_UpdateGUID+0x1a>
     aaa:	48 8d 3d 00 00 00 00 	lea    rdi,[rip+0x0]        # ab1 <CL_UpdateGUID+0x21>
     ab1:	48 83 c4 08          	add    rsp,0x8
     ab5:	48 89 c6             	mov    rsi,rax
     ab8:	e9 00 00 00 00       	jmp    abd <CL_UpdateGUID+0x2d>
     abd:	0f 1f 00             	nop    DWORD PTR [rax]

0000000000000ac0 <CL_OpenedPK3List_f>:
CL_OpenedPK3List_f():
     ac0:	48 83 ec 08          	sub    rsp,0x8
     ac4:	e8 00 00 00 00       	call   ac9 <CL_OpenedPK3List_f+0x9>
     ac9:	48 8d 3d 00 00 00 00 	lea    rdi,[rip+0x0]        # ad0 <CL_OpenedPK3List_f+0x10>
     ad0:	48 83 c4 08          	add    rsp,0x8
     ad4:	48 89 c6             	mov    rsi,rax
     ad7:	31 c0                	xor    eax,eax
     ad9:	e9 00 00 00 00       	jmp    ade <CL_OpenedPK3List_f+0x1e>
     ade:	66 90                	xchg   ax,ax

0000000000000ae0 <CL_SetServerInfo>:
CL_SetServerInfo():
     ae0:	48 85 ff             	test   rdi,rdi
     ae3:	0f 84 c7 01 00 00    	je     cb0 <CL_SetServerInfo+0x1d0>
     ae9:	41 54                	push   r12
     aeb:	41 89 d4             	mov    r12d,edx
     aee:	55                   	push   rbp
     aef:	48 89 f5             	mov    rbp,rsi
     af2:	53                   	push   rbx
     af3:	48 89 fb             	mov    rbx,rdi
     af6:	48 85 f6             	test   rsi,rsi
     af9:	0f 84 a4 01 00 00    	je     ca3 <CL_SetServerInfo+0x1c3>
     aff:	48 8d 35 00 00 00 00 	lea    rsi,[rip+0x0]        # b06 <CL_SetServerInfo+0x26>
     b06:	48 89 ef             	mov    rdi,rbp
     b09:	e8 00 00 00 00       	call   b0e <CL_SetServerInfo+0x2e>
     b0e:	ba 0a 00 00 00       	mov    edx,0xa
     b13:	31 f6                	xor    esi,esi
     b15:	48 89 c7             	mov    rdi,rax
     b18:	e8 00 00 00 00       	call   b1d <CL_SetServerInfo+0x3d>
     b1d:	48 8d 35 00 00 00 00 	lea    rsi,[rip+0x0]        # b24 <CL_SetServerInfo+0x44>
     b24:	48 89 ef             	mov    rdi,rbp
     b27:	89 83 88 00 00 00    	mov    DWORD PTR [rbx+0x88],eax
     b2d:	e8 00 00 00 00       	call   b32 <CL_SetServerInfo+0x52>
     b32:	ba 20 00 00 00       	mov    edx,0x20
     b37:	48 8d 7b 20          	lea    rdi,[rbx+0x20]
     b3b:	48 89 c6             	mov    rsi,rax
     b3e:	e8 00 00 00 00       	call   b43 <CL_SetServerInfo+0x63>
     b43:	48 8d 35 00 00 00 00 	lea    rsi,[rip+0x0]        # b4a <CL_SetServerInfo+0x6a>
     b4a:	48 89 ef             	mov    rdi,rbp
     b4d:	e8 00 00 00 00       	call   b52 <CL_SetServerInfo+0x72>
     b52:	ba 20 00 00 00       	mov    edx,0x20
     b57:	48 8d 7b 40          	lea    rdi,[rbx+0x40]
     b5b:	48 89 c6             	mov    rsi,rax
     b5e:	e8 00 00 00 00       	call   b63 <CL_SetServerInfo+0x83>
     b63:	48 8d 35 00 00 00 00 	lea    rsi,[rip+0x0]        # b6a <CL_SetServerInfo+0x8a>
     b6a:	48 89 ef             	mov    rdi,rbp
     b6d:	e8 00 00 00 00       	call   b72 <CL_SetServerInfo+0x92>
     b72:	ba 0a 00 00 00       	mov    edx,0xa
     b77:	31 f6                	xor    esi,esi
     b79:	48 89 c7             	mov    rdi,rax
     b7c:	e8 00 00 00 00       	call   b81 <CL_SetServerInfo+0xa1>
     b81:	48 8d 35 00 00 00 00 	lea    rsi,[rip+0x0]        # b88 <CL_SetServerInfo+0xa8>
     b88:	48 89 ef             	mov    rdi,rbp
     b8b:	89 83 8c 00 00 00    	mov    DWORD PTR [rbx+0x8c],eax
     b91:	e8 00 00 00 00       	call   b96 <CL_SetServerInfo+0xb6>
     b96:	ba 20 00 00 00       	mov    edx,0x20
     b9b:	48 8d 7b 60          	lea    rdi,[rbx+0x60]
     b9f:	48 89 c6             	mov    rsi,rax
     ba2:	e8 00 00 00 00       	call   ba7 <CL_SetServerInfo+0xc7>
     ba7:	48 8d 35 00 00 00 00 	lea    rsi,[rip+0x0]        # bae <CL_SetServerInfo+0xce>
     bae:	48 89 ef             	mov    rdi,rbp
     bb1:	e8 00 00 00 00       	call   bb6 <CL_SetServerInfo+0xd6>
     bb6:	ba 0a 00 00 00       	mov    edx,0xa
     bbb:	31 f6                	xor    esi,esi
     bbd:	48 89 c7             	mov    rdi,rax
     bc0:	e8 00 00 00 00       	call   bc5 <CL_SetServerInfo+0xe5>
     bc5:	48 8d 35 00 00 00 00 	lea    rsi,[rip+0x0]        # bcc <CL_SetServerInfo+0xec>
     bcc:	48 89 ef             	mov    rdi,rbp
     bcf:	89 83 84 00 00 00    	mov    DWORD PTR [rbx+0x84],eax
     bd5:	e8 00 00 00 00       	call   bda <CL_SetServerInfo+0xfa>
     bda:	ba 0a 00 00 00       	mov    edx,0xa
     bdf:	31 f6                	xor    esi,esi
     be1:	48 89 c7             	mov    rdi,rax
     be4:	e8 00 00 00 00       	call   be9 <CL_SetServerInfo+0x109>
     be9:	48 8d 35 00 00 00 00 	lea    rsi,[rip+0x0]        # bf0 <CL_SetServerInfo+0x110>
     bf0:	48 89 ef             	mov    rdi,rbp
     bf3:	89 83 80 00 00 00    	mov    DWORD PTR [rbx+0x80],eax
     bf9:	e8 00 00 00 00       	call   bfe <CL_SetServerInfo+0x11e>
     bfe:	ba 0a 00 00 00       	mov    edx,0xa
     c03:	31 f6                	xor    esi,esi
     c05:	48 89 c7             	mov    rdi,rax
     c08:	e8 00 00 00 00       	call   c0d <CL_SetServerInfo+0x12d>
     c0d:	48 8d 35 00 00 00 00 	lea    rsi,[rip+0x0]        # c14 <CL_SetServerInfo+0x134>
     c14:	48 89 ef             	mov    rdi,rbp
     c17:	89 83 90 00 00 00    	mov    DWORD PTR [rbx+0x90],eax
     c1d:	e8 00 00 00 00       	call   c22 <CL_SetServerInfo+0x142>
     c22:	ba 0a 00 00 00       	mov    edx,0xa
     c27:	31 f6                	xor    esi,esi
     c29:	48 89 c7             	mov    rdi,rax
     c2c:	e8 00 00 00 00       	call   c31 <CL_SetServerInfo+0x151>
     c31:	48 8d 35 00 00 00 00 	lea    rsi,[rip+0x0]        # c38 <CL_SetServerInfo+0x158>
     c38:	48 89 ef             	mov    rdi,rbp
     c3b:	89 83 94 00 00 00    	mov    DWORD PTR [rbx+0x94],eax
     c41:	e8 00 00 00 00       	call   c46 <CL_SetServerInfo+0x166>
     c46:	ba 0a 00 00 00       	mov    edx,0xa
     c4b:	31 f6                	xor    esi,esi
     c4d:	48 89 c7             	mov    rdi,rax
     c50:	e8 00 00 00 00       	call   c55 <CL_SetServerInfo+0x175>
     c55:	48 8d 35 00 00 00 00 	lea    rsi,[rip+0x0]        # c5c <CL_SetServerInfo+0x17c>
     c5c:	48 89 ef             	mov    rdi,rbp
     c5f:	89 83 a0 00 00 00    	mov    DWORD PTR [rbx+0xa0],eax
     c65:	e8 00 00 00 00       	call   c6a <CL_SetServerInfo+0x18a>
     c6a:	ba 0a 00 00 00       	mov    edx,0xa
     c6f:	31 f6                	xor    esi,esi
     c71:	48 89 c7             	mov    rdi,rax
     c74:	e8 00 00 00 00       	call   c79 <CL_SetServerInfo+0x199>
     c79:	48 8d 35 00 00 00 00 	lea    rsi,[rip+0x0]        # c80 <CL_SetServerInfo+0x1a0>
     c80:	48 89 ef             	mov    rdi,rbp
     c83:	89 83 a4 00 00 00    	mov    DWORD PTR [rbx+0xa4],eax
     c89:	e8 00 00 00 00       	call   c8e <CL_SetServerInfo+0x1ae>
     c8e:	ba 0a 00 00 00       	mov    edx,0xa
     c93:	31 f6                	xor    esi,esi
     c95:	48 89 c7             	mov    rdi,rax
     c98:	e8 00 00 00 00       	call   c9d <CL_SetServerInfo+0x1bd>
     c9d:	89 83 a8 00 00 00    	mov    DWORD PTR [rbx+0xa8],eax
     ca3:	44 89 a3 98 00 00 00 	mov    DWORD PTR [rbx+0x98],r12d
     caa:	5b                   	pop    rbx
     cab:	5d                   	pop    rbp
     cac:	41 5c                	pop    r12
     cae:	c3                   	ret    
     caf:	90                   	nop
     cb0:	c3                   	ret    
     cb1:	66 66 2e 0f 1f 84 00 	data16 nop WORD PTR cs:[rax+rax*1+0x0]
     cb8:	00 00 00 00 
     cbc:	0f 1f 40 00          	nop    DWORD PTR [rax+0x0]

0000000000000cc0 <CL_ServerStatusResponse>:
CL_ServerStatusResponse():
     cc0:	41 57                	push   r15
     cc2:	41 56                	push   r14
     cc4:	49 89 fe             	mov    r14,rdi
     cc7:	41 55                	push   r13
     cc9:	45 31 ed             	xor    r13d,r13d
     ccc:	41 54                	push   r12
     cce:	55                   	push   rbp
     ccf:	48 8d 2d 00 00 00 00 	lea    rbp,[rip+0x0]        # cd6 <CL_ServerStatusResponse+0x16>
     cd6:	53                   	push   rbx
     cd7:	31 db                	xor    ebx,ebx
     cd9:	48 81 ec 98 04 00 00 	sub    rsp,0x498
     ce0:	48 89 74 24 08       	mov    QWORD PTR [rsp+0x8],rsi
     ce5:	0f 1f 00             	nop    DWORD PTR [rax]
     ce8:	48 8d 05 00 00 00 00 	lea    rax,[rip+0x0]        # cef <CL_ServerStatusResponse+0x2f>
     cef:	4c 89 f7             	mov    rdi,r14
     cf2:	48 8d 34 18          	lea    rsi,[rax+rbx*1]
     cf6:	e8 00 00 00 00       	call   cfb <CL_ServerStatusResponse+0x3b>
     cfb:	85 c0                	test   eax,eax
     cfd:	75 29                	jne    d28 <CL_ServerStatusResponse+0x68>
     cff:	41 83 c5 01          	add    r13d,0x1
     d03:	48 81 c3 38 20 00 00 	add    rbx,0x2038
     d0a:	41 83 fd 10          	cmp    r13d,0x10
     d0e:	75 d8                	jne    ce8 <CL_ServerStatusResponse+0x28>
     d10:	48 81 c4 98 04 00 00 	add    rsp,0x498
     d17:	5b                   	pop    rbx
     d18:	5d                   	pop    rbp
     d19:	41 5c                	pop    r12
     d1b:	41 5d                	pop    r13
     d1d:	41 5e                	pop    r14
     d1f:	41 5f                	pop    r15
     d21:	c3                   	ret    
     d22:	66 0f 1f 44 00 00    	nop    WORD PTR [rax+rax*1+0x0]
     d28:	48 8b 7c 24 08       	mov    rdi,QWORD PTR [rsp+0x8]
     d2d:	4c 8d 64 1d 00       	lea    r12,[rbp+rbx*1+0x0]
     d32:	e8 00 00 00 00       	call   d37 <CL_ServerStatusResponse+0x77>
     d37:	be 00 20 00 00       	mov    esi,0x2000
     d3c:	48 8d 15 00 00 00 00 	lea    rdx,[rip+0x0]        # d43 <CL_ServerStatusResponse+0x83>
     d43:	4c 89 e7             	mov    rdi,r12
     d46:	48 89 c1             	mov    rcx,rax
     d49:	49 89 c7             	mov    r15,rax
     d4c:	31 c0                	xor    eax,eax
     d4e:	e8 00 00 00 00       	call   d53 <CL_ServerStatusResponse+0x93>
     d53:	49 63 c5             	movsxd rax,r13d
     d56:	48 89 44 24 28       	mov    QWORD PTR [rsp+0x28],rax
     d5b:	48 69 c0 38 20 00 00 	imul   rax,rax,0x2038
     d62:	8b b4 05 2c 20 00 00 	mov    esi,DWORD PTR [rbp+rax*1+0x202c]
     d69:	85 f6                	test   esi,esi
     d6b:	0f 85 a9 02 00 00    	jne    101a <CL_ServerStatusResponse+0x35a>
     d71:	4c 89 e0             	mov    rax,r12
     d74:	8b 08                	mov    ecx,DWORD PTR [rax]
     d76:	48 83 c0 04          	add    rax,0x4
     d7a:	8d 91 ff fe fe fe    	lea    edx,[rcx-0x1010101]
     d80:	f7 d1                	not    ecx
     d82:	21 ca                	and    edx,ecx
     d84:	81 e2 80 80 80 80    	and    edx,0x80808080
     d8a:	74 e8                	je     d74 <CL_ServerStatusResponse+0xb4>
     d8c:	89 d1                	mov    ecx,edx
     d8e:	be 00 20 00 00       	mov    esi,0x2000
     d93:	c1 e9 10             	shr    ecx,0x10
     d96:	f7 c2 80 80 00 00    	test   edx,0x8080
     d9c:	0f 44 d1             	cmove  edx,ecx
     d9f:	48 8d 48 02          	lea    rcx,[rax+0x2]
     da3:	48 0f 44 c1          	cmove  rax,rcx
     da7:	89 d7                	mov    edi,edx
     da9:	40 00 d7             	add    dil,dl
     dac:	48 8d 15 00 00 00 00 	lea    rdx,[rip+0x0]        # db3 <CL_ServerStatusResponse+0xf3>
     db3:	48 83 d8 03          	sbb    rax,0x3
     db7:	4c 29 e0             	sub    rax,r12
     dba:	48 63 f8             	movsxd rdi,eax
     dbd:	29 c6                	sub    esi,eax
     dbf:	31 c0                	xor    eax,eax
     dc1:	48 01 df             	add    rdi,rbx
     dc4:	48 01 ef             	add    rdi,rbp
     dc7:	e8 00 00 00 00       	call   dcc <CL_ServerStatusResponse+0x10c>
     dcc:	48 69 44 24 28 38 20 	imul   rax,QWORD PTR [rsp+0x28],0x2038
     dd3:	00 00 
     dd5:	8b 8c 05 2c 20 00 00 	mov    ecx,DWORD PTR [rbp+rax*1+0x202c]
     ddc:	85 c9                	test   ecx,ecx
     dde:	0f 85 fb 02 00 00    	jne    10df <CL_ServerStatusResponse+0x41f>
     de4:	48 8b 7c 24 08       	mov    rdi,QWORD PTR [rsp+0x8]
     de9:	45 31 ff             	xor    r15d,r15d
     dec:	e8 00 00 00 00       	call   df1 <CL_ServerStatusResponse+0x131>
     df1:	80 38 00             	cmp    BYTE PTR [rax],0x0
     df4:	49 89 c5             	mov    r13,rax
     df7:	0f 84 68 01 00 00    	je     f65 <CL_ServerStatusResponse+0x2a5>
     dfd:	48 8d 74 24 50       	lea    rsi,[rsp+0x50]
     e02:	48 8d 7c 24 40       	lea    rdi,[rsp+0x40]
     e07:	4c 89 74 24 38       	mov    QWORD PTR [rsp+0x38],r14
     e0c:	48 69 44 24 28 38 20 	imul   rax,QWORD PTR [rsp+0x28],0x2038
     e13:	00 00 
     e15:	48 89 74 24 10       	mov    QWORD PTR [rsp+0x10],rsi
     e1a:	48 89 7c 24 30       	mov    QWORD PTR [rsp+0x30],rdi
     e1f:	49 89 c6             	mov    r14,rax
     e22:	eb 1e                	jmp    e42 <CL_ServerStatusResponse+0x182>
     e24:	0f 1f 40 00          	nop    DWORD PTR [rax+0x0]
     e28:	48 8b 7c 24 08       	mov    rdi,QWORD PTR [rsp+0x8]
     e2d:	41 83 c7 01          	add    r15d,0x1
     e31:	e8 00 00 00 00       	call   e36 <CL_ServerStatusResponse+0x176>
     e36:	80 38 00             	cmp    BYTE PTR [rax],0x0
     e39:	49 89 c5             	mov    r13,rax
     e3c:	0f 84 1e 01 00 00    	je     f60 <CL_ServerStatusResponse+0x2a0>
     e42:	4c 89 e0             	mov    rax,r12
     e45:	8b 08                	mov    ecx,DWORD PTR [rax]
     e47:	48 83 c0 04          	add    rax,0x4
     e4b:	8d 91 ff fe fe fe    	lea    edx,[rcx-0x1010101]
     e51:	f7 d1                	not    ecx
     e53:	21 ca                	and    edx,ecx
     e55:	81 e2 80 80 80 80    	and    edx,0x80808080
     e5b:	74 e8                	je     e45 <CL_ServerStatusResponse+0x185>
     e5d:	89 d1                	mov    ecx,edx
     e5f:	c1 e9 10             	shr    ecx,0x10
     e62:	f7 c2 80 80 00 00    	test   edx,0x8080
     e68:	0f 44 d1             	cmove  edx,ecx
     e6b:	48 8d 48 02          	lea    rcx,[rax+0x2]
     e6f:	48 0f 44 c1          	cmove  rax,rcx
     e73:	4c 89 e9             	mov    rcx,r13
     e76:	89 d6                	mov    esi,edx
     e78:	40 00 d6             	add    sil,dl
     e7b:	be 00 20 00 00       	mov    esi,0x2000
     e80:	48 8d 15 00 00 00 00 	lea    rdx,[rip+0x0]        # e87 <CL_ServerStatusResponse+0x1c7>
     e87:	48 83 d8 03          	sbb    rax,0x3
     e8b:	4c 29 e0             	sub    rax,r12
     e8e:	48 63 f8             	movsxd rdi,eax
     e91:	29 c6                	sub    esi,eax
     e93:	31 c0                	xor    eax,eax
     e95:	48 01 df             	add    rdi,rbx
     e98:	48 01 ef             	add    rdi,rbp
     e9b:	e8 00 00 00 00       	call   ea0 <CL_ServerStatusResponse+0x1e0>
     ea0:	42 8b 84 35 2c 20 00 	mov    eax,DWORD PTR [rbp+r14*1+0x202c]
     ea7:	00 
     ea8:	85 c0                	test   eax,eax
     eaa:	0f 84 78 ff ff ff    	je     e28 <CL_ServerStatusResponse+0x168>
     eb0:	48 8b 7c 24 10       	mov    rdi,QWORD PTR [rsp+0x10]
     eb5:	ba 40 00 00 00       	mov    edx,0x40
     eba:	4c 89 ee             	mov    rsi,r13
     ebd:	e8 00 00 00 00       	call   ec2 <CL_ServerStatusResponse+0x202>
     ec2:	48 8b 74 24 30       	mov    rsi,QWORD PTR [rsp+0x30]
     ec7:	48 8b 7c 24 10       	mov    rdi,QWORD PTR [rsp+0x10]
     ecc:	b9 20 00 00 00       	mov    ecx,0x20
     ed1:	ba 02 00 00 00       	mov    edx,0x2
     ed6:	e8 00 00 00 00       	call   edb <CL_ServerStatusResponse+0x21b>
     edb:	48 8b 7c 24 40       	mov    rdi,QWORD PTR [rsp+0x40]
     ee0:	ba 0a 00 00 00       	mov    edx,0xa
     ee5:	31 f6                	xor    esi,esi
     ee7:	e8 00 00 00 00       	call   eec <CL_ServerStatusResponse+0x22c>
     eec:	48 8b 7c 24 48       	mov    rdi,QWORD PTR [rsp+0x48]
     ef1:	ba 0a 00 00 00       	mov    edx,0xa
     ef6:	31 f6                	xor    esi,esi
     ef8:	48 89 44 24 20       	mov    QWORD PTR [rsp+0x20],rax
     efd:	e8 00 00 00 00       	call   f02 <CL_ServerStatusResponse+0x242>
     f02:	be 20 00 00 00       	mov    esi,0x20
     f07:	4c 89 ef             	mov    rdi,r13
     f0a:	48 89 44 24 18       	mov    QWORD PTR [rsp+0x18],rax
     f0f:	e8 00 00 00 00       	call   f14 <CL_ServerStatusResponse+0x254>
     f14:	4c 8d 05 00 00 00 00 	lea    r8,[rip+0x0]        # f1b <CL_ServerStatusResponse+0x25b>
     f1b:	48 85 c0             	test   rax,rax
     f1e:	74 1b                	je     f3b <CL_ServerStatusResponse+0x27b>
     f20:	48 8d 78 01          	lea    rdi,[rax+0x1]
     f24:	be 20 00 00 00       	mov    esi,0x20
     f29:	e8 00 00 00 00       	call   f2e <CL_ServerStatusResponse+0x26e>
     f2e:	48 85 c0             	test   rax,rax
     f31:	0f 84 c9 01 00 00    	je     1100 <CL_ServerStatusResponse+0x440>
     f37:	4c 8d 40 01          	lea    r8,[rax+0x1]
     f3b:	8b 4c 24 18          	mov    ecx,DWORD PTR [rsp+0x18]
     f3f:	8b 54 24 20          	mov    edx,DWORD PTR [rsp+0x20]
     f43:	44 89 fe             	mov    esi,r15d
     f46:	31 c0                	xor    eax,eax
     f48:	48 8d 3d 00 00 00 00 	lea    rdi,[rip+0x0]        # f4f <CL_ServerStatusResponse+0x28f>
     f4f:	e8 00 00 00 00       	call   f54 <CL_ServerStatusResponse+0x294>
     f54:	e9 cf fe ff ff       	jmp    e28 <CL_ServerStatusResponse+0x168>
     f59:	0f 1f 80 00 00 00 00 	nop    DWORD PTR [rax+0x0]
     f60:	4c 8b 74 24 38       	mov    r14,QWORD PTR [rsp+0x38]
     f65:	4c 89 e0             	mov    rax,r12
     f68:	8b 08                	mov    ecx,DWORD PTR [rax]
     f6a:	48 83 c0 04          	add    rax,0x4
     f6e:	8d 91 ff fe fe fe    	lea    edx,[rcx-0x1010101]
     f74:	f7 d1                	not    ecx
     f76:	21 ca                	and    edx,ecx
     f78:	81 e2 80 80 80 80    	and    edx,0x80808080
     f7e:	74 e8                	je     f68 <CL_ServerStatusResponse+0x2a8>
     f80:	89 d1                	mov    ecx,edx
     f82:	be 00 20 00 00       	mov    esi,0x2000
     f87:	c1 e9 10             	shr    ecx,0x10
     f8a:	f7 c2 80 80 00 00    	test   edx,0x8080
     f90:	0f 44 d1             	cmove  edx,ecx
     f93:	48 8d 48 02          	lea    rcx,[rax+0x2]
     f97:	48 0f 44 c1          	cmove  rax,rcx
     f9b:	89 d7                	mov    edi,edx
     f9d:	40 00 d7             	add    dil,dl
     fa0:	48 8d 15 00 00 00 00 	lea    rdx,[rip+0x0]        # fa7 <CL_ServerStatusResponse+0x2e7>
     fa7:	48 83 d8 03          	sbb    rax,0x3
     fab:	4c 29 e0             	sub    rax,r12
     fae:	48 63 f8             	movsxd rdi,eax
     fb1:	29 c6                	sub    esi,eax
     fb3:	31 c0                	xor    eax,eax
     fb5:	48 01 df             	add    rdi,rbx
     fb8:	48 01 ef             	add    rdi,rbp
     fbb:	e8 00 00 00 00       	call   fc0 <CL_ServerStatusResponse+0x300>
     fc0:	e8 00 00 00 00       	call   fc5 <CL_ServerStatusResponse+0x305>
     fc5:	48 69 54 24 28 38 20 	imul   rdx,QWORD PTR [rsp+0x28],0x2038
     fcc:	00 00 
     fce:	48 01 d5             	add    rbp,rdx
     fd1:	89 85 20 20 00 00    	mov    DWORD PTR [rbp+0x2020],eax
     fd7:	48 8d 05 00 00 00 00 	lea    rax,[rip+0x0]        # fde <CL_ServerStatusResponse+0x31e>
     fde:	f3 41 0f 6f 06       	movdqu xmm0,XMMWORD PTR [r14]
     fe3:	48 01 c2             	add    rdx,rax
     fe6:	0f 11 02             	movups XMMWORD PTR [rdx],xmm0
     fe9:	f3 41 0f 6f 4e 10    	movdqu xmm1,XMMWORD PTR [r14+0x10]
     fef:	c7 85 28 20 00 00 00 	mov    DWORD PTR [rbp+0x2028],0x0
     ff6:	00 00 00 
     ff9:	0f 11 4a 10          	movups XMMWORD PTR [rdx+0x10],xmm1
     ffd:	8b 95 2c 20 00 00    	mov    edx,DWORD PTR [rbp+0x202c]
    1003:	85 d2                	test   edx,edx
    1005:	0f 84 05 fd ff ff    	je     d10 <CL_ServerStatusResponse+0x50>
    100b:	c7 85 30 20 00 00 01 	mov    DWORD PTR [rbp+0x2030],0x1
    1012:	00 00 00 
    1015:	e9 f6 fc ff ff       	jmp    d10 <CL_ServerStatusResponse+0x50>
    101a:	48 8d 3d 00 00 00 00 	lea    rdi,[rip+0x0]        # 1021 <CL_ServerStatusResponse+0x361>
    1021:	31 c0                	xor    eax,eax
    1023:	4c 8d ac 24 90 00 00 	lea    r13,[rsp+0x90]
    102a:	00 
    102b:	e8 00 00 00 00       	call   1030 <CL_ServerStatusResponse+0x370>
    1030:	48 89 5c 24 10       	mov    QWORD PTR [rsp+0x10],rbx
    1035:	0f 1f 00             	nop    DWORD PTR [rax]
    1038:	41 0f b6 07          	movzx  eax,BYTE PTR [r15]
    103c:	84 c0                	test   al,al
    103e:	74 71                	je     10b1 <CL_ServerStatusResponse+0x3f1>
    1040:	31 db                	xor    ebx,ebx
    1042:	3c 5c                	cmp    al,0x5c
    1044:	4c 89 e9             	mov    rcx,r13
    1047:	0f 94 c0             	sete   al
    104a:	31 d2                	xor    edx,edx
    104c:	0f b6 c0             	movzx  eax,al
    104f:	49 01 c7             	add    r15,rax
    1052:	41 0f b6 07          	movzx  eax,BYTE PTR [r15]
    1056:	eb 25                	jmp    107d <CL_ServerStatusResponse+0x3bd>
    1058:	0f 1f 84 00 00 00 00 	nop    DWORD PTR [rax+rax*1+0x0]
    105f:	00 
    1060:	83 c2 01             	add    edx,0x1
    1063:	88 01                	mov    BYTE PTR [rcx],al
    1065:	81 fa ff 03 00 00    	cmp    edx,0x3ff
    106b:	74 14                	je     1081 <CL_ServerStatusResponse+0x3c1>
    106d:	49 83 c7 01          	add    r15,0x1
    1071:	41 0f b6 07          	movzx  eax,BYTE PTR [r15]
    1075:	48 83 c1 01          	add    rcx,0x1
    1079:	3c 5c                	cmp    al,0x5c
    107b:	74 04                	je     1081 <CL_ServerStatusResponse+0x3c1>
    107d:	84 c0                	test   al,al
    107f:	75 df                	jne    1060 <CL_ServerStatusResponse+0x3a0>
    1081:	48 63 d2             	movsxd rdx,edx
    1084:	4c 89 ee             	mov    rsi,r13
    1087:	c6 84 14 90 00 00 00 	mov    BYTE PTR [rsp+rdx*1+0x90],0x0
    108e:	00 
    108f:	85 db                	test   ebx,ebx
    1091:	74 2d                	je     10c0 <CL_ServerStatusResponse+0x400>
    1093:	31 c0                	xor    eax,eax
    1095:	48 8d 3d 00 00 00 00 	lea    rdi,[rip+0x0]        # 109c <CL_ServerStatusResponse+0x3dc>
    109c:	e8 00 00 00 00       	call   10a1 <CL_ServerStatusResponse+0x3e1>
    10a1:	83 fb 01             	cmp    ebx,0x1
    10a4:	74 92                	je     1038 <CL_ServerStatusResponse+0x378>
    10a6:	41 0f b6 07          	movzx  eax,BYTE PTR [r15]
    10aa:	83 c3 01             	add    ebx,0x1
    10ad:	84 c0                	test   al,al
    10af:	75 91                	jne    1042 <CL_ServerStatusResponse+0x382>
    10b1:	48 8b 5c 24 10       	mov    rbx,QWORD PTR [rsp+0x10]
    10b6:	e9 b6 fc ff ff       	jmp    d71 <CL_ServerStatusResponse+0xb1>
    10bb:	0f 1f 44 00 00       	nop    DWORD PTR [rax+rax*1+0x0]
    10c0:	31 c0                	xor    eax,eax
    10c2:	48 8d 3d 00 00 00 00 	lea    rdi,[rip+0x0]        # 10c9 <CL_ServerStatusResponse+0x409>
    10c9:	83 c3 01             	add    ebx,0x1
    10cc:	e8 00 00 00 00       	call   10d1 <CL_ServerStatusResponse+0x411>
    10d1:	41 0f b6 07          	movzx  eax,BYTE PTR [r15]
    10d5:	84 c0                	test   al,al
    10d7:	0f 85 65 ff ff ff    	jne    1042 <CL_ServerStatusResponse+0x382>
    10dd:	eb d2                	jmp    10b1 <CL_ServerStatusResponse+0x3f1>
    10df:	31 c0                	xor    eax,eax
    10e1:	48 8d 3d 00 00 00 00 	lea    rdi,[rip+0x0]        # 10e8 <CL_ServerStatusResponse+0x428>
    10e8:	e8 00 00 00 00       	call   10ed <CL_ServerStatusResponse+0x42d>
    10ed:	48 8d 3d 00 00 00 00 	lea    rdi,[rip+0x0]        # 10f4 <CL_ServerStatusResponse+0x434>
    10f4:	31 c0                	xor    eax,eax
    10f6:	e8 00 00 00 00       	call   10fb <CL_ServerStatusResponse+0x43b>
    10fb:	e9 e4 fc ff ff       	jmp    de4 <CL_ServerStatusResponse+0x124>
    1100:	4c 8d 05 00 00 00 00 	lea    r8,[rip+0x0]        # 1107 <CL_ServerStatusResponse+0x447>
    1107:	e9 2f fe ff ff       	jmp    f3b <CL_ServerStatusResponse+0x27b>
    110c:	0f 1f 40 00          	nop    DWORD PTR [rax+0x0]

0000000000001110 <CL_InitRef>:
CL_InitRef():
    1110:	53                   	push   rbx
    1111:	ba 20 00 00 00       	mov    edx,0x20
    1116:	48 8d 35 00 00 00 00 	lea    rsi,[rip+0x0]        # 111d <CL_InitRef+0xd>
    111d:	48 8d 3d 00 00 00 00 	lea    rdi,[rip+0x0]        # 1124 <CL_InitRef+0x14>
    1124:	48 81 ec c0 11 00 00 	sub    rsp,0x11c0
    112b:	e8 00 00 00 00       	call   1130 <CL_InitRef+0x20>
    1130:	ba 01 40 00 00       	mov    edx,0x4001
    1135:	48 8d 35 00 00 00 00 	lea    rsi,[rip+0x0]        # 113c <CL_InitRef+0x2c>
    113c:	48 8d 3d 00 00 00 00 	lea    rdi,[rip+0x0]        # 1143 <CL_InitRef+0x33>
    1143:	48 89 05 00 00 00 00 	mov    QWORD PTR [rip+0x0],rax        # 114a <CL_InitRef+0x3a>
    114a:	e8 00 00 00 00       	call   114f <CL_InitRef+0x3f>
    114f:	ba 21 40 00 00       	mov    edx,0x4021
    1154:	48 8d 35 00 00 00 00 	lea    rsi,[rip+0x0]        # 115b <CL_InitRef+0x4b>
    115b:	48 8d 3d 00 00 00 00 	lea    rdi,[rip+0x0]        # 1162 <CL_InitRef+0x52>
    1162:	48 89 05 00 00 00 00 	mov    QWORD PTR [rip+0x0],rax        # 1169 <CL_InitRef+0x59>
    1169:	e8 00 00 00 00       	call   116e <CL_InitRef+0x5e>
    116e:	ba 20 00 00 00       	mov    edx,0x20
    1173:	48 8d 35 00 00 00 00 	lea    rsi,[rip+0x0]        # 117a <CL_InitRef+0x6a>
    117a:	48 8d 3d 00 00 00 00 	lea    rdi,[rip+0x0]        # 1181 <CL_InitRef+0x71>
    1181:	48 89 05 00 00 00 00 	mov    QWORD PTR [rip+0x0],rax        # 1188 <CL_InitRef+0x78>
    1188:	e8 00 00 00 00       	call   118d <CL_InitRef+0x7d>
    118d:	b9 02 00 00 00       	mov    ecx,0x2
    1192:	48 8d 15 00 00 00 00 	lea    rdx,[rip+0x0]        # 1199 <CL_InitRef+0x89>
    1199:	48 8d 35 00 00 00 00 	lea    rsi,[rip+0x0]        # 11a0 <CL_InitRef+0x90>
    11a0:	48 89 c7             	mov    rdi,rax
    11a3:	48 89 05 00 00 00 00 	mov    QWORD PTR [rip+0x0],rax        # 11aa <CL_InitRef+0x9a>
    11aa:	e8 00 00 00 00       	call   11af <CL_InitRef+0x9f>
    11af:	48 8b 3d 00 00 00 00 	mov    rdi,QWORD PTR [rip+0x0]        # 11b6 <CL_InitRef+0xa6>
    11b6:	48 8d 35 00 00 00 00 	lea    rsi,[rip+0x0]        # 11bd <CL_InitRef+0xad>
    11bd:	e8 00 00 00 00       	call   11c2 <CL_InitRef+0xb2>
    11c2:	ba 01 00 00 00       	mov    edx,0x1
    11c7:	48 8d 35 00 00 00 00 	lea    rsi,[rip+0x0]        # 11ce <CL_InitRef+0xbe>
    11ce:	48 8d 3d 00 00 00 00 	lea    rdi,[rip+0x0]        # 11d5 <CL_InitRef+0xc5>
    11d5:	e8 00 00 00 00       	call   11da <CL_InitRef+0xca>
    11da:	ba 01 00 00 00       	mov    edx,0x1
    11df:	48 8d 35 00 00 00 00 	lea    rsi,[rip+0x0]        # 11e6 <CL_InitRef+0xd6>
    11e6:	48 8d 3d 00 00 00 00 	lea    rdi,[rip+0x0]        # 11ed <CL_InitRef+0xdd>
    11ed:	48 89 05 00 00 00 00 	mov    QWORD PTR [rip+0x0],rax        # 11f4 <CL_InitRef+0xe4>
    11f4:	e8 00 00 00 00       	call   11f9 <CL_InitRef+0xe9>
    11f9:	48 8b 3d 00 00 00 00 	mov    rdi,QWORD PTR [rip+0x0]        # 1200 <CL_InitRef+0xf0>
    1200:	31 d2                	xor    edx,edx
    1202:	31 f6                	xor    esi,esi
    1204:	b9 02 00 00 00       	mov    ecx,0x2
    1209:	48 89 05 00 00 00 00 	mov    QWORD PTR [rip+0x0],rax        # 1210 <CL_InitRef+0x100>
    1210:	e8 00 00 00 00       	call   1215 <CL_InitRef+0x105>
    1215:	48 8b 3d 00 00 00 00 	mov    rdi,QWORD PTR [rip+0x0]        # 121c <CL_InitRef+0x10c>
    121c:	31 d2                	xor    edx,edx
    121e:	31 f6                	xor    esi,esi
    1220:	b9 02 00 00 00       	mov    ecx,0x2
    1225:	e8 00 00 00 00       	call   122a <CL_InitRef+0x11a>
    122a:	ba 21 40 00 00       	mov    edx,0x4021
    122f:	48 8d 35 00 00 00 00 	lea    rsi,[rip+0x0]        # 1236 <CL_InitRef+0x126>
    1236:	48 8d 3d 00 00 00 00 	lea    rdi,[rip+0x0]        # 123d <CL_InitRef+0x12d>
    123d:	e8 00 00 00 00       	call   1242 <CL_InitRef+0x132>
    1242:	b9 02 00 00 00       	mov    ecx,0x2
    1247:	48 8d 15 00 00 00 00 	lea    rdx,[rip+0x0]        # 124e <CL_InitRef+0x13e>
    124e:	48 8d 35 00 00 00 00 	lea    rsi,[rip+0x0]        # 1255 <CL_InitRef+0x145>
    1255:	48 89 c7             	mov    rdi,rax
    1258:	48 89 05 00 00 00 00 	mov    QWORD PTR [rip+0x0],rax        # 125f <CL_InitRef+0x14f>
    125f:	e8 00 00 00 00       	call   1264 <CL_InitRef+0x154>
    1264:	ba 21 00 00 00       	mov    edx,0x21
    1269:	48 8d 35 00 00 00 00 	lea    rsi,[rip+0x0]        # 1270 <CL_InitRef+0x160>
    1270:	48 8d 3d 00 00 00 00 	lea    rdi,[rip+0x0]        # 1277 <CL_InitRef+0x167>
    1277:	e8 00 00 00 00       	call   127c <CL_InitRef+0x16c>
    127c:	ba 21 00 00 00       	mov    edx,0x21
    1281:	48 8d 35 00 00 00 00 	lea    rsi,[rip+0x0]        # 1288 <CL_InitRef+0x178>
    1288:	48 8d 3d 00 00 00 00 	lea    rdi,[rip+0x0]        # 128f <CL_InitRef+0x17f>
    128f:	48 89 05 00 00 00 00 	mov    QWORD PTR [rip+0x0],rax        # 1296 <CL_InitRef+0x186>
    1296:	e8 00 00 00 00       	call   129b <CL_InitRef+0x18b>
    129b:	be 18 00 00 00       	mov    esi,0x18
    12a0:	48 8d 3d 00 00 00 00 	lea    rdi,[rip+0x0]        # 12a7 <CL_InitRef+0x197>
    12a7:	48 89 05 00 00 00 00 	mov    QWORD PTR [rip+0x0],rax        # 12ae <CL_InitRef+0x19e>
    12ae:	31 c0                	xor    eax,eax
    12b0:	e8 00 00 00 00       	call   12b5 <CL_InitRef+0x1a5>
    12b5:	48 8b 3d 00 00 00 00 	mov    rdi,QWORD PTR [rip+0x0]        # 12bc <CL_InitRef+0x1ac>
    12bc:	b9 02 00 00 00       	mov    ecx,0x2
    12c1:	48 8d 35 00 00 00 00 	lea    rsi,[rip+0x0]        # 12c8 <CL_InitRef+0x1b8>
    12c8:	48 89 c2             	mov    rdx,rax
    12cb:	e8 00 00 00 00       	call   12d0 <CL_InitRef+0x1c0>
    12d0:	48 8b 3d 00 00 00 00 	mov    rdi,QWORD PTR [rip+0x0]        # 12d7 <CL_InitRef+0x1c7>
    12d7:	48 8d 35 00 00 00 00 	lea    rsi,[rip+0x0]        # 12de <CL_InitRef+0x1ce>
    12de:	e8 00 00 00 00       	call   12e3 <CL_InitRef+0x1d3>
    12e3:	48 8b 3d 00 00 00 00 	mov    rdi,QWORD PTR [rip+0x0]        # 12ea <CL_InitRef+0x1da>
    12ea:	48 8d 35 00 00 00 00 	lea    rsi,[rip+0x0]        # 12f1 <CL_InitRef+0x1e1>
    12f1:	e8 00 00 00 00       	call   12f6 <CL_InitRef+0x1e6>
    12f6:	ba 21 00 00 00       	mov    edx,0x21
    12fb:	48 8d 35 00 00 00 00 	lea    rsi,[rip+0x0]        # 1302 <CL_InitRef+0x1f2>
    1302:	48 8d 3d 00 00 00 00 	lea    rdi,[rip+0x0]        # 1309 <CL_InitRef+0x1f9>
    1309:	e8 00 00 00 00       	call   130e <CL_InitRef+0x1fe>
    130e:	ba 21 40 00 00       	mov    edx,0x4021
    1313:	48 8d 35 00 00 00 00 	lea    rsi,[rip+0x0]        # 131a <CL_InitRef+0x20a>
    131a:	48 8d 3d 00 00 00 00 	lea    rdi,[rip+0x0]        # 1321 <CL_InitRef+0x211>
    1321:	48 89 05 00 00 00 00 	mov    QWORD PTR [rip+0x0],rax        # 1328 <CL_InitRef+0x218>
    1328:	e8 00 00 00 00       	call   132d <CL_InitRef+0x21d>
    132d:	ba 21 00 00 00       	mov    edx,0x21
    1332:	48 8d 35 00 00 00 00 	lea    rsi,[rip+0x0]        # 1339 <CL_InitRef+0x229>
    1339:	48 8d 3d 00 00 00 00 	lea    rdi,[rip+0x0]        # 1340 <CL_InitRef+0x230>
    1340:	48 89 05 00 00 00 00 	mov    QWORD PTR [rip+0x0],rax        # 1347 <CL_InitRef+0x237>
    1347:	e8 00 00 00 00       	call   134c <CL_InitRef+0x23c>
    134c:	ba 21 00 00 00       	mov    edx,0x21
    1351:	48 8d 35 00 00 00 00 	lea    rsi,[rip+0x0]        # 1358 <CL_InitRef+0x248>
    1358:	48 8d 3d 00 00 00 00 	lea    rdi,[rip+0x0]        # 135f <CL_InitRef+0x24f>
    135f:	48 89 05 00 00 00 00 	mov    QWORD PTR [rip+0x0],rax        # 1366 <CL_InitRef+0x256>
    1366:	e8 00 00 00 00       	call   136b <CL_InitRef+0x25b>
    136b:	48 8b 3d 00 00 00 00 	mov    rdi,QWORD PTR [rip+0x0]        # 1372 <CL_InitRef+0x262>
    1372:	31 d2                	xor    edx,edx
    1374:	b9 02 00 00 00       	mov    ecx,0x2
    1379:	48 8d 35 00 00 00 00 	lea    rsi,[rip+0x0]        # 1380 <CL_InitRef+0x270>
    1380:	48 89 05 00 00 00 00 	mov    QWORD PTR [rip+0x0],rax        # 1387 <CL_InitRef+0x277>
    1387:	e8 00 00 00 00       	call   138c <CL_InitRef+0x27c>
    138c:	48 8b 3d 00 00 00 00 	mov    rdi,QWORD PTR [rip+0x0]        # 1393 <CL_InitRef+0x283>
    1393:	31 d2                	xor    edx,edx
    1395:	b9 02 00 00 00       	mov    ecx,0x2
    139a:	48 8d 35 00 00 00 00 	lea    rsi,[rip+0x0]        # 13a1 <CL_InitRef+0x291>
    13a1:	e8 00 00 00 00       	call   13a6 <CL_InitRef+0x296>
    13a6:	48 8b 3d 00 00 00 00 	mov    rdi,QWORD PTR [rip+0x0]        # 13ad <CL_InitRef+0x29d>
    13ad:	48 8d 35 00 00 00 00 	lea    rsi,[rip+0x0]        # 13b4 <CL_InitRef+0x2a4>
    13b4:	e8 00 00 00 00       	call   13b9 <CL_InitRef+0x2a9>
    13b9:	48 8b 3d 00 00 00 00 	mov    rdi,QWORD PTR [rip+0x0]        # 13c0 <CL_InitRef+0x2b0>
    13c0:	48 8d 35 00 00 00 00 	lea    rsi,[rip+0x0]        # 13c7 <CL_InitRef+0x2b7>
    13c7:	e8 00 00 00 00       	call   13cc <CL_InitRef+0x2bc>
    13cc:	ba 21 40 00 00       	mov    edx,0x4021
    13d1:	48 8d 35 00 00 00 00 	lea    rsi,[rip+0x0]        # 13d8 <CL_InitRef+0x2c8>
    13d8:	48 8d 3d 00 00 00 00 	lea    rdi,[rip+0x0]        # 13df <CL_InitRef+0x2cf>
    13df:	e8 00 00 00 00       	call   13e4 <CL_InitRef+0x2d4>
    13e4:	b9 02 00 00 00       	mov    ecx,0x2
    13e9:	48 8d 15 00 00 00 00 	lea    rdx,[rip+0x0]        # 13f0 <CL_InitRef+0x2e0>
    13f0:	48 8d 35 00 00 00 00 	lea    rsi,[rip+0x0]        # 13f7 <CL_InitRef+0x2e7>
    13f7:	48 89 c7             	mov    rdi,rax
    13fa:	48 89 05 00 00 00 00 	mov    QWORD PTR [rip+0x0],rax        # 1401 <CL_InitRef+0x2f1>
    1401:	e8 00 00 00 00       	call   1406 <CL_InitRef+0x2f6>
    1406:	ba 21 40 00 00       	mov    edx,0x4021
    140b:	48 8d 35 00 00 00 00 	lea    rsi,[rip+0x0]        # 1412 <CL_InitRef+0x302>
    1412:	48 8d 3d 00 00 00 00 	lea    rdi,[rip+0x0]        # 1419 <CL_InitRef+0x309>
    1419:	e8 00 00 00 00       	call   141e <CL_InitRef+0x30e>
    141e:	b9 02 00 00 00       	mov    ecx,0x2
    1423:	48 8d 15 00 00 00 00 	lea    rdx,[rip+0x0]        # 142a <CL_InitRef+0x31a>
    142a:	48 8d 35 00 00 00 00 	lea    rsi,[rip+0x0]        # 1431 <CL_InitRef+0x321>
    1431:	48 89 c7             	mov    rdi,rax
    1434:	48 89 05 00 00 00 00 	mov    QWORD PTR [rip+0x0],rax        # 143b <CL_InitRef+0x32b>
    143b:	e8 00 00 00 00       	call   1440 <CL_InitRef+0x330>
    1440:	ba 21 40 00 00       	mov    edx,0x4021
    1445:	48 8d 35 00 00 00 00 	lea    rsi,[rip+0x0]        # 144c <CL_InitRef+0x33c>
    144c:	48 8d 3d 00 00 00 00 	lea    rdi,[rip+0x0]        # 1453 <CL_InitRef+0x343>
    1453:	e8 00 00 00 00       	call   1458 <CL_InitRef+0x348>
    1458:	b9 02 00 00 00       	mov    ecx,0x2
    145d:	48 8d 15 00 00 00 00 	lea    rdx,[rip+0x0]        # 1464 <CL_InitRef+0x354>
    1464:	48 8d 35 00 00 00 00 	lea    rsi,[rip+0x0]        # 146b <CL_InitRef+0x35b>
    146b:	48 89 c7             	mov    rdi,rax
    146e:	48 89 05 00 00 00 00 	mov    QWORD PTR [rip+0x0],rax        # 1475 <CL_InitRef+0x365>
    1475:	e8 00 00 00 00       	call   147a <CL_InitRef+0x36a>
    147a:	ba 00 02 00 00       	mov    edx,0x200
    147f:	48 8d 35 00 00 00 00 	lea    rsi,[rip+0x0]        # 1486 <CL_InitRef+0x376>
    1486:	48 8d 3d 00 00 00 00 	lea    rdi,[rip+0x0]        # 148d <CL_InitRef+0x37d>
    148d:	e8 00 00 00 00       	call   1492 <CL_InitRef+0x382>
    1492:	ba 21 00 00 00       	mov    edx,0x21
    1497:	48 8d 35 00 00 00 00 	lea    rsi,[rip+0x0]        # 149e <CL_InitRef+0x38e>
    149e:	48 8d 3d 00 00 00 00 	lea    rdi,[rip+0x0]        # 14a5 <CL_InitRef+0x395>
    14a5:	48 89 05 00 00 00 00 	mov    QWORD PTR [rip+0x0],rax        # 14ac <CL_InitRef+0x39c>
    14ac:	e8 00 00 00 00       	call   14b1 <CL_InitRef+0x3a1>
    14b1:	48 8b 50 08          	mov    rdx,QWORD PTR [rax+0x8]
    14b5:	48 89 05 00 00 00 00 	mov    QWORD PTR [rip+0x0],rax        # 14bc <CL_InitRef+0x3ac>
    14bc:	0f b6 02             	movzx  eax,BYTE PTR [rdx]
    14bf:	84 c0                	test   al,al
    14c1:	74 28                	je     14eb <CL_InitRef+0x3db>
    14c3:	0f 1f 44 00 00       	nop    DWORD PTR [rax+rax*1+0x0]
    14c8:	89 c1                	mov    ecx,eax
    14ca:	83 e1 df             	and    ecx,0xffffffdf
    14cd:	83 e9 41             	sub    ecx,0x41
    14d0:	80 f9 19             	cmp    cl,0x19
    14d3:	76 0b                	jbe    14e0 <CL_InitRef+0x3d0>
    14d5:	83 e8 31             	sub    eax,0x31
    14d8:	3c 08                	cmp    al,0x8
    14da:	0f 87 f0 03 00 00    	ja     18d0 <CL_InitRef+0x7c0>
    14e0:	48 83 c2 01          	add    rdx,0x1
    14e4:	0f b6 02             	movzx  eax,BYTE PTR [rdx]
    14e7:	84 c0                	test   al,al
    14e9:	75 dd                	jne    14c8 <CL_InitRef+0x3b8>
    14eb:	48 8d 3d 00 00 00 00 	lea    rdi,[rip+0x0]        # 14f2 <CL_InitRef+0x3e2>
    14f2:	31 c0                	xor    eax,eax
    14f4:	48 8d 9c 24 c0 01 00 	lea    rbx,[rsp+0x1c0]
    14fb:	00 
    14fc:	e8 00 00 00 00       	call   1501 <CL_InitRef+0x3f1>
    1501:	48 8b 05 00 00 00 00 	mov    rax,QWORD PTR [rip+0x0]        # 1508 <CL_InitRef+0x3f8>
    1508:	be 00 10 00 00       	mov    esi,0x1000
    150d:	48 89 df             	mov    rdi,rbx
    1510:	48 8d 15 00 00 00 00 	lea    rdx,[rip+0x0]        # 1517 <CL_InitRef+0x407>
    1517:	48 8b 48 08          	mov    rcx,QWORD PTR [rax+0x8]
    151b:	31 c0                	xor    eax,eax
    151d:	e8 00 00 00 00       	call   1522 <CL_InitRef+0x412>
    1522:	48 89 df             	mov    rdi,rbx
    1525:	e8 00 00 00 00       	call   152a <CL_InitRef+0x41a>
    152a:	48 89 05 00 00 00 00 	mov    QWORD PTR [rip+0x0],rax        # 1531 <CL_InitRef+0x421>
    1531:	48 85 c0             	test   rax,rax
    1534:	0f 84 ae 03 00 00    	je     18e8 <CL_InitRef+0x7d8>
    153a:	48 8d 35 00 00 00 00 	lea    rsi,[rip+0x0]        # 1541 <CL_InitRef+0x431>
    1541:	48 89 c7             	mov    rdi,rax
    1544:	e8 00 00 00 00       	call   1549 <CL_InitRef+0x439>
    1549:	48 85 c0             	test   rax,rax
    154c:	0f 84 fc 03 00 00    	je     194e <CL_InitRef+0x83e>
    1552:	48 8b 15 00 00 00 00 	mov    rdx,QWORD PTR [rip+0x0]        # 1559 <CL_InitRef+0x449>
    1559:	48 8d 1d 20 04 00 00 	lea    rbx,[rip+0x420]        # 1980 <CL_RefPrintf>
    1560:	bf 08 00 00 00       	mov    edi,0x8
    1565:	48 89 e6             	mov    rsi,rsp
    1568:	48 89 1c 24          	mov    QWORD PTR [rsp],rbx
    156c:	48 8d 1d 00 00 00 00 	lea    rbx,[rip+0x0]        # 1573 <CL_InitRef+0x463>
    1573:	c7 42 24 00 00 00 00 	mov    DWORD PTR [rdx+0x24],0x0
    157a:	48 8b 15 00 00 00 00 	mov    rdx,QWORD PTR [rip+0x0]        # 1581 <CL_InitRef+0x471>
    1581:	48 89 5c 24 10       	mov    QWORD PTR [rsp+0x10],rbx
    1586:	48 8d 1d e3 03 00 00 	lea    rbx,[rip+0x3e3]        # 1970 <CL_RefMalloc>
    158d:	48 89 94 24 a8 00 00 	mov    QWORD PTR [rsp+0xa8],rdx
    1594:	00 
    1595:	48 8b 15 00 00 00 00 	mov    rdx,QWORD PTR [rip+0x0]        # 159c <CL_InitRef+0x48c>
    159c:	48 89 5c 24 38       	mov    QWORD PTR [rsp+0x38],rbx
    15a1:	48 8d 1d b8 03 00 00 	lea    rbx,[rip+0x3b8]        # 1960 <CL_RefFreeAll>
    15a8:	48 89 94 24 b0 00 00 	mov    QWORD PTR [rsp+0xb0],rdx
    15af:	00 
    15b0:	48 8b 15 00 00 00 00 	mov    rdx,QWORD PTR [rip+0x0]        # 15b7 <CL_InitRef+0x4a7>
    15b7:	48 89 5c 24 48       	mov    QWORD PTR [rsp+0x48],rbx
    15bc:	48 8d 1d 3d ea ff ff 	lea    rbx,[rip+0xffffffffffffea3d]        # 0 <CL_IsMininized>
    15c3:	48 89 94 24 b8 00 00 	mov    QWORD PTR [rsp+0xb8],rdx
    15ca:	00 
    15cb:	48 8b 15 00 00 00 00 	mov    rdx,QWORD PTR [rip+0x0]        # 15d2 <CL_InitRef+0x4c2>
    15d2:	48 89 94 24 c0 00 00 	mov    QWORD PTR [rsp+0xc0],rdx
    15d9:	00 
    15da:	48 8b 15 00 00 00 00 	mov    rdx,QWORD PTR [rip+0x0]        # 15e1 <CL_InitRef+0x4d1>
    15e1:	48 89 94 24 c8 00 00 	mov    QWORD PTR [rsp+0xc8],rdx
    15e8:	00 
    15e9:	48 8b 15 00 00 00 00 	mov    rdx,QWORD PTR [rip+0x0]        # 15f0 <CL_InitRef+0x4e0>
    15f0:	48 89 54 24 08       	mov    QWORD PTR [rsp+0x8],rdx
    15f5:	48 8b 15 00 00 00 00 	mov    rdx,QWORD PTR [rip+0x0]        # 15fc <CL_InitRef+0x4ec>
    15fc:	48 89 54 24 18       	mov    QWORD PTR [rsp+0x18],rdx
    1601:	48 8b 15 00 00 00 00 	mov    rdx,QWORD PTR [rip+0x0]        # 1608 <CL_InitRef+0x4f8>
    1608:	48 89 54 24 40       	mov    QWORD PTR [rsp+0x40],rdx
    160d:	48 8b 15 00 00 00 00 	mov    rdx,QWORD PTR [rip+0x0]        # 1614 <CL_InitRef+0x504>
    1614:	48 89 54 24 20       	mov    QWORD PTR [rsp+0x20],rdx
    1619:	48 8b 15 00 00 00 00 	mov    rdx,QWORD PTR [rip+0x0]        # 1620 <CL_InitRef+0x510>
    1620:	48 89 54 24 28       	mov    QWORD PTR [rsp+0x28],rdx
    1625:	48 8b 15 00 00 00 00 	mov    rdx,QWORD PTR [rip+0x0]        # 162c <CL_InitRef+0x51c>
    162c:	48 89 54 24 30       	mov    QWORD PTR [rsp+0x30],rdx
    1631:	48 8b 15 00 00 00 00 	mov    rdx,QWORD PTR [rip+0x0]        # 1638 <CL_InitRef+0x528>
    1638:	48 89 94 24 d0 00 00 	mov    QWORD PTR [rsp+0xd0],rdx
    163f:	00 
    1640:	48 8b 15 00 00 00 00 	mov    rdx,QWORD PTR [rip+0x0]        # 1647 <CL_InitRef+0x537>
    1647:	48 89 94 24 d8 00 00 	mov    QWORD PTR [rsp+0xd8],rdx
    164e:	00 
    164f:	48 8b 15 00 00 00 00 	mov    rdx,QWORD PTR [rip+0x0]        # 1656 <CL_InitRef+0x546>
    1656:	48 89 94 24 e0 00 00 	mov    QWORD PTR [rsp+0xe0],rdx
    165d:	00 
    165e:	48 8b 15 00 00 00 00 	mov    rdx,QWORD PTR [rip+0x0]        # 1665 <CL_InitRef+0x555>
    1665:	48 89 94 24 e8 00 00 	mov    QWORD PTR [rsp+0xe8],rdx
    166c:	00 
    166d:	48 8b 15 00 00 00 00 	mov    rdx,QWORD PTR [rip+0x0]        # 1674 <CL_InitRef+0x564>
    1674:	48 89 94 24 00 01 00 	mov    QWORD PTR [rsp+0x100],rdx
    167b:	00 
    167c:	48 8b 15 00 00 00 00 	mov    rdx,QWORD PTR [rip+0x0]        # 1683 <CL_InitRef+0x573>
    1683:	48 89 94 24 f8 00 00 	mov    QWORD PTR [rsp+0xf8],rdx
    168a:	00 
    168b:	48 8b 15 00 00 00 00 	mov    rdx,QWORD PTR [rip+0x0]        # 1692 <CL_InitRef+0x582>
    1692:	48 89 94 24 f0 00 00 	mov    QWORD PTR [rsp+0xf0],rdx
    1699:	00 
    169a:	48 8b 15 00 00 00 00 	mov    rdx,QWORD PTR [rip+0x0]        # 16a1 <CL_InitRef+0x591>
    16a1:	48 89 94 24 08 01 00 	mov    QWORD PTR [rsp+0x108],rdx
    16a8:	00 
    16a9:	48 8b 15 00 00 00 00 	mov    rdx,QWORD PTR [rip+0x0]        # 16b0 <CL_InitRef+0x5a0>
    16b0:	48 89 54 24 50       	mov    QWORD PTR [rsp+0x50],rdx
    16b5:	48 8b 15 00 00 00 00 	mov    rdx,QWORD PTR [rip+0x0]        # 16bc <CL_InitRef+0x5ac>
    16bc:	48 89 54 24 58       	mov    QWORD PTR [rsp+0x58],rdx
    16c1:	48 8b 15 00 00 00 00 	mov    rdx,QWORD PTR [rip+0x0]        # 16c8 <CL_InitRef+0x5b8>
    16c8:	48 89 54 24 60       	mov    QWORD PTR [rsp+0x60],rdx
    16cd:	48 8b 15 00 00 00 00 	mov    rdx,QWORD PTR [rip+0x0]        # 16d4 <CL_InitRef+0x5c4>
    16d4:	48 89 54 24 68       	mov    QWORD PTR [rsp+0x68],rdx
    16d9:	48 8b 15 00 00 00 00 	mov    rdx,QWORD PTR [rip+0x0]        # 16e0 <CL_InitRef+0x5d0>
    16e0:	48 89 54 24 70       	mov    QWORD PTR [rsp+0x70],rdx
    16e5:	48 8b 15 00 00 00 00 	mov    rdx,QWORD PTR [rip+0x0]        # 16ec <CL_InitRef+0x5dc>
    16ec:	48 89 94 24 90 00 00 	mov    QWORD PTR [rsp+0x90],rdx
    16f3:	00 
    16f4:	48 8b 15 00 00 00 00 	mov    rdx,QWORD PTR [rip+0x0]        # 16fb <CL_InitRef+0x5eb>
    16fb:	48 89 94 24 98 00 00 	mov    QWORD PTR [rsp+0x98],rdx
    1702:	00 
    1703:	48 8b 15 00 00 00 00 	mov    rdx,QWORD PTR [rip+0x0]        # 170a <CL_InitRef+0x5fa>
    170a:	48 89 94 24 a0 00 00 	mov    QWORD PTR [rsp+0xa0],rdx
    1711:	00 
    1712:	48 8b 15 00 00 00 00 	mov    rdx,QWORD PTR [rip+0x0]        # 1719 <CL_InitRef+0x609>
    1719:	48 89 54 24 78       	mov    QWORD PTR [rsp+0x78],rdx
    171e:	48 8b 15 00 00 00 00 	mov    rdx,QWORD PTR [rip+0x0]        # 1725 <CL_InitRef+0x615>
    1725:	48 89 94 24 80 00 00 	mov    QWORD PTR [rsp+0x80],rdx
    172c:	00 
    172d:	48 8b 15 00 00 00 00 	mov    rdx,QWORD PTR [rip+0x0]        # 1734 <CL_InitRef+0x624>
    1734:	48 89 9c 24 48 01 00 	mov    QWORD PTR [rsp+0x148],rbx
    173b:	00 
    173c:	48 8d 1d cd e8 ff ff 	lea    rbx,[rip+0xffffffffffffe8cd]        # 10 <CL_SetScaling>
    1743:	48 89 94 24 88 00 00 	mov    QWORD PTR [rsp+0x88],rdx
    174a:	00 
    174b:	48 8b 15 00 00 00 00 	mov    rdx,QWORD PTR [rip+0x0]        # 1752 <CL_InitRef+0x642>
    1752:	48 89 9c 24 50 01 00 	mov    QWORD PTR [rsp+0x150],rbx
    1759:	00 
    175a:	48 89 94 24 10 01 00 	mov    QWORD PTR [rsp+0x110],rdx
    1761:	00 
    1762:	48 8b 15 00 00 00 00 	mov    rdx,QWORD PTR [rip+0x0]        # 1769 <CL_InitRef+0x659>
    1769:	48 89 94 24 18 01 00 	mov    QWORD PTR [rsp+0x118],rdx
    1770:	00 
    1771:	48 8b 15 00 00 00 00 	mov    rdx,QWORD PTR [rip+0x0]        # 1778 <CL_InitRef+0x668>
    1778:	48 89 94 24 20 01 00 	mov    QWORD PTR [rsp+0x120],rdx
    177f:	00 
    1780:	48 8b 15 00 00 00 00 	mov    rdx,QWORD PTR [rip+0x0]        # 1787 <CL_InitRef+0x677>
    1787:	48 89 94 24 28 01 00 	mov    QWORD PTR [rsp+0x128],rdx
    178e:	00 
    178f:	48 8b 15 00 00 00 00 	mov    rdx,QWORD PTR [rip+0x0]        # 1796 <CL_InitRef+0x686>
    1796:	48 89 94 24 30 01 00 	mov    QWORD PTR [rsp+0x130],rdx
    179d:	00 
    179e:	48 8b 15 00 00 00 00 	mov    rdx,QWORD PTR [rip+0x0]        # 17a5 <CL_InitRef+0x695>
    17a5:	48 89 94 24 38 01 00 	mov    QWORD PTR [rsp+0x138],rdx
    17ac:	00 
    17ad:	48 8b 15 00 00 00 00 	mov    rdx,QWORD PTR [rip+0x0]        # 17b4 <CL_InitRef+0x6a4>
    17b4:	48 89 94 24 40 01 00 	mov    QWORD PTR [rsp+0x140],rdx
    17bb:	00 
    17bc:	48 8b 15 00 00 00 00 	mov    rdx,QWORD PTR [rip+0x0]        # 17c3 <CL_InitRef+0x6b3>
    17c3:	48 89 94 24 58 01 00 	mov    QWORD PTR [rsp+0x158],rdx
    17ca:	00 
    17cb:	48 8b 15 00 00 00 00 	mov    rdx,QWORD PTR [rip+0x0]        # 17d2 <CL_InitRef+0x6c2>
    17d2:	48 89 94 24 60 01 00 	mov    QWORD PTR [rsp+0x160],rdx
    17d9:	00 
    17da:	48 8b 15 00 00 00 00 	mov    rdx,QWORD PTR [rip+0x0]        # 17e1 <CL_InitRef+0x6d1>
    17e1:	48 89 94 24 68 01 00 	mov    QWORD PTR [rsp+0x168],rdx
    17e8:	00 
    17e9:	48 8b 15 00 00 00 00 	mov    rdx,QWORD PTR [rip+0x0]        # 17f0 <CL_InitRef+0x6e0>
    17f0:	48 89 94 24 70 01 00 	mov    QWORD PTR [rsp+0x170],rdx
    17f7:	00 
    17f8:	48 8b 15 00 00 00 00 	mov    rdx,QWORD PTR [rip+0x0]        # 17ff <CL_InitRef+0x6ef>
    17ff:	48 89 94 24 78 01 00 	mov    QWORD PTR [rsp+0x178],rdx
    1806:	00 
    1807:	48 8b 15 00 00 00 00 	mov    rdx,QWORD PTR [rip+0x0]        # 180e <CL_InitRef+0x6fe>
    180e:	48 89 94 24 98 01 00 	mov    QWORD PTR [rsp+0x198],rdx
    1815:	00 
    1816:	48 8b 15 00 00 00 00 	mov    rdx,QWORD PTR [rip+0x0]        # 181d <CL_InitRef+0x70d>
    181d:	48 89 94 24 80 01 00 	mov    QWORD PTR [rsp+0x180],rdx
    1824:	00 
    1825:	48 8b 15 00 00 00 00 	mov    rdx,QWORD PTR [rip+0x0]        # 182c <CL_InitRef+0x71c>
    182c:	48 89 94 24 88 01 00 	mov    QWORD PTR [rsp+0x188],rdx
    1833:	00 
    1834:	48 8b 15 00 00 00 00 	mov    rdx,QWORD PTR [rip+0x0]        # 183b <CL_InitRef+0x72b>
    183b:	48 89 94 24 90 01 00 	mov    QWORD PTR [rsp+0x190],rdx
    1842:	00 
    1843:	48 8b 15 00 00 00 00 	mov    rdx,QWORD PTR [rip+0x0]        # 184a <CL_InitRef+0x73a>
    184a:	48 89 94 24 a0 01 00 	mov    QWORD PTR [rsp+0x1a0],rdx
    1851:	00 
    1852:	48 8b 15 00 00 00 00 	mov    rdx,QWORD PTR [rip+0x0]        # 1859 <CL_InitRef+0x749>
    1859:	48 89 94 24 a8 01 00 	mov    QWORD PTR [rsp+0x1a8],rdx
    1860:	00 
    1861:	48 8b 15 00 00 00 00 	mov    rdx,QWORD PTR [rip+0x0]        # 1868 <CL_InitRef+0x758>
    1868:	48 89 94 24 b0 01 00 	mov    QWORD PTR [rsp+0x1b0],rdx
    186f:	00 
    1870:	48 8b 15 00 00 00 00 	mov    rdx,QWORD PTR [rip+0x0]        # 1877 <CL_InitRef+0x767>
    1877:	48 89 94 24 b8 01 00 	mov    QWORD PTR [rsp+0x1b8],rdx
    187e:	00 
    187f:	ff d0                	call   rax
    1881:	48 8d 3d 00 00 00 00 	lea    rdi,[rip+0x0]        # 1888 <CL_InitRef+0x778>
    1888:	48 89 c3             	mov    rbx,rax
    188b:	31 c0                	xor    eax,eax
    188d:	e8 00 00 00 00       	call   1892 <CL_InitRef+0x782>
    1892:	48 85 db             	test   rbx,rbx
    1895:	0f 84 a3 00 00 00    	je     193e <CL_InitRef+0x82e>
    189b:	48 89 de             	mov    rsi,rbx
    189e:	48 8d 3d 00 00 00 00 	lea    rdi,[rip+0x0]        # 18a5 <CL_InitRef+0x795>
    18a5:	b9 26 00 00 00       	mov    ecx,0x26
    18aa:	f3 48 a5             	rep movs QWORD PTR es:[rdi],QWORD PTR ds:[rsi]
    18ad:	48 8d 35 00 00 00 00 	lea    rsi,[rip+0x0]        # 18b4 <CL_InitRef+0x7a4>
    18b4:	48 8d 3d 00 00 00 00 	lea    rdi,[rip+0x0]        # 18bb <CL_InitRef+0x7ab>
    18bb:	e8 00 00 00 00       	call   18c0 <CL_InitRef+0x7b0>
    18c0:	48 81 c4 c0 11 00 00 	add    rsp,0x11c0
    18c7:	5b                   	pop    rbx
    18c8:	c3                   	ret    
    18c9:	0f 1f 80 00 00 00 00 	nop    DWORD PTR [rax+0x0]
    18d0:	48 8d 3d 00 00 00 00 	lea    rdi,[rip+0x0]        # 18d7 <CL_InitRef+0x7c7>
    18d7:	e8 00 00 00 00       	call   18dc <CL_InitRef+0x7cc>
    18dc:	e9 0a fc ff ff       	jmp    14eb <CL_InitRef+0x3db>
    18e1:	0f 1f 80 00 00 00 00 	nop    DWORD PTR [rax+0x0]
    18e8:	48 8d 3d 00 00 00 00 	lea    rdi,[rip+0x0]        # 18ef <CL_InitRef+0x7df>
    18ef:	e8 00 00 00 00       	call   18f4 <CL_InitRef+0x7e4>
    18f4:	48 8b 05 00 00 00 00 	mov    rax,QWORD PTR [rip+0x0]        # 18fb <CL_InitRef+0x7eb>
    18fb:	be 00 10 00 00       	mov    esi,0x1000
    1900:	48 89 df             	mov    rdi,rbx
    1903:	48 8d 15 00 00 00 00 	lea    rdx,[rip+0x0]        # 190a <CL_InitRef+0x7fa>
    190a:	48 8b 48 08          	mov    rcx,QWORD PTR [rax+0x8]
    190e:	31 c0                	xor    eax,eax
    1910:	e8 00 00 00 00       	call   1915 <CL_InitRef+0x805>
    1915:	48 89 df             	mov    rdi,rbx
    1918:	e8 00 00 00 00       	call   191d <CL_InitRef+0x80d>
    191d:	48 89 05 00 00 00 00 	mov    QWORD PTR [rip+0x0],rax        # 1924 <CL_InitRef+0x814>
    1924:	48 85 c0             	test   rax,rax
    1927:	0f 85 0d fc ff ff    	jne    153a <CL_InitRef+0x42a>
    192d:	48 89 da             	mov    rdx,rbx
    1930:	48 8d 35 00 00 00 00 	lea    rsi,[rip+0x0]        # 1937 <CL_InitRef+0x827>
    1937:	31 ff                	xor    edi,edi
    1939:	e8 00 00 00 00       	call   193e <CL_InitRef+0x82e>
    193e:	48 8d 35 00 00 00 00 	lea    rsi,[rip+0x0]        # 1945 <CL_InitRef+0x835>
    1945:	31 ff                	xor    edi,edi
    1947:	31 c0                	xor    eax,eax
    1949:	e8 00 00 00 00       	call   194e <CL_InitRef+0x83e>
    194e:	48 8d 35 00 00 00 00 	lea    rsi,[rip+0x0]        # 1955 <CL_InitRef+0x845>
    1955:	31 ff                	xor    edi,edi
    1957:	e8 00 00 00 00       	call   195c <CL_InitRef+0x84c>
    195c:	0f 1f 40 00          	nop    DWORD PTR [rax+0x0]

0000000000001960 <CL_RefFreeAll>:
CL_RefFreeAll():
    1960:	bf 07 00 00 00       	mov    edi,0x7
    1965:	e9 00 00 00 00       	jmp    196a <CL_RefFreeAll+0xa>
    196a:	66 0f 1f 44 00 00    	nop    WORD PTR [rax+rax*1+0x0]

0000000000001970 <CL_RefMalloc>:
CL_RefMalloc():
    1970:	be 07 00 00 00       	mov    esi,0x7
    1975:	e9 00 00 00 00       	jmp    197a <CL_RefMalloc+0xa>
    197a:	66 0f 1f 44 00 00    	nop    WORD PTR [rax+rax*1+0x0]

0000000000001980 <CL_RefPrintf>:
CL_RefPrintf():
    1980:	55                   	push   rbp
    1981:	53                   	push   rbx
    1982:	89 fb                	mov    ebx,edi
    1984:	48 81 ec d8 20 00 00 	sub    rsp,0x20d8
    198b:	48 89 94 24 30 20 00 	mov    QWORD PTR [rsp+0x2030],rdx
    1992:	00 
    1993:	48 89 8c 24 38 20 00 	mov    QWORD PTR [rsp+0x2038],rcx
    199a:	00 
    199b:	4c 89 84 24 40 20 00 	mov    QWORD PTR [rsp+0x2040],r8
    19a2:	00 
    19a3:	4c 89 8c 24 48 20 00 	mov    QWORD PTR [rsp+0x2048],r9
    19aa:	00 
    19ab:	84 c0                	test   al,al
    19ad:	74 40                	je     19ef <CL_RefPrintf+0x6f>
    19af:	0f 29 84 24 50 20 00 	movaps XMMWORD PTR [rsp+0x2050],xmm0
    19b6:	00 
    19b7:	0f 29 8c 24 60 20 00 	movaps XMMWORD PTR [rsp+0x2060],xmm1
    19be:	00 
    19bf:	0f 29 94 24 70 20 00 	movaps XMMWORD PTR [rsp+0x2070],xmm2
    19c6:	00 
    19c7:	0f 29 9c 24 80 20 00 	movaps XMMWORD PTR [rsp+0x2080],xmm3
    19ce:	00 
    19cf:	0f 29 a4 24 90 20 00 	movaps XMMWORD PTR [rsp+0x2090],xmm4
    19d6:	00 
    19d7:	0f 29 ac 24 a0 20 00 	movaps XMMWORD PTR [rsp+0x20a0],xmm5
    19de:	00 
    19df:	0f 29 b4 24 b0 20 00 	movaps XMMWORD PTR [rsp+0x20b0],xmm6
    19e6:	00 
    19e7:	0f 29 bc 24 c0 20 00 	movaps XMMWORD PTR [rsp+0x20c0],xmm7
    19ee:	00 
    19ef:	48 8d 84 24 f0 20 00 	lea    rax,[rsp+0x20f0]
    19f6:	00 
    19f7:	48 8d 6c 24 20       	lea    rbp,[rsp+0x20]
    19fc:	48 89 f2             	mov    rdx,rsi
    19ff:	be 00 20 00 00       	mov    esi,0x2000
    1a04:	48 89 44 24 10       	mov    QWORD PTR [rsp+0x10],rax
    1a09:	48 8d 4c 24 08       	lea    rcx,[rsp+0x8]
    1a0e:	48 8d 84 24 20 20 00 	lea    rax,[rsp+0x2020]
    1a15:	00 
    1a16:	48 89 ef             	mov    rdi,rbp
    1a19:	c7 44 24 08 10 00 00 	mov    DWORD PTR [rsp+0x8],0x10
    1a20:	00 
    1a21:	c7 44 24 0c 30 00 00 	mov    DWORD PTR [rsp+0xc],0x30
    1a28:	00 
    1a29:	48 89 44 24 18       	mov    QWORD PTR [rsp+0x18],rax
    1a2e:	e8 00 00 00 00       	call   1a33 <CL_RefPrintf+0xb3>
    1a33:	48 89 ee             	mov    rsi,rbp
    1a36:	83 fb 02             	cmp    ebx,0x2
    1a39:	74 25                	je     1a60 <CL_RefPrintf+0xe0>
    1a3b:	83 fb 03             	cmp    ebx,0x3
    1a3e:	74 50                	je     1a90 <CL_RefPrintf+0x110>
    1a40:	48 8d 3d 00 00 00 00 	lea    rdi,[rip+0x0]        # 1a47 <CL_RefPrintf+0xc7>
    1a47:	31 c0                	xor    eax,eax
    1a49:	83 fb 01             	cmp    ebx,0x1
    1a4c:	74 32                	je     1a80 <CL_RefPrintf+0x100>
    1a4e:	e8 00 00 00 00       	call   1a53 <CL_RefPrintf+0xd3>
    1a53:	48 81 c4 d8 20 00 00 	add    rsp,0x20d8
    1a5a:	5b                   	pop    rbx
    1a5b:	5d                   	pop    rbp
    1a5c:	c3                   	ret    
    1a5d:	0f 1f 00             	nop    DWORD PTR [rax]
    1a60:	48 8d 3d 00 00 00 00 	lea    rdi,[rip+0x0]        # 1a67 <CL_RefPrintf+0xe7>
    1a67:	31 c0                	xor    eax,eax
    1a69:	e8 00 00 00 00       	call   1a6e <CL_RefPrintf+0xee>
    1a6e:	48 81 c4 d8 20 00 00 	add    rsp,0x20d8
    1a75:	5b                   	pop    rbx
    1a76:	5d                   	pop    rbp
    1a77:	c3                   	ret    
    1a78:	0f 1f 84 00 00 00 00 	nop    DWORD PTR [rax+rax*1+0x0]
    1a7f:	00 
    1a80:	e8 00 00 00 00       	call   1a85 <CL_RefPrintf+0x105>
    1a85:	48 81 c4 d8 20 00 00 	add    rsp,0x20d8
    1a8c:	5b                   	pop    rbx
    1a8d:	5d                   	pop    rbp
    1a8e:	c3                   	ret    
    1a8f:	90                   	nop
    1a90:	48 8d 3d 00 00 00 00 	lea    rdi,[rip+0x0]        # 1a97 <CL_RefPrintf+0x117>
    1a97:	31 c0                	xor    eax,eax
    1a99:	eb b3                	jmp    1a4e <CL_RefPrintf+0xce>
    1a9b:	0f 1f 44 00 00       	nop    DWORD PTR [rax+rax*1+0x0]

0000000000001aa0 <CL_Video_f>:
CL_Video_f():
    1aa0:	41 56                	push   r14
    1aa2:	31 ff                	xor    edi,edi
    1aa4:	41 55                	push   r13
    1aa6:	41 54                	push   r12
    1aa8:	55                   	push   rbp
    1aa9:	53                   	push   rbx
    1aaa:	48 81 ec 00 10 00 00 	sub    rsp,0x1000
    1ab1:	8b 05 00 00 00 00    	mov    eax,DWORD PTR [rip+0x0]        # 1ab7 <CL_Video_f+0x17>
    1ab7:	85 c0                	test   eax,eax
    1ab9:	0f 84 81 01 00 00    	je     1c40 <CL_Video_f+0x1a0>
    1abf:	e8 00 00 00 00       	call   1ac4 <CL_Video_f+0x24>
    1ac4:	48 8d 35 00 00 00 00 	lea    rsi,[rip+0x0]        # 1acb <CL_Video_f+0x2b>
    1acb:	48 89 c7             	mov    rdi,rax
    1ace:	e8 00 00 00 00       	call   1ad3 <CL_Video_f+0x33>
    1ad3:	41 89 c6             	mov    r14d,eax
    1ad6:	85 c0                	test   eax,eax
    1ad8:	0f 84 da 00 00 00    	je     1bb8 <CL_Video_f+0x118>
    1ade:	e8 00 00 00 00       	call   1ae3 <CL_Video_f+0x43>
    1ae3:	4c 8d 25 00 00 00 00 	lea    r12,[rip+0x0]        # 1aea <CL_Video_f+0x4a>
    1aea:	83 f8 02             	cmp    eax,0x2
    1aed:	0f 84 9b 01 00 00    	je     1c8e <CL_Video_f+0x1ee>
    1af3:	31 db                	xor    ebx,ebx
    1af5:	48 89 e5             	mov    rbp,rsp
    1af8:	4c 8d 2d 00 00 00 00 	lea    r13,[rip+0x0]        # 1aff <CL_Video_f+0x5f>
    1aff:	eb 16                	jmp    1b17 <CL_Video_f+0x77>
    1b01:	0f 1f 80 00 00 00 00 	nop    DWORD PTR [rax+0x0]
    1b08:	83 c3 01             	add    ebx,0x1
    1b0b:	81 fb 10 27 00 00    	cmp    ebx,0x2710
    1b11:	0f 84 59 01 00 00    	je     1c70 <CL_Video_f+0x1d0>
    1b17:	48 89 ef             	mov    rdi,rbp
    1b1a:	31 c0                	xor    eax,eax
    1b1c:	4d 89 e0             	mov    r8,r12
    1b1f:	89 d9                	mov    ecx,ebx
    1b21:	4c 89 ea             	mov    rdx,r13
    1b24:	be 00 10 00 00       	mov    esi,0x1000
    1b29:	e8 00 00 00 00       	call   1b2e <CL_Video_f+0x8e>
    1b2e:	48 89 ef             	mov    rdi,rbp
    1b31:	e8 00 00 00 00       	call   1b36 <CL_Video_f+0x96>
    1b36:	85 c0                	test   eax,eax
    1b38:	75 ce                	jne    1b08 <CL_Video_f+0x68>
    1b3a:	89 d9                	mov    ecx,ebx
    1b3c:	48 8d 15 00 00 00 00 	lea    rdx,[rip+0x0]        # 1b43 <CL_Video_f+0xa3>
    1b43:	be 00 10 00 00       	mov    esi,0x1000
    1b48:	31 c0                	xor    eax,eax
    1b4a:	48 89 ef             	mov    rdi,rbp
    1b4d:	e8 00 00 00 00       	call   1b52 <CL_Video_f+0xb2>
    1b52:	48 89 ee             	mov    rsi,rbp
    1b55:	ba 40 00 00 00       	mov    edx,0x40
    1b5a:	48 8d 3d 00 00 00 00 	lea    rdi,[rip+0x0]        # 1b61 <CL_Video_f+0xc1>
    1b61:	48 c7 05 00 00 00 00 	mov    QWORD PTR [rip+0x0],0x0        # 1b6c <CL_Video_f+0xcc>
    1b68:	00 00 00 00 
    1b6c:	e8 00 00 00 00       	call   1b71 <CL_Video_f+0xd1>
    1b71:	4c 89 e2             	mov    rdx,r12
    1b74:	48 8d 35 00 00 00 00 	lea    rsi,[rip+0x0]        # 1b7b <CL_Video_f+0xdb>
    1b7b:	31 c0                	xor    eax,eax
    1b7d:	48 8d 3d 00 00 00 00 	lea    rdi,[rip+0x0]        # 1b84 <CL_Video_f+0xe4>
    1b84:	c7 05 00 00 00 00 00 	mov    DWORD PTR [rip+0x0],0x0        # 1b8e <CL_Video_f+0xee>
    1b8b:	00 00 00 
    1b8e:	e8 00 00 00 00       	call   1b93 <CL_Video_f+0xf3>
    1b93:	31 f6                	xor    esi,esi
    1b95:	45 85 f6             	test   r14d,r14d
    1b98:	40 0f 94 c6          	sete   sil
    1b9c:	48 89 c7             	mov    rdi,rax
    1b9f:	e8 00 00 00 00       	call   1ba4 <CL_Video_f+0x104>
    1ba4:	48 81 c4 00 10 00 00 	add    rsp,0x1000
    1bab:	5b                   	pop    rbx
    1bac:	5d                   	pop    rbp
    1bad:	41 5c                	pop    r12
    1baf:	41 5d                	pop    r13
    1bb1:	41 5e                	pop    r14
    1bb3:	c3                   	ret    
    1bb4:	0f 1f 40 00          	nop    DWORD PTR [rax+0x0]
    1bb8:	e8 00 00 00 00       	call   1bbd <CL_Video_f+0x11d>
    1bbd:	4c 8d 25 00 00 00 00 	lea    r12,[rip+0x0]        # 1bc4 <CL_Video_f+0x124>
    1bc4:	83 f8 02             	cmp    eax,0x2
    1bc7:	0f 85 26 ff ff ff    	jne    1af3 <CL_Video_f+0x53>
    1bcd:	bf 01 00 00 00       	mov    edi,0x1
    1bd2:	48 89 e5             	mov    rbp,rsp
    1bd5:	4c 8d 25 00 00 00 00 	lea    r12,[rip+0x0]        # 1bdc <CL_Video_f+0x13c>
    1bdc:	e8 00 00 00 00       	call   1be1 <CL_Video_f+0x141>
    1be1:	48 8d 15 00 00 00 00 	lea    rdx,[rip+0x0]        # 1be8 <CL_Video_f+0x148>
    1be8:	be 00 10 00 00       	mov    esi,0x1000
    1bed:	48 89 ef             	mov    rdi,rbp
    1bf0:	48 89 c1             	mov    rcx,rax
    1bf3:	31 c0                	xor    eax,eax
    1bf5:	e8 00 00 00 00       	call   1bfa <CL_Video_f+0x15a>
    1bfa:	be 2f 00 00 00       	mov    esi,0x2f
    1bff:	48 89 ef             	mov    rdi,rbp
    1c02:	e8 00 00 00 00       	call   1c07 <CL_Video_f+0x167>
    1c07:	be 2e 00 00 00       	mov    esi,0x2e
    1c0c:	48 89 ef             	mov    rdi,rbp
    1c0f:	48 89 c3             	mov    rbx,rax
    1c12:	e8 00 00 00 00       	call   1c17 <CL_Video_f+0x177>
    1c17:	48 85 c0             	test   rax,rax
    1c1a:	0f 84 32 ff ff ff    	je     1b52 <CL_Video_f+0xb2>
    1c20:	48 39 c3             	cmp    rbx,rax
    1c23:	0f 83 29 ff ff ff    	jae    1b52 <CL_Video_f+0xb2>
    1c29:	80 78 01 00          	cmp    BYTE PTR [rax+0x1],0x0
    1c2d:	0f 84 1f ff ff ff    	je     1b52 <CL_Video_f+0xb2>
    1c33:	4c 8d 60 01          	lea    r12,[rax+0x1]
    1c37:	c6 00 00             	mov    BYTE PTR [rax],0x0
    1c3a:	e9 13 ff ff ff       	jmp    1b52 <CL_Video_f+0xb2>
    1c3f:	90                   	nop
    1c40:	e8 00 00 00 00       	call   1c45 <CL_Video_f+0x1a5>
    1c45:	48 8d 3d 00 00 00 00 	lea    rdi,[rip+0x0]        # 1c4c <CL_Video_f+0x1ac>
    1c4c:	48 89 c6             	mov    rsi,rax
    1c4f:	31 c0                	xor    eax,eax
    1c51:	e8 00 00 00 00       	call   1c56 <CL_Video_f+0x1b6>
    1c56:	48 81 c4 00 10 00 00 	add    rsp,0x1000
    1c5d:	5b                   	pop    rbx
    1c5e:	5d                   	pop    rbp
    1c5f:	41 5c                	pop    r12
    1c61:	41 5d                	pop    r13
    1c63:	41 5e                	pop    r14
    1c65:	c3                   	ret    
    1c66:	66 2e 0f 1f 84 00 00 	nop    WORD PTR cs:[rax+rax*1+0x0]
    1c6d:	00 00 00 
    1c70:	48 8d 3d 00 00 00 00 	lea    rdi,[rip+0x0]        # 1c77 <CL_Video_f+0x1d7>
    1c77:	31 c0                	xor    eax,eax
    1c79:	e8 00 00 00 00       	call   1c7e <CL_Video_f+0x1de>
    1c7e:	48 81 c4 00 10 00 00 	add    rsp,0x1000
    1c85:	5b                   	pop    rbx
    1c86:	5d                   	pop    rbp
    1c87:	41 5c                	pop    r12
    1c89:	41 5d                	pop    r13
    1c8b:	41 5e                	pop    r14
    1c8d:	c3                   	ret    
    1c8e:	bf 01 00 00 00       	mov    edi,0x1
    1c93:	48 89 e5             	mov    rbp,rsp
    1c96:	4c 8d 25 00 00 00 00 	lea    r12,[rip+0x0]        # 1c9d <CL_Video_f+0x1fd>
    1c9d:	e8 00 00 00 00       	call   1ca2 <CL_Video_f+0x202>
    1ca2:	48 8d 15 00 00 00 00 	lea    rdx,[rip+0x0]        # 1ca9 <CL_Video_f+0x209>
    1ca9:	be 00 10 00 00       	mov    esi,0x1000
    1cae:	48 89 ef             	mov    rdi,rbp
    1cb1:	48 89 c1             	mov    rcx,rax
    1cb4:	31 c0                	xor    eax,eax
    1cb6:	e8 00 00 00 00       	call   1cbb <CL_Video_f+0x21b>
    1cbb:	e9 92 fe ff ff       	jmp    1b52 <CL_Video_f+0xb2>

0000000000001cc0 <CL_Systeminfo_f>:
CL_Systeminfo_f():
    1cc0:	53                   	push   rbx
    1cc1:	48 63 1d 00 00 00 00 	movsxd rbx,DWORD PTR [rip+0x0]        # 1cc8 <CL_Systeminfo_f+0x8>
    1cc8:	85 db                	test   ebx,ebx
    1cca:	75 04                	jne    1cd0 <CL_Systeminfo_f+0x10>
    1ccc:	5b                   	pop    rbx
    1ccd:	c3                   	ret    
    1cce:	66 90                	xchg   ax,ax
    1cd0:	48 8d 3d 00 00 00 00 	lea    rdi,[rip+0x0]        # 1cd7 <CL_Systeminfo_f+0x17>
    1cd7:	31 c0                	xor    eax,eax
    1cd9:	e8 00 00 00 00       	call   1cde <CL_Systeminfo_f+0x1e>
    1cde:	48 8d 3d 00 00 00 00 	lea    rdi,[rip+0x0]        # 1ce5 <CL_Systeminfo_f+0x25>
    1ce5:	48 01 df             	add    rdi,rbx
    1ce8:	5b                   	pop    rbx
    1ce9:	e9 00 00 00 00       	jmp    1cee <CL_Systeminfo_f+0x2e>
    1cee:	66 90                	xchg   ax,ax

0000000000001cf0 <CL_Serverinfo_f>:
CL_Serverinfo_f():
    1cf0:	53                   	push   rbx
    1cf1:	48 63 1d 00 00 00 00 	movsxd rbx,DWORD PTR [rip+0x0]        # 1cf8 <CL_Serverinfo_f+0x8>
    1cf8:	85 db                	test   ebx,ebx
    1cfa:	75 04                	jne    1d00 <CL_Serverinfo_f+0x10>
    1cfc:	5b                   	pop    rbx
    1cfd:	c3                   	ret    
    1cfe:	66 90                	xchg   ax,ax
    1d00:	48 8d 3d 00 00 00 00 	lea    rdi,[rip+0x0]        # 1d07 <CL_Serverinfo_f+0x17>
    1d07:	31 c0                	xor    eax,eax
    1d09:	e8 00 00 00 00       	call   1d0e <CL_Serverinfo_f+0x1e>
    1d0e:	48 8d 3d 00 00 00 00 	lea    rdi,[rip+0x0]        # 1d15 <CL_Serverinfo_f+0x25>
    1d15:	48 01 df             	add    rdi,rbx
    1d18:	5b                   	pop    rbx
    1d19:	e9 00 00 00 00       	jmp    1d1e <CL_Serverinfo_f+0x2e>
    1d1e:	66 90                	xchg   ax,ax

0000000000001d20 <CL_Clientinfo_f>:
CL_Clientinfo_f():
    1d20:	48 83 ec 08          	sub    rsp,0x8
    1d24:	48 8d 3d 00 00 00 00 	lea    rdi,[rip+0x0]        # 1d2b <CL_Clientinfo_f+0xb>
    1d2b:	31 c0                	xor    eax,eax
    1d2d:	e8 00 00 00 00       	call   1d32 <CL_Clientinfo_f+0x12>
    1d32:	8b 35 00 00 00 00    	mov    esi,DWORD PTR [rip+0x0]        # 1d38 <CL_Clientinfo_f+0x18>
    1d38:	48 8d 3d 00 00 00 00 	lea    rdi,[rip+0x0]        # 1d3f <CL_Clientinfo_f+0x1f>
    1d3f:	31 c0                	xor    eax,eax
    1d41:	e8 00 00 00 00       	call   1d46 <CL_Clientinfo_f+0x26>
    1d46:	48 8d 35 00 00 00 00 	lea    rsi,[rip+0x0]        # 1d4d <CL_Clientinfo_f+0x2d>
    1d4d:	48 8d 3d 00 00 00 00 	lea    rdi,[rip+0x0]        # 1d54 <CL_Clientinfo_f+0x34>
    1d54:	31 c0                	xor    eax,eax
    1d56:	e8 00 00 00 00       	call   1d5b <CL_Clientinfo_f+0x3b>
    1d5b:	48 8d 3d 00 00 00 00 	lea    rdi,[rip+0x0]        # 1d62 <CL_Clientinfo_f+0x42>
    1d62:	31 c0                	xor    eax,eax
    1d64:	e8 00 00 00 00       	call   1d69 <CL_Clientinfo_f+0x49>
    1d69:	31 f6                	xor    esi,esi
    1d6b:	bf 02 00 00 00       	mov    edi,0x2
    1d70:	e8 00 00 00 00       	call   1d75 <CL_Clientinfo_f+0x55>
    1d75:	48 89 c7             	mov    rdi,rax
    1d78:	e8 00 00 00 00       	call   1d7d <CL_Clientinfo_f+0x5d>
    1d7d:	48 8d 3d 00 00 00 00 	lea    rdi,[rip+0x0]        # 1d84 <CL_Clientinfo_f+0x64>
    1d84:	31 c0                	xor    eax,eax
    1d86:	48 83 c4 08          	add    rsp,0x8
    1d8a:	e9 00 00 00 00       	jmp    1d8f <CL_Clientinfo_f+0x6f>
    1d8f:	90                   	nop

0000000000001d90 <CL_ReferencedPK3List_f>:
CL_ReferencedPK3List_f():
    1d90:	48 83 ec 08          	sub    rsp,0x8
    1d94:	e8 00 00 00 00       	call   1d99 <CL_ReferencedPK3List_f+0x9>
    1d99:	48 8d 3d 00 00 00 00 	lea    rdi,[rip+0x0]        # 1da0 <CL_ReferencedPK3List_f+0x10>
    1da0:	48 83 c4 08          	add    rsp,0x8
    1da4:	48 89 c6             	mov    rsi,rax
    1da7:	31 c0                	xor    eax,eax
    1da9:	e9 00 00 00 00       	jmp    1dae <CL_ReferencedPK3List_f+0x1e>
    1dae:	66 90                	xchg   ax,ax

0000000000001db0 <CL_ShowIP_f>:
CL_ShowIP_f():
    1db0:	e9 00 00 00 00       	jmp    1db5 <CL_ShowIP_f+0x5>
    1db5:	66 66 2e 0f 1f 84 00 	data16 nop WORD PTR cs:[rax+rax*1+0x0]
    1dbc:	00 00 00 00 

0000000000001dc0 <CL_LocalServers_f>:
CL_LocalServers_f():
    1dc0:	41 55                	push   r13
    1dc2:	31 c0                	xor    eax,eax
    1dc4:	48 8d 3d 00 00 00 00 	lea    rdi,[rip+0x0]        # 1dcb <CL_LocalServers_f+0xb>
    1dcb:	41 54                	push   r12
    1dcd:	55                   	push   rbp
    1dce:	53                   	push   rbx
    1dcf:	48 83 ec 28          	sub    rsp,0x28
    1dd3:	e8 00 00 00 00       	call   1dd8 <CL_LocalServers_f+0x18>
    1dd8:	48 8d 15 00 00 00 00 	lea    rdx,[rip+0x0]        # 1ddf <CL_LocalServers_f+0x1f>
    1ddf:	31 c0                	xor    eax,eax
    1de1:	c7 05 00 00 00 00 00 	mov    DWORD PTR [rip+0x0],0x0        # 1deb <CL_LocalServers_f+0x2b>
    1de8:	00 00 00 
    1deb:	c7 05 00 00 00 00 00 	mov    DWORD PTR [rip+0x0],0x0        # 1df5 <CL_LocalServers_f+0x35>
    1df2:	00 00 00 
    1df5:	4c 8d 82 00 58 00 00 	lea    r8,[rdx+0x5800]
    1dfc:	0f 1f 40 00          	nop    DWORD PTR [rax+0x0]
    1e00:	48 8d 7a 08          	lea    rdi,[rdx+0x8]
    1e04:	48 89 d1             	mov    rcx,rdx
    1e07:	8b b2 9c 00 00 00    	mov    esi,DWORD PTR [rdx+0x9c]
    1e0d:	48 c7 02 00 00 00 00 	mov    QWORD PTR [rdx],0x0
    1e14:	48 83 e7 f8          	and    rdi,0xfffffffffffffff8
    1e18:	48 81 c2 b0 00 00 00 	add    rdx,0xb0
    1e1f:	48 c7 42 f8 00 00 00 	mov    QWORD PTR [rdx-0x8],0x0
    1e26:	00 
    1e27:	48 29 f9             	sub    rcx,rdi
    1e2a:	81 c1 b0 00 00 00    	add    ecx,0xb0
    1e30:	c1 e9 03             	shr    ecx,0x3
    1e33:	f3 48 ab             	rep stos QWORD PTR es:[rdi],rax
    1e36:	89 72 ec             	mov    DWORD PTR [rdx-0x14],esi
    1e39:	4c 39 c2             	cmp    rdx,r8
    1e3c:	75 c2                	jne    1e00 <CL_LocalServers_f+0x40>
    1e3e:	66 0f ef c0          	pxor   xmm0,xmm0
    1e42:	41 bd 02 00 00 00    	mov    r13d,0x2
    1e48:	49 89 e4             	mov    r12,rsp
    1e4b:	0f 29 04 24          	movaps XMMWORD PTR [rsp],xmm0
    1e4f:	48 8d 2d 00 00 00 00 	lea    rbp,[rip+0x0]        # 1e56 <CL_LocalServers_f+0x96>
    1e56:	0f 29 44 24 10       	movaps XMMWORD PTR [rsp+0x10],xmm0
    1e5b:	bb 38 6d 00 00       	mov    ebx,0x6d38
    1e60:	89 df                	mov    edi,ebx
    1e62:	83 c3 01             	add    ebx,0x1
    1e65:	e8 00 00 00 00       	call   1e6a <CL_LocalServers_f+0xaa>
    1e6a:	4c 89 e1             	mov    rcx,r12
    1e6d:	48 89 ea             	mov    rdx,rbp
    1e70:	be 0f 00 00 00       	mov    esi,0xf
    1e75:	31 ff                	xor    edi,edi
    1e77:	66 89 44 24 14       	mov    WORD PTR [rsp+0x14],ax
    1e7c:	c7 04 24 03 00 00 00 	mov    DWORD PTR [rsp],0x3
    1e83:	e8 00 00 00 00       	call   1e88 <CL_LocalServers_f+0xc8>
    1e88:	4c 89 e1             	mov    rcx,r12
    1e8b:	48 89 ea             	mov    rdx,rbp
    1e8e:	be 0f 00 00 00       	mov    esi,0xf
    1e93:	31 ff                	xor    edi,edi
    1e95:	c7 04 24 06 00 00 00 	mov    DWORD PTR [rsp],0x6
    1e9c:	e8 00 00 00 00       	call   1ea1 <CL_LocalServers_f+0xe1>
    1ea1:	81 fb 3c 6d 00 00    	cmp    ebx,0x6d3c
    1ea7:	75 b7                	jne    1e60 <CL_LocalServers_f+0xa0>
    1ea9:	41 83 fd 01          	cmp    r13d,0x1
    1ead:	74 08                	je     1eb7 <CL_LocalServers_f+0xf7>
    1eaf:	41 bd 01 00 00 00    	mov    r13d,0x1
    1eb5:	eb a4                	jmp    1e5b <CL_LocalServers_f+0x9b>
    1eb7:	48 83 c4 28          	add    rsp,0x28
    1ebb:	5b                   	pop    rbx
    1ebc:	5d                   	pop    rbp
    1ebd:	41 5c                	pop    r12
    1ebf:	41 5d                	pop    r13
    1ec1:	c3                   	ret    
    1ec2:	66 66 2e 0f 1f 84 00 	data16 nop WORD PTR cs:[rax+rax*1+0x0]
    1ec9:	00 00 00 00 
    1ecd:	0f 1f 00             	nop    DWORD PTR [rax]

0000000000001ed0 <CL_GlobalServers_f>:
CL_GlobalServers_f():
    1ed0:	41 56                	push   r14
    1ed2:	41 55                	push   r13
    1ed4:	41 54                	push   r12
    1ed6:	55                   	push   rbp
    1ed7:	53                   	push   rbx
    1ed8:	48 81 ec 20 04 00 00 	sub    rsp,0x420
    1edf:	e8 00 00 00 00       	call   1ee4 <CL_GlobalServers_f+0x14>
    1ee4:	83 f8 02             	cmp    eax,0x2
    1ee7:	7e 20                	jle    1f09 <CL_GlobalServers_f+0x39>
    1ee9:	bf 01 00 00 00       	mov    edi,0x1
    1eee:	89 c5                	mov    ebp,eax
    1ef0:	e8 00 00 00 00       	call   1ef5 <CL_GlobalServers_f+0x25>
    1ef5:	31 f6                	xor    esi,esi
    1ef7:	ba 0a 00 00 00       	mov    edx,0xa
    1efc:	48 89 c7             	mov    rdi,rax
    1eff:	e8 00 00 00 00       	call   1f04 <CL_GlobalServers_f+0x34>
    1f04:	83 f8 05             	cmp    eax,0x5
    1f07:	76 27                	jbe    1f30 <CL_GlobalServers_f+0x60>
    1f09:	be 05 00 00 00       	mov    esi,0x5
    1f0e:	48 8d 3d 00 00 00 00 	lea    rdi,[rip+0x0]        # 1f15 <CL_GlobalServers_f+0x45>
    1f15:	31 c0                	xor    eax,eax
    1f17:	e8 00 00 00 00       	call   1f1c <CL_GlobalServers_f+0x4c>
    1f1c:	48 81 c4 20 04 00 00 	add    rsp,0x420
    1f23:	5b                   	pop    rbx
    1f24:	5d                   	pop    rbp
    1f25:	41 5c                	pop    r12
    1f27:	41 5d                	pop    r13
    1f29:	41 5e                	pop    r14
    1f2b:	c3                   	ret    
    1f2c:	0f 1f 40 00          	nop    DWORD PTR [rax+0x0]
    1f30:	41 89 c4             	mov    r12d,eax
    1f33:	85 c0                	test   eax,eax
    1f35:	0f 85 95 00 00 00    	jne    1fd0 <CL_GlobalServers_f+0x100>
    1f3b:	bd 01 00 00 00       	mov    ebp,0x1
    1f40:	48 8d 5c 24 20       	lea    rbx,[rsp+0x20]
    1f45:	4c 8d 2d 00 00 00 00 	lea    r13,[rip+0x0]        # 1f4c <CL_GlobalServers_f+0x7c>
    1f4c:	89 ea                	mov    edx,ebp
    1f4e:	4c 89 ee             	mov    rsi,r13
    1f51:	48 89 df             	mov    rdi,rbx
    1f54:	31 c0                	xor    eax,eax
    1f56:	e8 00 00 00 00       	call   1f5b <CL_GlobalServers_f+0x8b>
    1f5b:	48 89 df             	mov    rdi,rbx
    1f5e:	e8 00 00 00 00       	call   1f63 <CL_GlobalServers_f+0x93>
    1f63:	80 38 00             	cmp    BYTE PTR [rax],0x0
    1f66:	74 41                	je     1fa9 <CL_GlobalServers_f+0xd9>
    1f68:	bf 03 00 00 00       	mov    edi,0x3
    1f6d:	41 83 c4 01          	add    r12d,0x1
    1f71:	e8 00 00 00 00       	call   1f76 <CL_GlobalServers_f+0xa6>
    1f76:	bf 02 00 00 00       	mov    edi,0x2
    1f7b:	49 89 c6             	mov    r14,rax
    1f7e:	e8 00 00 00 00       	call   1f83 <CL_GlobalServers_f+0xb3>
    1f83:	48 89 df             	mov    rdi,rbx
    1f86:	4d 89 f1             	mov    r9,r14
    1f89:	89 e9                	mov    ecx,ebp
    1f8b:	49 89 c0             	mov    r8,rax
    1f8e:	48 8d 15 00 00 00 00 	lea    rdx,[rip+0x0]        # 1f95 <CL_GlobalServers_f+0xc5>
    1f95:	be 00 04 00 00       	mov    esi,0x400
    1f9a:	31 c0                	xor    eax,eax
    1f9c:	e8 00 00 00 00       	call   1fa1 <CL_GlobalServers_f+0xd1>
    1fa1:	48 89 df             	mov    rdi,rbx
    1fa4:	e8 00 00 00 00       	call   1fa9 <CL_GlobalServers_f+0xd9>
    1fa9:	83 c5 01             	add    ebp,0x1
    1fac:	83 fd 06             	cmp    ebp,0x6
    1faf:	75 9b                	jne    1f4c <CL_GlobalServers_f+0x7c>
    1fb1:	45 85 e4             	test   r12d,r12d
    1fb4:	0f 85 62 ff ff ff    	jne    1f1c <CL_GlobalServers_f+0x4c>
    1fba:	48 8d 3d 00 00 00 00 	lea    rdi,[rip+0x0]        # 1fc1 <CL_GlobalServers_f+0xf1>
    1fc1:	31 c0                	xor    eax,eax
    1fc3:	e8 00 00 00 00       	call   1fc8 <CL_GlobalServers_f+0xf8>
    1fc8:	e9 4f ff ff ff       	jmp    1f1c <CL_GlobalServers_f+0x4c>
    1fcd:	0f 1f 00             	nop    DWORD PTR [rax]
    1fd0:	48 8d 5c 24 20       	lea    rbx,[rsp+0x20]
    1fd5:	89 c2                	mov    edx,eax
    1fd7:	48 8d 35 00 00 00 00 	lea    rsi,[rip+0x0]        # 1fde <CL_GlobalServers_f+0x10e>
    1fde:	31 c0                	xor    eax,eax
    1fe0:	48 89 df             	mov    rdi,rbx
    1fe3:	e8 00 00 00 00       	call   1fe8 <CL_GlobalServers_f+0x118>
    1fe8:	48 89 df             	mov    rdi,rbx
    1feb:	e8 00 00 00 00       	call   1ff0 <CL_GlobalServers_f+0x120>
    1ff0:	80 38 00             	cmp    BYTE PTR [rax],0x0
    1ff3:	49 89 c4             	mov    r12,rax
    1ff6:	0f 84 f4 00 00 00    	je     20f0 <CL_GlobalServers_f+0x220>
    1ffc:	49 89 e6             	mov    r14,rsp
    1fff:	ba 07 00 00 00       	mov    edx,0x7
    2004:	48 89 c7             	mov    rdi,rax
    2007:	4c 89 f6             	mov    rsi,r14
    200a:	e8 00 00 00 00       	call   200f <CL_GlobalServers_f+0x13f>
    200f:	85 c0                	test   eax,eax
    2011:	0f 84 39 01 00 00    	je     2150 <CL_GlobalServers_f+0x280>
    2017:	83 f8 02             	cmp    eax,0x2
    201a:	0f 84 78 01 00 00    	je     2198 <CL_GlobalServers_f+0x2c8>
    2020:	4c 89 f7             	mov    rdi,r14
    2023:	e8 00 00 00 00       	call   2028 <CL_GlobalServers_f+0x158>
    2028:	4c 89 e6             	mov    rsi,r12
    202b:	48 8d 3d 00 00 00 00 	lea    rdi,[rip+0x0]        # 2032 <CL_GlobalServers_f+0x162>
    2032:	48 89 c2             	mov    rdx,rax
    2035:	31 c0                	xor    eax,eax
    2037:	e8 00 00 00 00       	call   203c <CL_GlobalServers_f+0x16c>
    203c:	8b 04 24             	mov    eax,DWORD PTR [rsp]
    203f:	c7 05 00 00 00 00 ff 	mov    DWORD PTR [rip+0x0],0xffffffff        # 2049 <CL_GlobalServers_f+0x179>
    2046:	ff ff ff 
    2049:	c7 05 00 00 00 00 02 	mov    DWORD PTR [rip+0x0],0x2        # 2053 <CL_GlobalServers_f+0x183>
    2050:	00 00 00 
    2053:	83 e8 05             	sub    eax,0x5
    2056:	83 f8 01             	cmp    eax,0x1
    2059:	0f 86 a9 00 00 00    	jbe    2108 <CL_GlobalServers_f+0x238>
    205f:	bf 02 00 00 00       	mov    edi,0x2
    2064:	e8 00 00 00 00       	call   2069 <CL_GlobalServers_f+0x199>
    2069:	48 8d 15 00 00 00 00 	lea    rdx,[rip+0x0]        # 2070 <CL_GlobalServers_f+0x1a0>
    2070:	be 00 04 00 00       	mov    esi,0x400
    2075:	48 89 df             	mov    rdi,rbx
    2078:	48 89 c1             	mov    rcx,rax
    207b:	31 c0                	xor    eax,eax
    207d:	e8 00 00 00 00       	call   2082 <CL_GlobalServers_f+0x1b2>
    2082:	83 fd 03             	cmp    ebp,0x3
    2085:	74 42                	je     20c9 <CL_GlobalServers_f+0x1f9>
    2087:	41 bc 03 00 00 00    	mov    r12d,0x3
    208d:	4c 8d 2d 00 00 00 00 	lea    r13,[rip+0x0]        # 2094 <CL_GlobalServers_f+0x1c4>
    2094:	0f 1f 40 00          	nop    DWORD PTR [rax+0x0]
    2098:	4c 89 ea             	mov    rdx,r13
    209b:	be 00 04 00 00       	mov    esi,0x400
    20a0:	48 89 df             	mov    rdi,rbx
    20a3:	e8 00 00 00 00       	call   20a8 <CL_GlobalServers_f+0x1d8>
    20a8:	44 89 e7             	mov    edi,r12d
    20ab:	41 83 c4 01          	add    r12d,0x1
    20af:	e8 00 00 00 00       	call   20b4 <CL_GlobalServers_f+0x1e4>
    20b4:	be 00 04 00 00       	mov    esi,0x400
    20b9:	48 89 df             	mov    rdi,rbx
    20bc:	48 89 c2             	mov    rdx,rax
    20bf:	e8 00 00 00 00       	call   20c4 <CL_GlobalServers_f+0x1f4>
    20c4:	44 39 e5             	cmp    ebp,r12d
    20c7:	75 cf                	jne    2098 <CL_GlobalServers_f+0x1c8>
    20c9:	48 89 d9             	mov    rcx,rbx
    20cc:	48 8d 15 00 00 00 00 	lea    rdx,[rip+0x0]        # 20d3 <CL_GlobalServers_f+0x203>
    20d3:	4c 89 f6             	mov    rsi,r14
    20d6:	31 c0                	xor    eax,eax
    20d8:	bf 01 00 00 00       	mov    edi,0x1
    20dd:	e8 00 00 00 00       	call   20e2 <CL_GlobalServers_f+0x212>
    20e2:	e9 35 fe ff ff       	jmp    1f1c <CL_GlobalServers_f+0x4c>
    20e7:	66 0f 1f 84 00 00 00 	nop    WORD PTR [rax+rax*1+0x0]
    20ee:	00 00 
    20f0:	48 8d 3d 00 00 00 00 	lea    rdi,[rip+0x0]        # 20f7 <CL_GlobalServers_f+0x227>
    20f7:	31 c0                	xor    eax,eax
    20f9:	e8 00 00 00 00       	call   20fe <CL_GlobalServers_f+0x22e>
    20fe:	e9 19 fe ff ff       	jmp    1f1c <CL_GlobalServers_f+0x4c>
    2103:	0f 1f 44 00 00       	nop    DWORD PTR [rax+rax*1+0x0]
    2108:	48 8d 3d 00 00 00 00 	lea    rdi,[rip+0x0]        # 210f <CL_GlobalServers_f+0x23f>
    210f:	e8 00 00 00 00       	call   2114 <CL_GlobalServers_f+0x244>
    2114:	bf 02 00 00 00       	mov    edi,0x2
    2119:	a8 01                	test   al,0x1
    211b:	74 4b                	je     2168 <CL_GlobalServers_f+0x298>
    211d:	e8 00 00 00 00       	call   2122 <CL_GlobalServers_f+0x252>
    2122:	48 8d 0d 00 00 00 00 	lea    rcx,[rip+0x0]        # 2129 <CL_GlobalServers_f+0x259>
    2129:	be 00 04 00 00       	mov    esi,0x400
    212e:	48 89 df             	mov    rdi,rbx
    2131:	49 89 c0             	mov    r8,rax
    2134:	48 8d 15 00 00 00 00 	lea    rdx,[rip+0x0]        # 213b <CL_GlobalServers_f+0x26b>
    213b:	31 c0                	xor    eax,eax
    213d:	e8 00 00 00 00       	call   2142 <CL_GlobalServers_f+0x272>
    2142:	e9 3b ff ff ff       	jmp    2082 <CL_GlobalServers_f+0x1b2>
    2147:	66 0f 1f 84 00 00 00 	nop    WORD PTR [rax+rax*1+0x0]
    214e:	00 00 
    2150:	4c 89 e6             	mov    rsi,r12
    2153:	48 8d 3d 00 00 00 00 	lea    rdi,[rip+0x0]        # 215a <CL_GlobalServers_f+0x28a>
    215a:	e8 00 00 00 00       	call   215f <CL_GlobalServers_f+0x28f>
    215f:	e9 b8 fd ff ff       	jmp    1f1c <CL_GlobalServers_f+0x4c>
    2164:	0f 1f 40 00          	nop    DWORD PTR [rax+0x0]
    2168:	e8 00 00 00 00       	call   216d <CL_GlobalServers_f+0x29d>
    216d:	48 8d 0d 00 00 00 00 	lea    rcx,[rip+0x0]        # 2174 <CL_GlobalServers_f+0x2a4>
    2174:	be 00 04 00 00       	mov    esi,0x400
    2179:	48 89 df             	mov    rdi,rbx
    217c:	49 89 c0             	mov    r8,rax
    217f:	48 8d 15 00 00 00 00 	lea    rdx,[rip+0x0]        # 2186 <CL_GlobalServers_f+0x2b6>
    2186:	31 c0                	xor    eax,eax
    2188:	e8 00 00 00 00       	call   218d <CL_GlobalServers_f+0x2bd>
    218d:	e9 f0 fe ff ff       	jmp    2082 <CL_GlobalServers_f+0x1b2>
    2192:	66 0f 1f 44 00 00    	nop    WORD PTR [rax+rax*1+0x0]
    2198:	bf 2e 6d 00 00       	mov    edi,0x6d2e
    219d:	e8 00 00 00 00       	call   21a2 <CL_GlobalServers_f+0x2d2>
    21a2:	66 89 44 24 14       	mov    WORD PTR [rsp+0x14],ax
    21a7:	e9 74 fe ff ff       	jmp    2020 <CL_GlobalServers_f+0x150>
    21ac:	0f 1f 40 00          	nop    DWORD PTR [rax+0x0]

00000000000021b0 <CL_DemoNameCallback_f>:
CL_DemoNameCallback_f():
    21b0:	83 fe 06             	cmp    esi,0x6
    21b3:	7f 0b                	jg     21c0 <CL_DemoNameCallback_f+0x10>
    21b5:	31 c0                	xor    eax,eax
    21b7:	c3                   	ret    
    21b8:	0f 1f 84 00 00 00 00 	nop    DWORD PTR [rax+rax*1+0x0]
    21bf:	00 
    21c0:	55                   	push   rbp
    21c1:	ba 04 00 00 00       	mov    edx,0x4
    21c6:	48 89 fd             	mov    rbp,rdi
    21c9:	53                   	push   rbx
    21ca:	48 63 de             	movsxd rbx,esi
    21cd:	48 8d 35 00 00 00 00 	lea    rsi,[rip+0x0]        # 21d4 <CL_DemoNameCallback_f+0x24>
    21d4:	48 8d 7c 1f fa       	lea    rdi,[rdi+rbx*1-0x6]
    21d9:	48 83 ec 08          	sub    rsp,0x8
    21dd:	e8 00 00 00 00       	call   21e2 <CL_DemoNameCallback_f+0x32>
    21e2:	85 c0                	test   eax,eax
    21e4:	75 2a                	jne    2210 <CL_DemoNameCallback_f+0x60>
    21e6:	48 8d 7c 1d fe       	lea    rdi,[rbp+rbx*1-0x2]
    21eb:	31 f6                	xor    esi,esi
    21ed:	ba 0a 00 00 00       	mov    edx,0xa
    21f2:	e8 00 00 00 00       	call   21f7 <CL_DemoNameCallback_f+0x47>
    21f7:	83 e8 42             	sub    eax,0x42
    21fa:	83 f8 05             	cmp    eax,0x5
    21fd:	0f 96 c0             	setbe  al
    2200:	48 83 c4 08          	add    rsp,0x8
    2204:	0f b6 c0             	movzx  eax,al
    2207:	5b                   	pop    rbx
    2208:	5d                   	pop    rbp
    2209:	c3                   	ret    
    220a:	66 0f 1f 44 00 00    	nop    WORD PTR [rax+rax*1+0x0]
    2210:	48 83 c4 08          	add    rsp,0x8
    2214:	31 c0                	xor    eax,eax
    2216:	5b                   	pop    rbx
    2217:	5d                   	pop    rbp
    2218:	c3                   	ret    
    2219:	0f 1f 80 00 00 00 00 	nop    DWORD PTR [rax+0x0]

0000000000002220 <CL_WalkDemoExt>:
CL_WalkDemoExt():
    2220:	41 57                	push   r15
    2222:	41 56                	push   r14
    2224:	41 55                	push   r13
    2226:	41 54                	push   r12
    2228:	55                   	push   rbp
    2229:	53                   	push   rbx
    222a:	48 83 ec 08          	sub    rsp,0x8
    222e:	8b 2d 00 00 00 00    	mov    ebp,DWORD PTR [rip+0x0]        # 2234 <CL_WalkDemoExt+0x14>
    2234:	c7 02 00 00 00 00    	mov    DWORD PTR [rdx],0x0
    223a:	85 ed                	test   ebp,ebp
    223c:	0f 84 8e 00 00 00    	je     22d0 <CL_WalkDemoExt+0xb0>
    2242:	49 89 d5             	mov    r13,rdx
    2245:	48 89 f3             	mov    rbx,rsi
    2248:	4c 8d 25 00 00 00 00 	lea    r12,[rip+0x0]        # 224f <CL_WalkDemoExt+0x2f>
    224f:	49 89 fe             	mov    r14,rdi
    2252:	4c 8d 3d 00 00 00 00 	lea    r15,[rip+0x0]        # 2259 <CL_WalkDemoExt+0x39>
    2259:	eb 20                	jmp    227b <CL_WalkDemoExt+0x5b>
    225b:	0f 1f 44 00 00       	nop    DWORD PTR [rax+rax*1+0x0]
    2260:	48 8d 3d 00 00 00 00 	lea    rdi,[rip+0x0]        # 2267 <CL_WalkDemoExt+0x47>
    2267:	31 c0                	xor    eax,eax
    2269:	49 83 c4 04          	add    r12,0x4
    226d:	e8 00 00 00 00       	call   2272 <CL_WalkDemoExt+0x52>
    2272:	41 8b 6c 24 fc       	mov    ebp,DWORD PTR [r12-0x4]
    2277:	85 ed                	test   ebp,ebp
    2279:	74 55                	je     22d0 <CL_WalkDemoExt+0xb0>
    227b:	41 89 e8             	mov    r8d,ebp
    227e:	4c 89 f1             	mov    rcx,r14
    2281:	4c 89 fa             	mov    rdx,r15
    2284:	be 00 10 00 00       	mov    esi,0x1000
    2289:	48 89 df             	mov    rdi,rbx
    228c:	31 c0                	xor    eax,eax
    228e:	e8 00 00 00 00       	call   2293 <CL_WalkDemoExt+0x73>
    2293:	e8 00 00 00 00       	call   2298 <CL_WalkDemoExt+0x78>
    2298:	4c 89 ee             	mov    rsi,r13
    229b:	ba 01 00 00 00       	mov    edx,0x1
    22a0:	48 89 df             	mov    rdi,rbx
    22a3:	e8 00 00 00 00       	call   22a8 <CL_WalkDemoExt+0x88>
    22a8:	e8 00 00 00 00       	call   22ad <CL_WalkDemoExt+0x8d>
    22ad:	41 8b 45 00          	mov    eax,DWORD PTR [r13+0x0]
    22b1:	48 89 de             	mov    rsi,rbx
    22b4:	85 c0                	test   eax,eax
    22b6:	74 a8                	je     2260 <CL_WalkDemoExt+0x40>
    22b8:	48 8d 3d 00 00 00 00 	lea    rdi,[rip+0x0]        # 22bf <CL_WalkDemoExt+0x9f>
    22bf:	31 c0                	xor    eax,eax
    22c1:	e8 00 00 00 00       	call   22c6 <CL_WalkDemoExt+0xa6>
    22c6:	eb 0d                	jmp    22d5 <CL_WalkDemoExt+0xb5>
    22c8:	0f 1f 84 00 00 00 00 	nop    DWORD PTR [rax+rax*1+0x0]
    22cf:	00 
    22d0:	bd ff ff ff ff       	mov    ebp,0xffffffff
    22d5:	48 83 c4 08          	add    rsp,0x8
    22d9:	89 e8                	mov    eax,ebp
    22db:	5b                   	pop    rbx
    22dc:	5d                   	pop    rbp
    22dd:	41 5c                	pop    r12
    22df:	41 5d                	pop    r13
    22e1:	41 5e                	pop    r14
    22e3:	41 5f                	pop    r15
    22e5:	c3                   	ret    
    22e6:	66 2e 0f 1f 84 00 00 	nop    WORD PTR cs:[rax+rax*1+0x0]
    22ed:	00 00 00 

00000000000022f0 <CL_Record_f>:
CL_Record_f():
    22f0:	41 54                	push   r12
    22f2:	55                   	push   rbp
    22f3:	53                   	push   rbx
    22f4:	48 81 ec 40 20 00 00 	sub    rsp,0x2040
    22fb:	e8 00 00 00 00       	call   2300 <CL_Record_f+0x10>
    2300:	83 f8 02             	cmp    eax,0x2
    2303:	0f 8f 97 01 00 00    	jg     24a0 <CL_Record_f+0x1b0>
    2309:	8b 15 00 00 00 00    	mov    edx,DWORD PTR [rip+0x0]        # 230f <CL_Record_f+0x1f>
    230f:	85 d2                	test   edx,edx
    2311:	0f 85 61 01 00 00    	jne    2478 <CL_Record_f+0x188>
    2317:	83 3d 00 00 00 00 08 	cmp    DWORD PTR [rip+0x0],0x8        # 231e <CL_Record_f+0x2e>
    231e:	74 20                	je     2340 <CL_Record_f+0x50>
    2320:	48 8d 3d 00 00 00 00 	lea    rdi,[rip+0x0]        # 2327 <CL_Record_f+0x37>
    2327:	31 c0                	xor    eax,eax
    2329:	e8 00 00 00 00       	call   232e <CL_Record_f+0x3e>
    232e:	48 81 c4 40 20 00 00 	add    rsp,0x2040
    2335:	5b                   	pop    rbx
    2336:	5d                   	pop    rbp
    2337:	41 5c                	pop    r12
    2339:	c3                   	ret    
    233a:	66 0f 1f 44 00 00    	nop    WORD PTR [rax+rax*1+0x0]
    2340:	48 8d 3d 00 00 00 00 	lea    rdi,[rip+0x0]        # 2347 <CL_Record_f+0x57>
    2347:	e8 00 00 00 00       	call   234c <CL_Record_f+0x5c>
    234c:	85 c0                	test   eax,eax
    234e:	0f 85 cc 01 00 00    	jne    2520 <CL_Record_f+0x230>
    2354:	e8 00 00 00 00       	call   2359 <CL_Record_f+0x69>
    2359:	83 f8 02             	cmp    eax,0x2
    235c:	0f 84 5e 01 00 00    	je     24c0 <CL_Record_f+0x1d0>
    2362:	48 8d 7c 24 10       	lea    rdi,[rsp+0x10]
    2367:	48 8d 9c 24 40 10 00 	lea    rbx,[rsp+0x1040]
    236e:	00 
    236f:	e8 00 00 00 00       	call   2374 <CL_Record_f+0x84>
    2374:	8b 44 24 24          	mov    eax,DWORD PTR [rsp+0x24]
    2378:	48 83 ec 08          	sub    rsp,0x8
    237c:	48 89 df             	mov    rdi,rbx
    237f:	48 8d 15 00 00 00 00 	lea    rdx,[rip+0x0]        # 2386 <CL_Record_f+0x96>
    2386:	be 00 10 00 00       	mov    esi,0x1000
    238b:	8d 88 6c 07 00 00    	lea    ecx,[rax+0x76c]
    2391:	8b 44 24 18          	mov    eax,DWORD PTR [rsp+0x18]
    2395:	50                   	push   rax
    2396:	8b 44 24 24          	mov    eax,DWORD PTR [rsp+0x24]
    239a:	50                   	push   rax
    239b:	8b 44 24 30          	mov    eax,DWORD PTR [rsp+0x30]
    239f:	50                   	push   rax
    23a0:	8b 44 24 40          	mov    eax,DWORD PTR [rsp+0x40]
    23a4:	44 8b 4c 24 3c       	mov    r9d,DWORD PTR [rsp+0x3c]
    23a9:	44 8d 40 01          	lea    r8d,[rax+0x1]
    23ad:	31 c0                	xor    eax,eax
    23af:	e8 00 00 00 00       	call   23b4 <CL_Record_f+0xc4>
    23b4:	48 83 c4 20          	add    rsp,0x20
    23b8:	c7 05 00 00 00 00 00 	mov    DWORD PTR [rip+0x0],0x0        # 23c2 <CL_Record_f+0xd2>
    23bf:	00 00 00 
    23c2:	ba 00 10 00 00       	mov    edx,0x1000
    23c7:	48 89 de             	mov    rsi,rbx
    23ca:	48 8d 3d 00 00 00 00 	lea    rdi,[rip+0x0]        # 23d1 <CL_Record_f+0xe1>
    23d1:	e8 00 00 00 00       	call   23d6 <CL_Record_f+0xe6>
    23d6:	31 c0                	xor    eax,eax
    23d8:	48 89 de             	mov    rsi,rbx
    23db:	48 8d 3d 00 00 00 00 	lea    rdi,[rip+0x0]        # 23e2 <CL_Record_f+0xf2>
    23e2:	e8 00 00 00 00       	call   23e7 <CL_Record_f+0xf7>
    23e7:	48 8d 15 00 00 00 00 	lea    rdx,[rip+0x0]        # 23ee <CL_Record_f+0xfe>
    23ee:	be 00 10 00 00       	mov    esi,0x1000
    23f3:	48 89 df             	mov    rdi,rbx
    23f6:	e8 00 00 00 00       	call   23fb <CL_Record_f+0x10b>
    23fb:	48 89 df             	mov    rdi,rbx
    23fe:	e8 00 00 00 00       	call   2403 <CL_Record_f+0x113>
    2403:	89 05 00 00 00 00    	mov    DWORD PTR [rip+0x0],eax        # 2409 <CL_Record_f+0x119>
    2409:	85 c0                	test   eax,eax
    240b:	0f 84 37 01 00 00    	je     2548 <CL_Record_f+0x258>
    2411:	48 8d 35 00 00 00 00 	lea    rsi,[rip+0x0]        # 2418 <CL_Record_f+0x128>
    2418:	c7 05 00 00 00 00 01 	mov    DWORD PTR [rip+0x0],0x1        # 2422 <CL_Record_f+0x132>
    241f:	00 00 00 
    2422:	48 8d be 04 10 00 00 	lea    rdi,[rsi+0x1004]
    2429:	e8 00 00 00 00       	call   242e <CL_Record_f+0x13e>
    242e:	48 8d 3d 00 00 00 00 	lea    rdi,[rip+0x0]        # 2435 <CL_Record_f+0x145>
    2435:	e8 00 00 00 00       	call   243a <CL_Record_f+0x14a>
    243a:	bf 01 00 00 00       	mov    edi,0x1
    243f:	c7 05 00 00 00 00 01 	mov    DWORD PTR [rip+0x0],0x1        # 2449 <CL_Record_f+0x159>
    2446:	00 00 00 
    2449:	c7 05 00 00 00 00 01 	mov    DWORD PTR [rip+0x0],0x1        # 2453 <CL_Record_f+0x163>
    2450:	00 00 00 
    2453:	85 c0                	test   eax,eax
    2455:	0f 95 c0             	setne  al
    2458:	0f b6 c0             	movzx  eax,al
    245b:	89 05 00 00 00 00    	mov    DWORD PTR [rip+0x0],eax        # 2461 <CL_Record_f+0x171>
    2461:	e8 ea de ff ff       	call   350 <CL_WriteGamestate>
    2466:	48 81 c4 40 20 00 00 	add    rsp,0x2040
    246d:	5b                   	pop    rbx
    246e:	5d                   	pop    rbp
    246f:	41 5c                	pop    r12
    2471:	c3                   	ret    
    2472:	66 0f 1f 44 00 00    	nop    WORD PTR [rax+rax*1+0x0]
    2478:	8b 05 00 00 00 00    	mov    eax,DWORD PTR [rip+0x0]        # 247e <CL_Record_f+0x18e>
    247e:	85 c0                	test   eax,eax
    2480:	0f 85 a8 fe ff ff    	jne    232e <CL_Record_f+0x3e>
    2486:	48 8d 3d 00 00 00 00 	lea    rdi,[rip+0x0]        # 248d <CL_Record_f+0x19d>
    248d:	31 c0                	xor    eax,eax
    248f:	e8 00 00 00 00       	call   2494 <CL_Record_f+0x1a4>
    2494:	e9 95 fe ff ff       	jmp    232e <CL_Record_f+0x3e>
    2499:	0f 1f 80 00 00 00 00 	nop    DWORD PTR [rax+0x0]
    24a0:	48 8d 3d 00 00 00 00 	lea    rdi,[rip+0x0]        # 24a7 <CL_Record_f+0x1b7>
    24a7:	31 c0                	xor    eax,eax
    24a9:	e8 00 00 00 00       	call   24ae <CL_Record_f+0x1be>
    24ae:	48 81 c4 40 20 00 00 	add    rsp,0x2040
    24b5:	5b                   	pop    rbx
    24b6:	5d                   	pop    rbp
    24b7:	41 5c                	pop    r12
    24b9:	c3                   	ret    
    24ba:	66 0f 1f 44 00 00    	nop    WORD PTR [rax+rax*1+0x0]
    24c0:	bf 01 00 00 00       	mov    edi,0x1
    24c5:	48 8d 6c 24 40       	lea    rbp,[rsp+0x40]
    24ca:	e8 00 00 00 00       	call   24cf <CL_Record_f+0x1df>
    24cf:	ba 00 10 00 00       	mov    edx,0x1000
    24d4:	48 89 ef             	mov    rdi,rbp
    24d7:	48 89 c6             	mov    rsi,rax
    24da:	e8 00 00 00 00       	call   24df <CL_Record_f+0x1ef>
    24df:	48 89 ef             	mov    rdi,rbp
    24e2:	e8 00 00 00 00       	call   24e7 <CL_Record_f+0x1f7>
    24e7:	80 38 00             	cmp    BYTE PTR [rax],0x0
    24ea:	48 89 c3             	mov    rbx,rax
    24ed:	75 71                	jne    2560 <CL_Record_f+0x270>
    24ef:	48 8d 9c 24 40 10 00 	lea    rbx,[rsp+0x1040]
    24f6:	00 
    24f7:	48 89 e9             	mov    rcx,rbp
    24fa:	be 00 10 00 00       	mov    esi,0x1000
    24ff:	31 c0                	xor    eax,eax
    2501:	48 8d 15 00 00 00 00 	lea    rdx,[rip+0x0]        # 2508 <CL_Record_f+0x218>
    2508:	48 89 df             	mov    rdi,rbx
    250b:	e8 00 00 00 00       	call   2510 <CL_Record_f+0x220>
    2510:	c7 05 00 00 00 00 01 	mov    DWORD PTR [rip+0x0],0x1        # 251a <CL_Record_f+0x22a>
    2517:	00 00 00 
    251a:	e9 a3 fe ff ff       	jmp    23c2 <CL_Record_f+0xd2>
    251f:	90                   	nop
    2520:	48 8d 3d 00 00 00 00 	lea    rdi,[rip+0x0]        # 2527 <CL_Record_f+0x237>
    2527:	e8 00 00 00 00       	call   252c <CL_Record_f+0x23c>
    252c:	85 c0                	test   eax,eax
    252e:	0f 85 20 fe ff ff    	jne    2354 <CL_Record_f+0x64>
    2534:	48 8d 3d 00 00 00 00 	lea    rdi,[rip+0x0]        # 253b <CL_Record_f+0x24b>
    253b:	e8 00 00 00 00       	call   2540 <CL_Record_f+0x250>
    2540:	e9 0f fe ff ff       	jmp    2354 <CL_Record_f+0x64>
    2545:	0f 1f 00             	nop    DWORD PTR [rax]
    2548:	48 8d 3d 00 00 00 00 	lea    rdi,[rip+0x0]        # 254f <CL_Record_f+0x25f>
    254f:	e8 00 00 00 00       	call   2554 <CL_Record_f+0x264>
    2554:	c6 05 00 00 00 00 00 	mov    BYTE PTR [rip+0x0],0x0        # 255b <CL_Record_f+0x26b>
    255b:	e9 ce fd ff ff       	jmp    232e <CL_Record_f+0x3e>
    2560:	49 89 e4             	mov    r12,rsp
    2563:	48 8d 35 00 00 00 00 	lea    rsi,[rip+0x0]        # 256a <CL_Record_f+0x27a>
    256a:	31 c0                	xor    eax,eax
    256c:	b9 44 00 00 00       	mov    ecx,0x44
    2571:	4c 89 e7             	mov    rdi,r12
    2574:	48 8d 15 00 00 00 00 	lea    rdx,[rip+0x0]        # 257b <CL_Record_f+0x28b>
    257b:	e8 00 00 00 00       	call   2580 <CL_Record_f+0x290>
    2580:	4c 89 e6             	mov    rsi,r12
    2583:	48 89 df             	mov    rdi,rbx
    2586:	e8 00 00 00 00       	call   258b <CL_Record_f+0x29b>
    258b:	85 c0                	test   eax,eax
    258d:	75 15                	jne    25a4 <CL_Record_f+0x2b4>
    258f:	be 2e 00 00 00       	mov    esi,0x2e
    2594:	48 89 ef             	mov    rdi,rbp
    2597:	e8 00 00 00 00       	call   259c <CL_Record_f+0x2ac>
    259c:	c6 00 00             	mov    BYTE PTR [rax],0x0
    259f:	e9 4b ff ff ff       	jmp    24ef <CL_Record_f+0x1ff>
    25a4:	48 8d 35 00 00 00 00 	lea    rsi,[rip+0x0]        # 25ab <CL_Record_f+0x2bb>
    25ab:	4c 89 e7             	mov    rdi,r12
    25ae:	31 c0                	xor    eax,eax
    25b0:	b9 47 00 00 00       	mov    ecx,0x47
    25b5:	48 8d 15 00 00 00 00 	lea    rdx,[rip+0x0]        # 25bc <CL_Record_f+0x2cc>
    25bc:	e8 00 00 00 00       	call   25c1 <CL_Record_f+0x2d1>
    25c1:	4c 89 e6             	mov    rsi,r12
    25c4:	48 89 df             	mov    rdi,rbx
    25c7:	e8 00 00 00 00       	call   25cc <CL_Record_f+0x2dc>
    25cc:	85 c0                	test   eax,eax
    25ce:	0f 85 1b ff ff ff    	jne    24ef <CL_Record_f+0x1ff>
    25d4:	eb b9                	jmp    258f <CL_Record_f+0x29f>
    25d6:	66 2e 0f 1f 84 00 00 	nop    WORD PTR cs:[rax+rax*1+0x0]
    25dd:	00 00 00 

00000000000025e0 <CL_Configstrings_f>:
CL_Configstrings_f():
    25e0:	83 3d 00 00 00 00 08 	cmp    DWORD PTR [rip+0x0],0x8        # 25e7 <CL_Configstrings_f+0x7>
    25e7:	75 45                	jne    262e <CL_Configstrings_f+0x4e>
    25e9:	41 54                	push   r12
    25eb:	55                   	push   rbp
    25ec:	48 8d 2d 00 00 00 00 	lea    rbp,[rip+0x0]        # 25f3 <CL_Configstrings_f+0x13>
    25f3:	53                   	push   rbx
    25f4:	4c 8d a5 00 10 00 00 	lea    r12,[rbp+0x1000]
    25fb:	31 db                	xor    ebx,ebx
    25fd:	0f 1f 00             	nop    DWORD PTR [rax]
    2600:	48 63 54 9d 00       	movsxd rdx,DWORD PTR [rbp+rbx*4+0x0]
    2605:	85 d2                	test   edx,edx
    2607:	74 13                	je     261c <CL_Configstrings_f+0x3c>
    2609:	4c 01 e2             	add    rdx,r12
    260c:	89 de                	mov    esi,ebx
    260e:	48 8d 3d 00 00 00 00 	lea    rdi,[rip+0x0]        # 2615 <CL_Configstrings_f+0x35>
    2615:	31 c0                	xor    eax,eax
    2617:	e8 00 00 00 00       	call   261c <CL_Configstrings_f+0x3c>
    261c:	48 83 c3 01          	add    rbx,0x1
    2620:	48 81 fb 00 04 00 00 	cmp    rbx,0x400
    2627:	75 d7                	jne    2600 <CL_Configstrings_f+0x20>
    2629:	5b                   	pop    rbx
    262a:	5d                   	pop    rbp
    262b:	41 5c                	pop    r12
    262d:	c3                   	ret    
    262e:	48 8d 3d 00 00 00 00 	lea    rdi,[rip+0x0]        # 2635 <CL_Configstrings_f+0x55>
    2635:	31 c0                	xor    eax,eax
    2637:	e9 00 00 00 00       	jmp    263c <CL_Configstrings_f+0x5c>
    263c:	0f 1f 40 00          	nop    DWORD PTR [rax+0x0]

0000000000002640 <CL_Reconnect_f>:
CL_Reconnect_f():
    2640:	48 8b 05 00 00 00 00 	mov    rax,QWORD PTR [rip+0x0]        # 2647 <CL_Reconnect_f+0x7>
    2647:	48 8b 78 08          	mov    rdi,QWORD PTR [rax+0x8]
    264b:	80 3f 00             	cmp    BYTE PTR [rdi],0x0
    264e:	75 08                	jne    2658 <CL_Reconnect_f+0x18>
    2650:	c3                   	ret    
    2651:	0f 1f 80 00 00 00 00 	nop    DWORD PTR [rax+0x0]
    2658:	48 83 ec 08          	sub    rsp,0x8
    265c:	48 8d 35 00 00 00 00 	lea    rsi,[rip+0x0]        # 2663 <CL_Reconnect_f+0x23>
    2663:	e8 00 00 00 00       	call   2668 <CL_Reconnect_f+0x28>
    2668:	85 c0                	test   eax,eax
    266a:	74 3c                	je     26a8 <CL_Reconnect_f+0x68>
    266c:	48 8d 35 00 00 00 00 	lea    rsi,[rip+0x0]        # 2673 <CL_Reconnect_f+0x33>
    2673:	48 8d 3d 00 00 00 00 	lea    rdi,[rip+0x0]        # 267a <CL_Reconnect_f+0x3a>
    267a:	e8 00 00 00 00       	call   267f <CL_Reconnect_f+0x3f>
    267f:	48 8b 05 00 00 00 00 	mov    rax,QWORD PTR [rip+0x0]        # 2686 <CL_Reconnect_f+0x46>
    2686:	48 8d 3d 00 00 00 00 	lea    rdi,[rip+0x0]        # 268d <CL_Reconnect_f+0x4d>
    268d:	48 8b 70 08          	mov    rsi,QWORD PTR [rax+0x8]
    2691:	31 c0                	xor    eax,eax
    2693:	e8 00 00 00 00       	call   2698 <CL_Reconnect_f+0x58>
    2698:	48 83 c4 08          	add    rsp,0x8
    269c:	48 89 c7             	mov    rdi,rax
    269f:	e9 00 00 00 00       	jmp    26a4 <CL_Reconnect_f+0x64>
    26a4:	0f 1f 40 00          	nop    DWORD PTR [rax+0x0]
    26a8:	48 83 c4 08          	add    rsp,0x8
    26ac:	c3                   	ret    
    26ad:	0f 1f 00             	nop    DWORD PTR [rax]

00000000000026b0 <CL_SetModel_f>:
CL_SetModel_f():
    26b0:	53                   	push   rbx
    26b1:	bf 01 00 00 00       	mov    edi,0x1
    26b6:	48 81 ec 00 01 00 00 	sub    rsp,0x100
    26bd:	e8 00 00 00 00       	call   26c2 <CL_SetModel_f+0x12>
    26c2:	80 38 00             	cmp    BYTE PTR [rax],0x0
    26c5:	74 31                	je     26f8 <CL_SetModel_f+0x48>
    26c7:	48 89 c3             	mov    rbx,rax
    26ca:	48 89 c6             	mov    rsi,rax
    26cd:	48 8d 3d 00 00 00 00 	lea    rdi,[rip+0x0]        # 26d4 <CL_SetModel_f+0x24>
    26d4:	e8 00 00 00 00       	call   26d9 <CL_SetModel_f+0x29>
    26d9:	48 89 de             	mov    rsi,rbx
    26dc:	48 8d 3d 00 00 00 00 	lea    rdi,[rip+0x0]        # 26e3 <CL_SetModel_f+0x33>
    26e3:	e8 00 00 00 00       	call   26e8 <CL_SetModel_f+0x38>
    26e8:	48 81 c4 00 01 00 00 	add    rsp,0x100
    26ef:	5b                   	pop    rbx
    26f0:	c3                   	ret    
    26f1:	0f 1f 80 00 00 00 00 	nop    DWORD PTR [rax+0x0]
    26f8:	48 89 e3             	mov    rbx,rsp
    26fb:	ba 00 01 00 00       	mov    edx,0x100
    2700:	48 8d 3d 00 00 00 00 	lea    rdi,[rip+0x0]        # 2707 <CL_SetModel_f+0x57>
    2707:	48 89 de             	mov    rsi,rbx
    270a:	e8 00 00 00 00       	call   270f <CL_SetModel_f+0x5f>
    270f:	48 89 de             	mov    rsi,rbx
    2712:	48 8d 3d 00 00 00 00 	lea    rdi,[rip+0x0]        # 2719 <CL_SetModel_f+0x69>
    2719:	31 c0                	xor    eax,eax
    271b:	e8 00 00 00 00       	call   2720 <CL_SetModel_f+0x70>
    2720:	48 81 c4 00 01 00 00 	add    rsp,0x100
    2727:	5b                   	pop    rbx
    2728:	c3                   	ret    
    2729:	0f 1f 80 00 00 00 00 	nop    DWORD PTR [rax+0x0]

0000000000002730 <CL_CompleteCallvote.part.5>:
CL_CompleteCallvote.part.5():
    2730:	53                   	push   rbx
    2731:	48 8d 15 00 00 00 00 	lea    rdx,[rip+0x0]        # 2738 <CL_CompleteCallvote.part.5+0x8>
    2738:	be 01 00 00 00       	mov    esi,0x1
    273d:	48 89 fb             	mov    rbx,rdi
    2740:	e8 00 00 00 00       	call   2745 <CL_CompleteCallvote.part.5+0x15>
    2745:	48 39 c3             	cmp    rbx,rax
    2748:	72 06                	jb     2750 <CL_CompleteCallvote.part.5+0x20>
    274a:	5b                   	pop    rbx
    274b:	c3                   	ret    
    274c:	0f 1f 40 00          	nop    DWORD PTR [rax+0x0]
    2750:	ba 01 00 00 00       	mov    edx,0x1
    2755:	be 01 00 00 00       	mov    esi,0x1
    275a:	48 89 c7             	mov    rdi,rax
    275d:	5b                   	pop    rbx
    275e:	e9 00 00 00 00       	jmp    2763 <CL_CompleteCallvote.part.5+0x33>
    2763:	66 66 2e 0f 1f 84 00 	data16 nop WORD PTR cs:[rax+rax*1+0x0]
    276a:	00 00 00 00 
    276e:	66 90                	xchg   ax,ax

0000000000002770 <CL_CompleteCallvote>:
CL_CompleteCallvote():
    2770:	83 fe 01             	cmp    esi,0x1
    2773:	7f 0b                	jg     2780 <CL_CompleteCallvote+0x10>
    2775:	c3                   	ret    
    2776:	66 2e 0f 1f 84 00 00 	nop    WORD PTR cs:[rax+rax*1+0x0]
    277d:	00 00 00 
    2780:	eb ae                	jmp    2730 <CL_CompleteCallvote.part.5>
    2782:	66 66 2e 0f 1f 84 00 	data16 nop WORD PTR cs:[rax+rax*1+0x0]
    2789:	00 00 00 00 
    278d:	0f 1f 00             	nop    DWORD PTR [rax]

0000000000002790 <CL_CompleteRcon>:
CL_CompleteRcon():
    2790:	83 fe 01             	cmp    esi,0x1
    2793:	7f 0b                	jg     27a0 <CL_CompleteRcon+0x10>
    2795:	c3                   	ret    
    2796:	66 2e 0f 1f 84 00 00 	nop    WORD PTR cs:[rax+rax*1+0x0]
    279d:	00 00 00 
    27a0:	eb 8e                	jmp    2730 <CL_CompleteCallvote.part.5>
    27a2:	66 66 2e 0f 1f 84 00 	data16 nop WORD PTR cs:[rax+rax*1+0x0]
    27a9:	00 00 00 00 
    27ad:	0f 1f 00             	nop    DWORD PTR [rax]

00000000000027b0 <CL_SetServerInfoByAddress>:
CL_SetServerInfoByAddress():
    27b0:	41 56                	push   r14
    27b2:	41 55                	push   r13
    27b4:	41 89 d5             	mov    r13d,edx
    27b7:	41 54                	push   r12
    27b9:	49 89 f4             	mov    r12,rsi
    27bc:	55                   	push   rbp
    27bd:	48 89 fd             	mov    rbp,rdi
    27c0:	53                   	push   rbx
    27c1:	48 8d 1d 00 00 00 00 	lea    rbx,[rip+0x0]        # 27c8 <CL_SetServerInfoByAddress+0x18>
    27c8:	4c 8d b3 00 58 00 00 	lea    r14,[rbx+0x5800]
    27cf:	eb 13                	jmp    27e4 <CL_SetServerInfoByAddress+0x34>
    27d1:	0f 1f 80 00 00 00 00 	nop    DWORD PTR [rax+0x0]
    27d8:	48 81 c3 b0 00 00 00 	add    rbx,0xb0
    27df:	4c 39 f3             	cmp    rbx,r14
    27e2:	74 29                	je     280d <CL_SetServerInfoByAddress+0x5d>
    27e4:	48 89 de             	mov    rsi,rbx
    27e7:	48 89 ef             	mov    rdi,rbp
    27ea:	e8 00 00 00 00       	call   27ef <CL_SetServerInfoByAddress+0x3f>
    27ef:	85 c0                	test   eax,eax
    27f1:	74 e5                	je     27d8 <CL_SetServerInfoByAddress+0x28>
    27f3:	48 89 df             	mov    rdi,rbx
    27f6:	44 89 ea             	mov    edx,r13d
    27f9:	4c 89 e6             	mov    rsi,r12
    27fc:	48 81 c3 b0 00 00 00 	add    rbx,0xb0
    2803:	e8 d8 e2 ff ff       	call   ae0 <CL_SetServerInfo>
    2808:	4c 39 f3             	cmp    rbx,r14
    280b:	75 d7                	jne    27e4 <CL_SetServerInfoByAddress+0x34>
    280d:	48 8d 1d 00 00 00 00 	lea    rbx,[rip+0x0]        # 2814 <CL_SetServerInfoByAddress+0x64>
    2814:	4c 8d b3 00 00 0b 00 	lea    r14,[rbx+0xb0000]
    281b:	eb 0f                	jmp    282c <CL_SetServerInfoByAddress+0x7c>
    281d:	0f 1f 00             	nop    DWORD PTR [rax]
    2820:	48 81 c3 b0 00 00 00 	add    rbx,0xb0
    2827:	49 39 de             	cmp    r14,rbx
    282a:	74 29                	je     2855 <CL_SetServerInfoByAddress+0xa5>
    282c:	48 89 de             	mov    rsi,rbx
    282f:	48 89 ef             	mov    rdi,rbp
    2832:	e8 00 00 00 00       	call   2837 <CL_SetServerInfoByAddress+0x87>
    2837:	85 c0                	test   eax,eax
    2839:	74 e5                	je     2820 <CL_SetServerInfoByAddress+0x70>
    283b:	48 89 df             	mov    rdi,rbx
    283e:	44 89 ea             	mov    edx,r13d
    2841:	4c 89 e6             	mov    rsi,r12
    2844:	48 81 c3 b0 00 00 00 	add    rbx,0xb0
    284b:	e8 90 e2 ff ff       	call   ae0 <CL_SetServerInfo>
    2850:	49 39 de             	cmp    r14,rbx
    2853:	75 d7                	jne    282c <CL_SetServerInfoByAddress+0x7c>
    2855:	48 8d 1d 00 00 00 00 	lea    rbx,[rip+0x0]        # 285c <CL_SetServerInfoByAddress+0xac>
    285c:	4c 8d b3 00 58 00 00 	lea    r14,[rbx+0x5800]
    2863:	eb 0f                	jmp    2874 <CL_SetServerInfoByAddress+0xc4>
    2865:	0f 1f 00             	nop    DWORD PTR [rax]
    2868:	48 81 c3 b0 00 00 00 	add    rbx,0xb0
    286f:	4c 39 f3             	cmp    rbx,r14
    2872:	74 29                	je     289d <CL_SetServerInfoByAddress+0xed>
    2874:	48 89 de             	mov    rsi,rbx
    2877:	48 89 ef             	mov    rdi,rbp
    287a:	e8 00 00 00 00       	call   287f <CL_SetServerInfoByAddress+0xcf>
    287f:	85 c0                	test   eax,eax
    2881:	74 e5                	je     2868 <CL_SetServerInfoByAddress+0xb8>
    2883:	48 89 df             	mov    rdi,rbx
    2886:	44 89 ea             	mov    edx,r13d
    2889:	4c 89 e6             	mov    rsi,r12
    288c:	48 81 c3 b0 00 00 00 	add    rbx,0xb0
    2893:	e8 48 e2 ff ff       	call   ae0 <CL_SetServerInfo>
    2898:	4c 39 f3             	cmp    rbx,r14
    289b:	75 d7                	jne    2874 <CL_SetServerInfoByAddress+0xc4>
    289d:	5b                   	pop    rbx
    289e:	5d                   	pop    rbp
    289f:	41 5c                	pop    r12
    28a1:	41 5d                	pop    r13
    28a3:	41 5e                	pop    r14
    28a5:	c3                   	ret    
    28a6:	66 2e 0f 1f 84 00 00 	nop    WORD PTR cs:[rax+rax*1+0x0]
    28ad:	00 00 00 

00000000000028b0 <CL_ServerInfoPacket>:
CL_ServerInfoPacket():
    28b0:	41 57                	push   r15
    28b2:	41 56                	push   r14
    28b4:	41 55                	push   r13
    28b6:	41 54                	push   r12
    28b8:	55                   	push   rbp
    28b9:	53                   	push   rbx
    28ba:	48 89 fb             	mov    rbx,rdi
    28bd:	48 89 f7             	mov    rdi,rsi
    28c0:	48 81 ec 18 04 00 00 	sub    rsp,0x418
    28c7:	48 89 74 24 08       	mov    QWORD PTR [rsp+0x8],rsi
    28cc:	e8 00 00 00 00       	call   28d1 <CL_ServerInfoPacket+0x21>
    28d1:	48 8d 35 00 00 00 00 	lea    rsi,[rip+0x0]        # 28d8 <CL_ServerInfoPacket+0x28>
    28d8:	48 89 c7             	mov    rdi,rax
    28db:	48 89 04 24          	mov    QWORD PTR [rsp],rax
    28df:	e8 00 00 00 00       	call   28e4 <CL_ServerInfoPacket+0x34>
    28e4:	31 f6                	xor    esi,esi
    28e6:	ba 0a 00 00 00       	mov    edx,0xa
    28eb:	48 89 c7             	mov    rdi,rax
    28ee:	e8 00 00 00 00       	call   28f3 <CL_ServerInfoPacket+0x43>
    28f3:	83 f8 44             	cmp    eax,0x44
    28f6:	74 09                	je     2901 <CL_ServerInfoPacket+0x51>
    28f8:	83 f8 47             	cmp    eax,0x47
    28fb:	0f 85 93 02 00 00    	jne    2b94 <CL_ServerInfoPacket+0x2e4>
    2901:	48 8d 2d 00 00 00 00 	lea    rbp,[rip+0x0]        # 2908 <CL_ServerInfoPacket+0x58>
    2908:	45 31 f6             	xor    r14d,r14d
    290b:	49 89 ed             	mov    r13,rbp
    290e:	eb 15                	jmp    2925 <CL_ServerInfoPacket+0x75>
    2910:	41 83 c6 01          	add    r14d,0x1
    2914:	49 81 c5 28 04 00 00 	add    r13,0x428
    291b:	41 83 fe 20          	cmp    r14d,0x20
    291f:	0f 84 fb 00 00 00    	je     2a20 <CL_ServerInfoPacket+0x170>
    2925:	66 41 83 7d 14 00    	cmp    WORD PTR [r13+0x14],0x0
    292b:	74 e3                	je     2910 <CL_ServerInfoPacket+0x60>
    292d:	45 8b 7d 24          	mov    r15d,DWORD PTR [r13+0x24]
    2931:	45 85 ff             	test   r15d,r15d
    2934:	75 da                	jne    2910 <CL_ServerInfoPacket+0x60>
    2936:	4d 89 ec             	mov    r12,r13
    2939:	4c 89 ee             	mov    rsi,r13
    293c:	48 89 df             	mov    rdi,rbx
    293f:	49 29 ec             	sub    r12,rbp
    2942:	e8 00 00 00 00       	call   2947 <CL_ServerInfoPacket+0x97>
    2947:	85 c0                	test   eax,eax
    2949:	74 c5                	je     2910 <CL_ServerInfoPacket+0x60>
    294b:	e8 00 00 00 00       	call   2950 <CL_ServerInfoPacket+0xa0>
    2950:	49 63 ee             	movsxd rbp,r14d
    2953:	ba 01 00 00 00       	mov    edx,0x1
    2958:	48 8d 0d 00 00 00 00 	lea    rcx,[rip+0x0]        # 295f <CL_ServerInfoPacket+0xaf>
    295f:	4c 69 f5 28 04 00 00 	imul   r14,rbp,0x428
    2966:	49 01 ce             	add    r14,rcx
    2969:	41 2b 46 20          	sub    eax,DWORD PTR [r14+0x20]
    296d:	85 c0                	test   eax,eax
    296f:	0f 4e c2             	cmovle eax,edx
    2972:	41 89 46 24          	mov    DWORD PTR [r14+0x24],eax
    2976:	48 8b 05 00 00 00 00 	mov    rax,QWORD PTR [rip+0x0]        # 297d <CL_ServerInfoPacket+0xcd>
    297d:	8b 40 30             	mov    eax,DWORD PTR [rax+0x30]
    2980:	85 c0                	test   eax,eax
    2982:	0f 85 2e 02 00 00    	jne    2bb6 <CL_ServerInfoPacket+0x306>
    2988:	48 8d 05 00 00 00 00 	lea    rax,[rip+0x0]        # 298f <CL_ServerInfoPacket+0xdf>
    298f:	48 8b 34 24          	mov    rsi,QWORD PTR [rsp]
    2993:	ba 00 04 00 00       	mov    edx,0x400
    2998:	4e 8d 64 20 28       	lea    r12,[rax+r12*1+0x28]
    299d:	4c 89 e7             	mov    rdi,r12
    29a0:	e8 00 00 00 00       	call   29a5 <CL_ServerInfoPacket+0xf5>
    29a5:	8b 03                	mov    eax,DWORD PTR [rbx]
    29a7:	83 f8 03             	cmp    eax,0x3
    29aa:	72 15                	jb     29c1 <CL_ServerInfoPacket+0x111>
    29ac:	83 f8 04             	cmp    eax,0x4
    29af:	0f 86 f6 01 00 00    	jbe    2bab <CL_ServerInfoPacket+0x2fb>
    29b5:	83 f8 05             	cmp    eax,0x5
    29b8:	b8 02 00 00 00       	mov    eax,0x2
    29bd:	44 0f 44 f8          	cmove  r15d,eax
    29c1:	44 89 fe             	mov    esi,r15d
    29c4:	48 8d 3d 00 00 00 00 	lea    rdi,[rip+0x0]        # 29cb <CL_ServerInfoPacket+0x11b>
    29cb:	31 c0                	xor    eax,eax
    29cd:	e8 00 00 00 00       	call   29d2 <CL_ServerInfoPacket+0x122>
    29d2:	48 8d 15 00 00 00 00 	lea    rdx,[rip+0x0]        # 29d9 <CL_ServerInfoPacket+0x129>
    29d9:	be 00 04 00 00       	mov    esi,0x400
    29de:	4c 89 e7             	mov    rdi,r12
    29e1:	48 89 c1             	mov    rcx,rax
    29e4:	e8 00 00 00 00       	call   29e9 <CL_ServerInfoPacket+0x139>
    29e9:	48 69 cd 28 04 00 00 	imul   rcx,rbp,0x428
    29f0:	48 8b 34 24          	mov    rsi,QWORD PTR [rsp]
    29f4:	48 89 df             	mov    rdi,rbx
    29f7:	48 8d 05 00 00 00 00 	lea    rax,[rip+0x0]        # 29fe <CL_ServerInfoPacket+0x14e>
    29fe:	8b 54 08 24          	mov    edx,DWORD PTR [rax+rcx*1+0x24]
    2a02:	e8 a9 fd ff ff       	call   27b0 <CL_SetServerInfoByAddress>
    2a07:	48 81 c4 18 04 00 00 	add    rsp,0x418
    2a0e:	5b                   	pop    rbx
    2a0f:	5d                   	pop    rbp
    2a10:	41 5c                	pop    r12
    2a12:	41 5d                	pop    r13
    2a14:	41 5e                	pop    r14
    2a16:	41 5f                	pop    r15
    2a18:	c3                   	ret    
    2a19:	0f 1f 80 00 00 00 00 	nop    DWORD PTR [rax+0x0]
    2a20:	44 8b 25 00 00 00 00 	mov    r12d,DWORD PTR [rip+0x0]        # 2a27 <CL_ServerInfoPacket+0x177>
    2a27:	45 85 e4             	test   r12d,r12d
    2a2a:	75 db                	jne    2a07 <CL_ServerInfoPacket+0x157>
    2a2c:	48 8d 2d 00 00 00 00 	lea    rbp,[rip+0x0]        # 2a33 <CL_ServerInfoPacket+0x183>
    2a33:	eb 2a                	jmp    2a5f <CL_ServerInfoPacket+0x1af>
    2a35:	0f 1f 00             	nop    DWORD PTR [rax]
    2a38:	48 89 ee             	mov    rsi,rbp
    2a3b:	48 89 df             	mov    rdi,rbx
    2a3e:	e8 00 00 00 00       	call   2a43 <CL_ServerInfoPacket+0x193>
    2a43:	85 c0                	test   eax,eax
    2a45:	75 c0                	jne    2a07 <CL_ServerInfoPacket+0x157>
    2a47:	41 83 c4 01          	add    r12d,0x1
    2a4b:	48 81 c5 b0 00 00 00 	add    rbp,0xb0
    2a52:	41 81 fc 80 00 00 00 	cmp    r12d,0x80
    2a59:	0f 84 79 01 00 00    	je     2bd8 <CL_ServerInfoPacket+0x328>
    2a5f:	66 83 7d 14 00       	cmp    WORD PTR [rbp+0x14],0x0
    2a64:	75 d2                	jne    2a38 <CL_ServerInfoPacket+0x188>
    2a66:	41 8d 44 24 01       	lea    eax,[r12+0x1]
    2a6b:	4d 63 e4             	movsxd r12,r12d
    2a6e:	f3 0f 6f 03          	movdqu xmm0,XMMWORD PTR [rbx]
    2a72:	48 8d 0d 00 00 00 00 	lea    rcx,[rip+0x0]        # 2a79 <CL_ServerInfoPacket+0x1c9>
    2a79:	89 05 00 00 00 00    	mov    DWORD PTR [rip+0x0],eax        # 2a7f <CL_ServerInfoPacket+0x1cf>
    2a7f:	4b 8d 04 a4          	lea    rax,[r12+r12*4]
    2a83:	48 8b 7c 24 08       	mov    rdi,QWORD PTR [rsp+0x8]
    2a88:	48 8d 91 30 10 00 00 	lea    rdx,[rcx+0x1030]
    2a8f:	49 8d 04 44          	lea    rax,[r12+rax*2]
    2a93:	48 8d b1 c0 10 00 00 	lea    rsi,[rcx+0x10c0]
    2a9a:	48 c1 e0 04          	shl    rax,0x4
    2a9e:	48 8d 6c 24 10       	lea    rbp,[rsp+0x10]
    2aa3:	48 01 c2             	add    rdx,rax
    2aa6:	0f 11 42 08          	movups XMMWORD PTR [rdx+0x8],xmm0
    2aaa:	f3 0f 6f 4b 10       	movdqu xmm1,XMMWORD PTR [rbx+0x10]
    2aaf:	0f 11 4a 18          	movups XMMWORD PTR [rdx+0x18],xmm1
    2ab3:	48 8d 14 01          	lea    rdx,[rcx+rax*1]
    2ab7:	c6 82 58 10 00 00 00 	mov    BYTE PTR [rdx+0x1058],0x0
    2abe:	c6 82 78 10 00 00 00 	mov    BYTE PTR [rdx+0x1078],0x0
    2ac5:	48 c7 84 08 c8 10 00 	mov    QWORD PTR [rax+rcx*1+0x10c8],0x0
    2acc:	00 00 00 00 00 
    2ad1:	48 8d 8c 01 b0 10 00 	lea    rcx,[rcx+rax*1+0x10b0]
    2ad8:	00 
    2ad9:	c7 82 d0 10 00 00 ff 	mov    DWORD PTR [rdx+0x10d0],0xffffffff
    2ae0:	ff ff ff 
    2ae3:	c6 82 98 10 00 00 00 	mov    BYTE PTR [rdx+0x1098],0x0
    2aea:	48 c7 41 08 00 00 00 	mov    QWORD PTR [rcx+0x8],0x0
    2af1:	00 
    2af2:	48 c7 41 10 00 00 00 	mov    QWORD PTR [rcx+0x10],0x0
    2af9:	00 
    2afa:	48 c7 44 30 18 00 00 	mov    QWORD PTR [rax+rsi*1+0x18],0x0
    2b01:	00 00 
    2b03:	c7 82 e0 10 00 00 00 	mov    DWORD PTR [rdx+0x10e0],0x0
    2b0a:	00 00 00 
    2b0d:	e8 00 00 00 00       	call   2b12 <CL_ServerInfoPacket+0x262>
    2b12:	ba 00 04 00 00       	mov    edx,0x400
    2b17:	48 89 ef             	mov    rdi,rbp
    2b1a:	48 89 c6             	mov    rsi,rax
    2b1d:	e8 00 00 00 00       	call   2b22 <CL_ServerInfoPacket+0x272>
    2b22:	48 89 ea             	mov    rdx,rbp
    2b25:	8b 0a                	mov    ecx,DWORD PTR [rdx]
    2b27:	48 83 c2 04          	add    rdx,0x4
    2b2b:	8d 81 ff fe fe fe    	lea    eax,[rcx-0x1010101]
    2b31:	f7 d1                	not    ecx
    2b33:	21 c8                	and    eax,ecx
    2b35:	25 80 80 80 80       	and    eax,0x80808080
    2b3a:	74 e9                	je     2b25 <CL_ServerInfoPacket+0x275>
    2b3c:	89 c1                	mov    ecx,eax
    2b3e:	c1 e9 10             	shr    ecx,0x10
    2b41:	a9 80 80 00 00       	test   eax,0x8080
    2b46:	0f 44 c1             	cmove  eax,ecx
    2b49:	48 8d 4a 02          	lea    rcx,[rdx+0x2]
    2b4d:	48 0f 44 d1          	cmove  rdx,rcx
    2b51:	89 c1                	mov    ecx,eax
    2b53:	00 c1                	add    cl,al
    2b55:	48 83 da 03          	sbb    rdx,0x3
    2b59:	48 29 ea             	sub    rdx,rbp
    2b5c:	0f 84 a5 fe ff ff    	je     2a07 <CL_ServerInfoPacket+0x157>
    2b62:	8d 42 ff             	lea    eax,[rdx-0x1]
    2b65:	48 98                	cdqe   
    2b67:	80 7c 04 10 0a       	cmp    BYTE PTR [rsp+rax*1+0x10],0xa
    2b6c:	75 05                	jne    2b73 <CL_ServerInfoPacket+0x2c3>
    2b6e:	c6 44 04 10 00       	mov    BYTE PTR [rsp+rax*1+0x10],0x0
    2b73:	48 89 df             	mov    rdi,rbx
    2b76:	e8 00 00 00 00       	call   2b7b <CL_ServerInfoPacket+0x2cb>
    2b7b:	48 89 ea             	mov    rdx,rbp
    2b7e:	48 8d 3d 00 00 00 00 	lea    rdi,[rip+0x0]        # 2b85 <CL_ServerInfoPacket+0x2d5>
    2b85:	48 89 c6             	mov    rsi,rax
    2b88:	31 c0                	xor    eax,eax
    2b8a:	e8 00 00 00 00       	call   2b8f <CL_ServerInfoPacket+0x2df>
    2b8f:	e9 73 fe ff ff       	jmp    2a07 <CL_ServerInfoPacket+0x157>
    2b94:	48 8b 34 24          	mov    rsi,QWORD PTR [rsp]
    2b98:	48 8d 3d 00 00 00 00 	lea    rdi,[rip+0x0]        # 2b9f <CL_ServerInfoPacket+0x2ef>
    2b9f:	31 c0                	xor    eax,eax
    2ba1:	e8 00 00 00 00       	call   2ba6 <CL_ServerInfoPacket+0x2f6>
    2ba6:	e9 5c fe ff ff       	jmp    2a07 <CL_ServerInfoPacket+0x157>
    2bab:	41 bf 01 00 00 00    	mov    r15d,0x1
    2bb1:	e9 0b fe ff ff       	jmp    29c1 <CL_ServerInfoPacket+0x111>
    2bb6:	48 89 df             	mov    rdi,rbx
    2bb9:	e8 00 00 00 00       	call   2bbe <CL_ServerInfoPacket+0x30e>
    2bbe:	41 8b 76 24          	mov    esi,DWORD PTR [r14+0x24]
    2bc2:	48 8d 3d 00 00 00 00 	lea    rdi,[rip+0x0]        # 2bc9 <CL_ServerInfoPacket+0x319>
    2bc9:	48 89 c2             	mov    rdx,rax
    2bcc:	31 c0                	xor    eax,eax
    2bce:	e8 00 00 00 00       	call   2bd3 <CL_ServerInfoPacket+0x323>
    2bd3:	e9 b0 fd ff ff       	jmp    2988 <CL_ServerInfoPacket+0xd8>
    2bd8:	48 8d 3d 00 00 00 00 	lea    rdi,[rip+0x0]        # 2bdf <CL_ServerInfoPacket+0x32f>
    2bdf:	31 c0                	xor    eax,eax
    2be1:	e8 00 00 00 00       	call   2be6 <CL_ServerInfoPacket+0x336>
    2be6:	e9 1c fe ff ff       	jmp    2a07 <CL_ServerInfoPacket+0x157>
    2beb:	0f 1f 44 00 00       	nop    DWORD PTR [rax+rax*1+0x0]

0000000000002bf0 <CL_Ping_f>:
CL_Ping_f():
    2bf0:	55                   	push   rbp
    2bf1:	53                   	push   rbx
    2bf2:	48 83 ec 28          	sub    rsp,0x28
    2bf6:	e8 00 00 00 00       	call   2bfb <CL_Ping_f+0xb>
    2bfb:	8d 50 fe             	lea    edx,[rax-0x2]
    2bfe:	83 fa 01             	cmp    edx,0x1
    2c01:	0f 87 f9 00 00 00    	ja     2d00 <CL_Ping_f+0x110>
    2c07:	bf 01 00 00 00       	mov    edi,0x1
    2c0c:	83 f8 02             	cmp    eax,0x2
    2c0f:	0f 84 db 00 00 00    	je     2cf0 <CL_Ping_f+0x100>
    2c15:	e8 00 00 00 00       	call   2c1a <CL_Ping_f+0x2a>
    2c1a:	b9 03 00 00 00       	mov    ecx,0x3
    2c1f:	bb 04 00 00 00       	mov    ebx,0x4
    2c24:	48 8d 3d 00 00 00 00 	lea    rdi,[rip+0x0]        # 2c2b <CL_Ping_f+0x3b>
    2c2b:	48 89 c6             	mov    rsi,rax
    2c2e:	f3 a6                	repz cmps BYTE PTR ds:[rsi],BYTE PTR es:[rdi]
    2c30:	0f 97 c0             	seta   al
    2c33:	1c 00                	sbb    al,0x0
    2c35:	84 c0                	test   al,al
    2c37:	0f 85 03 01 00 00    	jne    2d40 <CL_Ping_f+0x150>
    2c3d:	bf 02 00 00 00       	mov    edi,0x2
    2c42:	e8 00 00 00 00       	call   2c47 <CL_Ping_f+0x57>
    2c47:	48 89 e5             	mov    rbp,rsp
    2c4a:	66 0f ef c0          	pxor   xmm0,xmm0
    2c4e:	89 da                	mov    edx,ebx
    2c50:	48 89 c7             	mov    rdi,rax
    2c53:	48 89 ee             	mov    rsi,rbp
    2c56:	0f 29 04 24          	movaps XMMWORD PTR [rsp],xmm0
    2c5a:	0f 29 44 24 10       	movaps XMMWORD PTR [rsp+0x10],xmm0
    2c5f:	e8 00 00 00 00       	call   2c64 <CL_Ping_f+0x74>
    2c64:	85 c0                	test   eax,eax
    2c66:	74 7f                	je     2ce7 <CL_Ping_f+0xf7>
    2c68:	e8 00 00 00 00       	call   2c6d <CL_Ping_f+0x7d>
    2c6d:	48 8d 1d 00 00 00 00 	lea    rbx,[rip+0x0]        # 2c74 <CL_Ping_f+0x84>
    2c74:	66 83 3d 00 00 00 00 	cmp    WORD PTR [rip+0x0],0x0        # 2c7c <CL_Ping_f+0x8c>
    2c7b:	00 
    2c7c:	48 8d b3 00 85 00 00 	lea    rsi,[rbx+0x8500]
    2c83:	74 1c                	je     2ca1 <CL_Ping_f+0xb1>
    2c85:	8b 53 24             	mov    edx,DWORD PTR [rbx+0x24]
    2c88:	85 d2                	test   edx,edx
    2c8a:	0f 85 88 00 00 00    	jne    2d18 <CL_Ping_f+0x128>
    2c90:	89 c2                	mov    edx,eax
    2c92:	2b 53 20             	sub    edx,DWORD PTR [rbx+0x20]
    2c95:	81 fa f3 01 00 00    	cmp    edx,0x1f3
    2c9b:	0f 8e 83 00 00 00    	jle    2d24 <CL_Ping_f+0x134>
    2ca1:	31 c0                	xor    eax,eax
    2ca3:	66 89 43 14          	mov    WORD PTR [rbx+0x14],ax
    2ca7:	66 0f 6f 0c 24       	movdqa xmm1,XMMWORD PTR [rsp]
    2cac:	66 0f 6f 54 24 10    	movdqa xmm2,XMMWORD PTR [rsp+0x10]
    2cb2:	0f 11 0b             	movups XMMWORD PTR [rbx],xmm1
    2cb5:	0f 11 53 10          	movups XMMWORD PTR [rbx+0x10],xmm2
    2cb9:	e8 00 00 00 00       	call   2cbe <CL_Ping_f+0xce>
    2cbe:	c7 43 24 00 00 00 00 	mov    DWORD PTR [rbx+0x24],0x0
    2cc5:	31 d2                	xor    edx,edx
    2cc7:	31 f6                	xor    esi,esi
    2cc9:	89 43 20             	mov    DWORD PTR [rbx+0x20],eax
    2ccc:	48 89 df             	mov    rdi,rbx
    2ccf:	e8 dc fa ff ff       	call   27b0 <CL_SetServerInfoByAddress>
    2cd4:	48 8d 15 00 00 00 00 	lea    rdx,[rip+0x0]        # 2cdb <CL_Ping_f+0xeb>
    2cdb:	31 ff                	xor    edi,edi
    2cdd:	31 c0                	xor    eax,eax
    2cdf:	48 89 ee             	mov    rsi,rbp
    2ce2:	e8 00 00 00 00       	call   2ce7 <CL_Ping_f+0xf7>
    2ce7:	48 83 c4 28          	add    rsp,0x28
    2ceb:	5b                   	pop    rbx
    2cec:	5d                   	pop    rbp
    2ced:	c3                   	ret    
    2cee:	66 90                	xchg   ax,ax
    2cf0:	e8 00 00 00 00       	call   2cf5 <CL_Ping_f+0x105>
    2cf5:	bb 07 00 00 00       	mov    ebx,0x7
    2cfa:	e9 48 ff ff ff       	jmp    2c47 <CL_Ping_f+0x57>
    2cff:	90                   	nop
    2d00:	48 8d 3d 00 00 00 00 	lea    rdi,[rip+0x0]        # 2d07 <CL_Ping_f+0x117>
    2d07:	31 c0                	xor    eax,eax
    2d09:	e8 00 00 00 00       	call   2d0e <CL_Ping_f+0x11e>
    2d0e:	48 83 c4 28          	add    rsp,0x28
    2d12:	5b                   	pop    rbx
    2d13:	5d                   	pop    rbp
    2d14:	c3                   	ret    
    2d15:	0f 1f 00             	nop    DWORD PTR [rax]
    2d18:	81 fa f3 01 00 00    	cmp    edx,0x1f3
    2d1e:	0f 8f 7d ff ff ff    	jg     2ca1 <CL_Ping_f+0xb1>
    2d24:	48 81 c3 28 04 00 00 	add    rbx,0x428
    2d2b:	48 39 f3             	cmp    rbx,rsi
    2d2e:	74 55                	je     2d85 <CL_Ping_f+0x195>
    2d30:	66 83 7b 14 00       	cmp    WORD PTR [rbx+0x14],0x0
    2d35:	0f 85 4a ff ff ff    	jne    2c85 <CL_Ping_f+0x95>
    2d3b:	e9 61 ff ff ff       	jmp    2ca1 <CL_Ping_f+0xb1>
    2d40:	bf 01 00 00 00       	mov    edi,0x1
    2d45:	bb 05 00 00 00       	mov    ebx,0x5
    2d4a:	e8 00 00 00 00       	call   2d4f <CL_Ping_f+0x15f>
    2d4f:	b9 03 00 00 00       	mov    ecx,0x3
    2d54:	48 8d 3d 00 00 00 00 	lea    rdi,[rip+0x0]        # 2d5b <CL_Ping_f+0x16b>
    2d5b:	48 89 c6             	mov    rsi,rax
    2d5e:	f3 a6                	repz cmps BYTE PTR ds:[rsi],BYTE PTR es:[rdi]
    2d60:	0f 97 c0             	seta   al
    2d63:	1c 00                	sbb    al,0x0
    2d65:	84 c0                	test   al,al
    2d67:	0f 84 d0 fe ff ff    	je     2c3d <CL_Ping_f+0x4d>
    2d6d:	48 8d 3d 00 00 00 00 	lea    rdi,[rip+0x0]        # 2d74 <CL_Ping_f+0x184>
    2d74:	31 c0                	xor    eax,eax
    2d76:	bb 07 00 00 00       	mov    ebx,0x7
    2d7b:	e8 00 00 00 00       	call   2d80 <CL_Ping_f+0x190>
    2d80:	e9 b8 fe ff ff       	jmp    2c3d <CL_Ping_f+0x4d>
    2d85:	48 8d 1d 00 00 00 00 	lea    rbx,[rip+0x0]        # 2d8c <CL_Ping_f+0x19c>
    2d8c:	bf 00 00 00 80       	mov    edi,0x80000000
    2d91:	48 89 da             	mov    rdx,rbx
    2d94:	0f 1f 40 00          	nop    DWORD PTR [rax+0x0]
    2d98:	89 c1                	mov    ecx,eax
    2d9a:	2b 4a 20             	sub    ecx,DWORD PTR [rdx+0x20]
    2d9d:	39 f9                	cmp    ecx,edi
    2d9f:	7e 05                	jle    2da6 <CL_Ping_f+0x1b6>
    2da1:	89 cf                	mov    edi,ecx
    2da3:	48 89 d3             	mov    rbx,rdx
    2da6:	48 81 c2 28 04 00 00 	add    rdx,0x428
    2dad:	48 39 f2             	cmp    rdx,rsi
    2db0:	75 e6                	jne    2d98 <CL_Ping_f+0x1a8>
    2db2:	e9 f0 fe ff ff       	jmp    2ca7 <CL_Ping_f+0xb7>
    2db7:	66 0f 1f 84 00 00 00 	nop    WORD PTR [rax+rax*1+0x0]
    2dbe:	00 00 

0000000000002dc0 <CL_GetServerStatus>:
CL_GetServerStatus():
    2dc0:	41 55                	push   r13
    2dc2:	49 89 fd             	mov    r13,rdi
    2dc5:	41 54                	push   r12
    2dc7:	55                   	push   rbp
    2dc8:	48 8d 2d 00 00 00 00 	lea    rbp,[rip+0x0]        # 2dcf <CL_GetServerStatus+0xf>
    2dcf:	53                   	push   rbx
    2dd0:	4c 8d a5 00 20 00 00 	lea    r12,[rbp+0x2000]
    2dd7:	31 db                	xor    ebx,ebx
    2dd9:	48 83 ec 08          	sub    rsp,0x8
    2ddd:	0f 1f 00             	nop    DWORD PTR [rax]
    2de0:	49 8d 34 1c          	lea    rsi,[r12+rbx*1]
    2de4:	4c 89 ef             	mov    rdi,r13
    2de7:	e8 00 00 00 00       	call   2dec <CL_GetServerStatus+0x2c>
    2dec:	85 c0                	test   eax,eax
    2dee:	0f 85 7c 00 00 00    	jne    2e70 <CL_GetServerStatus+0xb0>
    2df4:	48 81 c3 38 20 00 00 	add    rbx,0x2038
    2dfb:	48 81 fb 80 03 02 00 	cmp    rbx,0x20380
    2e02:	75 dc                	jne    2de0 <CL_GetServerStatus+0x20>
    2e04:	48 8d 05 00 00 00 00 	lea    rax,[rip+0x0]        # 2e0b <CL_GetServerStatus+0x4b>
    2e0b:	31 d2                	xor    edx,edx
    2e0d:	0f 1f 00             	nop    DWORD PTR [rax]
    2e10:	8b 08                	mov    ecx,DWORD PTR [rax]
    2e12:	85 c9                	test   ecx,ecx
    2e14:	75 6a                	jne    2e80 <CL_GetServerStatus+0xc0>
    2e16:	83 c2 01             	add    edx,0x1
    2e19:	48 05 38 20 00 00    	add    rax,0x2038
    2e1f:	83 fa 10             	cmp    edx,0x10
    2e22:	75 ec                	jne    2e10 <CL_GetServerStatus+0x50>
    2e24:	48 8d 05 00 00 00 00 	lea    rax,[rip+0x0]        # 2e2b <CL_GetServerStatus+0x6b>
    2e2b:	31 ff                	xor    edi,edi
    2e2d:	31 d2                	xor    edx,edx
    2e2f:	be ff ff ff ff       	mov    esi,0xffffffff
    2e34:	0f 1f 40 00          	nop    DWORD PTR [rax+0x0]
    2e38:	8b 08                	mov    ecx,DWORD PTR [rax]
    2e3a:	83 fe ff             	cmp    esi,0xffffffff
    2e3d:	74 04                	je     2e43 <CL_GetServerStatus+0x83>
    2e3f:	39 f9                	cmp    ecx,edi
    2e41:	7d 04                	jge    2e47 <CL_GetServerStatus+0x87>
    2e43:	89 cf                	mov    edi,ecx
    2e45:	89 d6                	mov    esi,edx
    2e47:	83 c2 01             	add    edx,0x1
    2e4a:	48 05 38 20 00 00    	add    rax,0x2038
    2e50:	83 fa 10             	cmp    edx,0x10
    2e53:	75 e3                	jne    2e38 <CL_GetServerStatus+0x78>
    2e55:	48 63 c6             	movsxd rax,esi
    2e58:	48 83 c4 08          	add    rsp,0x8
    2e5c:	48 69 c0 38 20 00 00 	imul   rax,rax,0x2038
    2e63:	5b                   	pop    rbx
    2e64:	48 01 e8             	add    rax,rbp
    2e67:	5d                   	pop    rbp
    2e68:	41 5c                	pop    r12
    2e6a:	41 5d                	pop    r13
    2e6c:	c3                   	ret    
    2e6d:	0f 1f 00             	nop    DWORD PTR [rax]
    2e70:	48 83 c4 08          	add    rsp,0x8
    2e74:	48 8d 44 1d 00       	lea    rax,[rbp+rbx*1+0x0]
    2e79:	5b                   	pop    rbx
    2e7a:	5d                   	pop    rbp
    2e7b:	41 5c                	pop    r12
    2e7d:	41 5d                	pop    r13
    2e7f:	c3                   	ret    
    2e80:	48 63 c2             	movsxd rax,edx
    2e83:	48 83 c4 08          	add    rsp,0x8
    2e87:	48 69 c0 38 20 00 00 	imul   rax,rax,0x2038
    2e8e:	5b                   	pop    rbx
    2e8f:	48 01 e8             	add    rax,rbp
    2e92:	5d                   	pop    rbp
    2e93:	41 5c                	pop    r12
    2e95:	41 5d                	pop    r13
    2e97:	c3                   	ret    
    2e98:	0f 1f 84 00 00 00 00 	nop    DWORD PTR [rax+rax*1+0x0]
    2e9f:	00 

0000000000002ea0 <CL_ServerStatus_f>:
CL_ServerStatus_f():
    2ea0:	55                   	push   rbp
    2ea1:	53                   	push   rbx
    2ea2:	48 83 ec 28          	sub    rsp,0x28
    2ea6:	e8 00 00 00 00       	call   2eab <CL_ServerStatus_f+0xb>
    2eab:	8d 50 fe             	lea    edx,[rax-0x2]
    2eae:	83 fa 01             	cmp    edx,0x1
    2eb1:	0f 86 91 00 00 00    	jbe    2f48 <CL_ServerStatus_f+0xa8>
    2eb7:	83 3d 00 00 00 00 08 	cmp    DWORD PTR [rip+0x0],0x8        # 2ebe <CL_ServerStatus_f+0x1e>
    2ebe:	75 60                	jne    2f20 <CL_ServerStatus_f+0x80>
    2ec0:	8b 05 00 00 00 00    	mov    eax,DWORD PTR [rip+0x0]        # 2ec6 <CL_ServerStatus_f+0x26>
    2ec6:	48 8d 1d 00 00 00 00 	lea    rbx,[rip+0x0]        # 2ecd <CL_ServerStatus_f+0x2d>
    2ecd:	85 c0                	test   eax,eax
    2ecf:	75 4f                	jne    2f20 <CL_ServerStatus_f+0x80>
    2ed1:	48 8d 15 00 00 00 00 	lea    rdx,[rip+0x0]        # 2ed8 <CL_ServerStatus_f+0x38>
    2ed8:	48 89 de             	mov    rsi,rbx
    2edb:	31 ff                	xor    edi,edi
    2edd:	31 c0                	xor    eax,eax
    2edf:	e8 00 00 00 00       	call   2ee4 <CL_ServerStatus_f+0x44>
    2ee4:	48 89 df             	mov    rdi,rbx
    2ee7:	e8 d4 fe ff ff       	call   2dc0 <CL_GetServerStatus>
    2eec:	f3 0f 6f 0b          	movdqu xmm1,XMMWORD PTR [rbx]
    2ef0:	48 b9 01 00 00 00 01 	movabs rcx,0x100000001
    2ef7:	00 00 00 
    2efa:	0f 11 88 00 20 00 00 	movups XMMWORD PTR [rax+0x2000],xmm1
    2f01:	f3 0f 6f 53 10       	movdqu xmm2,XMMWORD PTR [rbx+0x10]
    2f06:	48 89 88 28 20 00 00 	mov    QWORD PTR [rax+0x2028],rcx
    2f0d:	0f 11 90 10 20 00 00 	movups XMMWORD PTR [rax+0x2010],xmm2
    2f14:	48 83 c4 28          	add    rsp,0x28
    2f18:	5b                   	pop    rbx
    2f19:	5d                   	pop    rbp
    2f1a:	c3                   	ret    
    2f1b:	0f 1f 44 00 00       	nop    DWORD PTR [rax+rax*1+0x0]
    2f20:	48 8d 3d 00 00 00 00 	lea    rdi,[rip+0x0]        # 2f27 <CL_ServerStatus_f+0x87>
    2f27:	31 c0                	xor    eax,eax
    2f29:	e8 00 00 00 00       	call   2f2e <CL_ServerStatus_f+0x8e>
    2f2e:	48 8d 3d 00 00 00 00 	lea    rdi,[rip+0x0]        # 2f35 <CL_ServerStatus_f+0x95>
    2f35:	31 c0                	xor    eax,eax
    2f37:	e8 00 00 00 00       	call   2f3c <CL_ServerStatus_f+0x9c>
    2f3c:	48 83 c4 28          	add    rsp,0x28
    2f40:	5b                   	pop    rbx
    2f41:	5d                   	pop    rbp
    2f42:	c3                   	ret    
    2f43:	0f 1f 44 00 00       	nop    DWORD PTR [rax+rax*1+0x0]
    2f48:	66 0f ef c0          	pxor   xmm0,xmm0
    2f4c:	bf 01 00 00 00       	mov    edi,0x1
    2f51:	0f 29 04 24          	movaps XMMWORD PTR [rsp],xmm0
    2f55:	0f 29 44 24 10       	movaps XMMWORD PTR [rsp+0x10],xmm0
    2f5a:	83 f8 02             	cmp    eax,0x2
    2f5d:	74 51                	je     2fb0 <CL_ServerStatus_f+0x110>
    2f5f:	e8 00 00 00 00       	call   2f64 <CL_ServerStatus_f+0xc4>
    2f64:	b9 03 00 00 00       	mov    ecx,0x3
    2f69:	bd 04 00 00 00       	mov    ebp,0x4
    2f6e:	48 8d 3d 00 00 00 00 	lea    rdi,[rip+0x0]        # 2f75 <CL_ServerStatus_f+0xd5>
    2f75:	48 89 c6             	mov    rsi,rax
    2f78:	f3 a6                	repz cmps BYTE PTR ds:[rsi],BYTE PTR es:[rdi]
    2f7a:	0f 97 c0             	seta   al
    2f7d:	1c 00                	sbb    al,0x0
    2f7f:	84 c0                	test   al,al
    2f81:	75 3d                	jne    2fc0 <CL_ServerStatus_f+0x120>
    2f83:	bf 02 00 00 00       	mov    edi,0x2
    2f88:	e8 00 00 00 00       	call   2f8d <CL_ServerStatus_f+0xed>
    2f8d:	48 89 c7             	mov    rdi,rax
    2f90:	48 89 e3             	mov    rbx,rsp
    2f93:	89 ea                	mov    edx,ebp
    2f95:	48 89 de             	mov    rsi,rbx
    2f98:	e8 00 00 00 00       	call   2f9d <CL_ServerStatus_f+0xfd>
    2f9d:	85 c0                	test   eax,eax
    2f9f:	0f 85 2c ff ff ff    	jne    2ed1 <CL_ServerStatus_f+0x31>
    2fa5:	e9 6a ff ff ff       	jmp    2f14 <CL_ServerStatus_f+0x74>
    2faa:	66 0f 1f 44 00 00    	nop    WORD PTR [rax+rax*1+0x0]
    2fb0:	e8 00 00 00 00       	call   2fb5 <CL_ServerStatus_f+0x115>
    2fb5:	bd 07 00 00 00       	mov    ebp,0x7
    2fba:	48 89 c7             	mov    rdi,rax
    2fbd:	eb d1                	jmp    2f90 <CL_ServerStatus_f+0xf0>
    2fbf:	90                   	nop
    2fc0:	bf 01 00 00 00       	mov    edi,0x1
    2fc5:	bd 05 00 00 00       	mov    ebp,0x5
    2fca:	e8 00 00 00 00       	call   2fcf <CL_ServerStatus_f+0x12f>
    2fcf:	b9 03 00 00 00       	mov    ecx,0x3
    2fd4:	48 8d 3d 00 00 00 00 	lea    rdi,[rip+0x0]        # 2fdb <CL_ServerStatus_f+0x13b>
    2fdb:	48 89 c6             	mov    rsi,rax
    2fde:	f3 a6                	repz cmps BYTE PTR ds:[rsi],BYTE PTR es:[rdi]
    2fe0:	0f 97 c0             	seta   al
    2fe3:	1c 00                	sbb    al,0x0
    2fe5:	84 c0                	test   al,al
    2fe7:	74 9a                	je     2f83 <CL_ServerStatus_f+0xe3>
    2fe9:	48 8d 3d 00 00 00 00 	lea    rdi,[rip+0x0]        # 2ff0 <CL_ServerStatus_f+0x150>
    2ff0:	31 c0                	xor    eax,eax
    2ff2:	bd 07 00 00 00       	mov    ebp,0x7
    2ff7:	e8 00 00 00 00       	call   2ffc <CL_ServerStatus_f+0x15c>
    2ffc:	eb 85                	jmp    2f83 <CL_ServerStatus_f+0xe3>
    2ffe:	66 90                	xchg   ax,ax

0000000000003000 <CL_CompleteVideoName>:
CL_CompleteVideoName():
    3000:	83 fe 02             	cmp    esi,0x2
    3003:	74 0b                	je     3010 <CL_CompleteVideoName+0x10>
    3005:	c3                   	ret    
    3006:	66 2e 0f 1f 84 00 00 	nop    WORD PTR cs:[rax+rax*1+0x0]
    300d:	00 00 00 
    3010:	b9 09 00 00 00       	mov    ecx,0x9
    3015:	ba 01 00 00 00       	mov    edx,0x1
    301a:	48 8d 35 00 00 00 00 	lea    rsi,[rip+0x0]        # 3021 <CL_CompleteVideoName+0x21>
    3021:	48 8d 3d 00 00 00 00 	lea    rdi,[rip+0x0]        # 3028 <CL_CompleteVideoName+0x28>
    3028:	e9 00 00 00 00       	jmp    302d <CL_CompleteVideoName+0x2d>
    302d:	0f 1f 00             	nop    DWORD PTR [rax]

0000000000003030 <CL_CompleteRecordName>:
CL_CompleteRecordName():
    3030:	83 fe 02             	cmp    esi,0x2
    3033:	74 0b                	je     3040 <CL_CompleteRecordName+0x10>
    3035:	c3                   	ret    
    3036:	66 2e 0f 1f 84 00 00 	nop    WORD PTR cs:[rax+rax*1+0x0]
    303d:	00 00 00 
    3040:	53                   	push   rbx
    3041:	b9 44 00 00 00       	mov    ecx,0x44
    3046:	48 8d 15 00 00 00 00 	lea    rdx,[rip+0x0]        # 304d <CL_CompleteRecordName+0x1d>
    304d:	31 c0                	xor    eax,eax
    304f:	be 10 00 00 00       	mov    esi,0x10
    3054:	48 83 ec 10          	sub    rsp,0x10
    3058:	48 89 e3             	mov    rbx,rsp
    305b:	48 89 df             	mov    rdi,rbx
    305e:	e8 00 00 00 00       	call   3063 <CL_CompleteRecordName+0x33>
    3063:	48 89 de             	mov    rsi,rbx
    3066:	b9 09 00 00 00       	mov    ecx,0x9
    306b:	ba 01 00 00 00       	mov    edx,0x1
    3070:	48 8d 3d 00 00 00 00 	lea    rdi,[rip+0x0]        # 3077 <CL_CompleteRecordName+0x47>
    3077:	e8 00 00 00 00       	call   307c <CL_CompleteRecordName+0x4c>
    307c:	48 83 c4 10          	add    rsp,0x10
    3080:	5b                   	pop    rbx
    3081:	c3                   	ret    
    3082:	66 66 2e 0f 1f 84 00 	data16 nop WORD PTR cs:[rax+rax*1+0x0]
    3089:	00 00 00 00 
    308d:	0f 1f 00             	nop    DWORD PTR [rax]

0000000000003090 <CL_Rcon_f.part.11>:
CL_Rcon_f.part.11():
    3090:	53                   	push   rbx
    3091:	be 20 00 00 00       	mov    esi,0x20
    3096:	48 81 ec 10 04 00 00 	sub    rsp,0x410
    309d:	48 8b 05 00 00 00 00 	mov    rax,QWORD PTR [rip+0x0]        # 30a4 <CL_Rcon_f.part.11+0x14>
    30a4:	c6 44 24 04 00       	mov    BYTE PTR [rsp+0x4],0x0
    30a9:	48 8b 78 08          	mov    rdi,QWORD PTR [rax+0x8]
    30ad:	c7 04 24 ff ff ff ff 	mov    DWORD PTR [rsp],0xffffffff
    30b4:	e8 00 00 00 00       	call   30b9 <CL_Rcon_f.part.11+0x29>
    30b9:	48 89 c3             	mov    rbx,rax
    30bc:	e8 00 00 00 00       	call   30c1 <CL_Rcon_f.part.11+0x31>
    30c1:	48 8b 15 00 00 00 00 	mov    rdx,QWORD PTR [rip+0x0]        # 30c8 <CL_Rcon_f.part.11+0x38>
    30c8:	48 85 db             	test   rbx,rbx
    30cb:	48 8d 35 00 00 00 00 	lea    rsi,[rip+0x0]        # 30d2 <CL_Rcon_f.part.11+0x42>
    30d2:	48 89 e3             	mov    rbx,rsp
    30d5:	4c 8d 40 05          	lea    r8,[rax+0x5]
    30d9:	48 8b 4a 08          	mov    rcx,QWORD PTR [rdx+0x8]
    30dd:	48 8d 15 00 00 00 00 	lea    rdx,[rip+0x0]        # 30e4 <CL_Rcon_f.part.11+0x54>
    30e4:	48 8d 7b 04          	lea    rdi,[rbx+0x4]
    30e8:	48 0f 44 d6          	cmove  rdx,rsi
    30ec:	be 00 04 00 00       	mov    esi,0x400
    30f1:	31 c0                	xor    eax,eax
    30f3:	e8 00 00 00 00       	call   30f8 <CL_Rcon_f.part.11+0x68>
    30f8:	48 89 da             	mov    rdx,rbx
    30fb:	48 8d 0d 00 00 00 00 	lea    rcx,[rip+0x0]        # 3102 <CL_Rcon_f.part.11+0x72>
    3102:	31 ff                	xor    edi,edi
    3104:	8d 70 05             	lea    esi,[rax+0x5]
    3107:	e8 00 00 00 00       	call   310c <CL_Rcon_f.part.11+0x7c>
    310c:	48 81 c4 10 04 00 00 	add    rsp,0x410
    3113:	5b                   	pop    rbx
    3114:	c3                   	ret    
    3115:	66 66 2e 0f 1f 84 00 	data16 nop WORD PTR cs:[rax+rax*1+0x0]
    311c:	00 00 00 00 

0000000000003120 <CL_Rcon_f>:
CL_Rcon_f():
    3120:	48 8b 05 00 00 00 00 	mov    rax,QWORD PTR [rip+0x0]        # 3127 <CL_Rcon_f+0x7>
    3127:	48 8b 40 08          	mov    rax,QWORD PTR [rax+0x8]
    312b:	80 38 00             	cmp    BYTE PTR [rax],0x0
    312e:	74 70                	je     31a0 <CL_Rcon_f+0x80>
    3130:	83 3d 00 00 00 00 04 	cmp    DWORD PTR [rip+0x0],0x4        # 3137 <CL_Rcon_f+0x17>
    3137:	77 3f                	ja     3178 <CL_Rcon_f+0x58>
    3139:	48 8b 05 00 00 00 00 	mov    rax,QWORD PTR [rip+0x0]        # 3140 <CL_Rcon_f+0x20>
    3140:	48 8b 78 08          	mov    rdi,QWORD PTR [rax+0x8]
    3144:	80 3f 00             	cmp    BYTE PTR [rdi],0x0
    3147:	74 6f                	je     31b8 <CL_Rcon_f+0x98>
    3149:	48 83 ec 08          	sub    rsp,0x8
    314d:	ba 07 00 00 00       	mov    edx,0x7
    3152:	48 8d 35 00 00 00 00 	lea    rsi,[rip+0x0]        # 3159 <CL_Rcon_f+0x39>
    3159:	e8 00 00 00 00       	call   315e <CL_Rcon_f+0x3e>
    315e:	85 c0                	test   eax,eax
    3160:	74 4e                	je     31b0 <CL_Rcon_f+0x90>
    3162:	66 83 3d 00 00 00 00 	cmp    WORD PTR [rip+0x0],0x0        # 316a <CL_Rcon_f+0x4a>
    3169:	00 
    316a:	74 64                	je     31d0 <CL_Rcon_f+0xb0>
    316c:	48 83 c4 08          	add    rsp,0x8
    3170:	e9 1b ff ff ff       	jmp    3090 <CL_Rcon_f.part.11>
    3175:	0f 1f 00             	nop    DWORD PTR [rax]
    3178:	f3 0f 6f 05 00 00 00 	movdqu xmm0,XMMWORD PTR [rip+0x0]        # 3180 <CL_Rcon_f+0x60>
    317f:	00 
    3180:	f3 0f 6f 0d 00 00 00 	movdqu xmm1,XMMWORD PTR [rip+0x0]        # 3188 <CL_Rcon_f+0x68>
    3187:	00 
    3188:	0f 11 05 00 00 00 00 	movups XMMWORD PTR [rip+0x0],xmm0        # 318f <CL_Rcon_f+0x6f>
    318f:	0f 11 0d 00 00 00 00 	movups XMMWORD PTR [rip+0x0],xmm1        # 3196 <CL_Rcon_f+0x76>
    3196:	e9 f5 fe ff ff       	jmp    3090 <CL_Rcon_f.part.11>
    319b:	0f 1f 44 00 00       	nop    DWORD PTR [rax+rax*1+0x0]
    31a0:	48 8d 3d 00 00 00 00 	lea    rdi,[rip+0x0]        # 31a7 <CL_Rcon_f+0x87>
    31a7:	31 c0                	xor    eax,eax
    31a9:	e9 00 00 00 00       	jmp    31ae <CL_Rcon_f+0x8e>
    31ae:	66 90                	xchg   ax,ax
    31b0:	48 83 c4 08          	add    rsp,0x8
    31b4:	c3                   	ret    
    31b5:	0f 1f 00             	nop    DWORD PTR [rax]
    31b8:	48 8d 3d 00 00 00 00 	lea    rdi,[rip+0x0]        # 31bf <CL_Rcon_f+0x9f>
    31bf:	31 c0                	xor    eax,eax
    31c1:	e9 00 00 00 00       	jmp    31c6 <CL_Rcon_f+0xa6>
    31c6:	66 2e 0f 1f 84 00 00 	nop    WORD PTR cs:[rax+rax*1+0x0]
    31cd:	00 00 00 
    31d0:	bf 38 6d 00 00       	mov    edi,0x6d38
    31d5:	e8 00 00 00 00       	call   31da <CL_Rcon_f+0xba>
    31da:	66 89 05 00 00 00 00 	mov    WORD PTR [rip+0x0],ax        # 31e1 <CL_Rcon_f+0xc1>
    31e1:	eb 89                	jmp    316c <CL_Rcon_f+0x4c>
    31e3:	66 66 2e 0f 1f 84 00 	data16 nop WORD PTR cs:[rax+rax*1+0x0]
    31ea:	00 00 00 00 
    31ee:	66 90                	xchg   ax,ax

00000000000031f0 <CL_CompleteDemoName>:
CL_CompleteDemoName():
    31f0:	83 fe 02             	cmp    esi,0x2
    31f3:	74 0b                	je     3200 <CL_CompleteDemoName+0x10>
    31f5:	c3                   	ret    
    31f6:	66 2e 0f 1f 84 00 00 	nop    WORD PTR cs:[rax+rax*1+0x0]
    31fd:	00 00 00 
    3200:	48 83 ec 08          	sub    rsp,0x8
    3204:	48 8d 3d a5 ef ff ff 	lea    rdi,[rip+0xffffffffffffefa5]        # 21b0 <CL_DemoNameCallback_f>
    320b:	e8 00 00 00 00       	call   3210 <CL_CompleteDemoName+0x20>
    3210:	48 8d 3d 00 00 00 00 	lea    rdi,[rip+0x0]        # 3217 <CL_CompleteDemoName+0x27>
    3217:	31 d2                	xor    edx,edx
    3219:	b9 0f 00 00 00       	mov    ecx,0xf
    321e:	48 8d 35 00 00 00 00 	lea    rsi,[rip+0x0]        # 3225 <CL_CompleteDemoName+0x35>
    3225:	e8 00 00 00 00       	call   322a <CL_CompleteDemoName+0x3a>
    322a:	31 ff                	xor    edi,edi
    322c:	48 83 c4 08          	add    rsp,0x8
    3230:	e9 00 00 00 00       	jmp    3235 <CL_CompleteDemoName+0x45>
    3235:	66 66 2e 0f 1f 84 00 	data16 nop WORD PTR cs:[rax+rax*1+0x0]
    323c:	00 00 00 00 

0000000000003240 <CL_ServersResponsePacket.isra.17>:
CL_ServersResponsePacket.isra.17():
    3240:	41 57                	push   r15
    3242:	41 56                	push   r14
    3244:	41 55                	push   r13
    3246:	41 54                	push   r12
    3248:	41 89 cc             	mov    r12d,ecx
    324b:	55                   	push   rbp
    324c:	48 89 f5             	mov    rbp,rsi
    324f:	53                   	push   rbx
    3250:	48 89 d3             	mov    rbx,rdx
    3253:	48 81 ec 28 20 00 00 	sub    rsp,0x2028
    325a:	83 3d 00 00 00 00 ff 	cmp    DWORD PTR [rip+0x0],0xffffffff        # 3261 <CL_ServersResponsePacket.isra.17+0x21>
    3261:	48 89 7c 24 08       	mov    QWORD PTR [rsp+0x8],rdi
    3266:	0f 84 43 04 00 00    	je     36af <CL_ServersResponsePacket.isra.17+0x46f>
    326c:	4c 8b 75 00          	mov    r14,QWORD PTR [rbp+0x0]
    3270:	48 63 0b             	movsxd rcx,DWORD PTR [rbx]
    3273:	44 89 e6             	mov    esi,r12d
    3276:	83 e6 01             	and    esi,0x1
    3279:	4d 8d 2c 0e          	lea    r13,[r14+rcx*1]
    327d:	eb 17                	jmp    3296 <CL_ServersResponsePacket.isra.17+0x56>
    327f:	90                   	nop
    3280:	80 fa 2f             	cmp    dl,0x2f
    3283:	75 05                	jne    328a <CL_ServersResponsePacket.isra.17+0x4a>
    3285:	40 84 f6             	test   sil,sil
    3288:	75 19                	jne    32a3 <CL_ServersResponsePacket.isra.17+0x63>
    328a:	49 89 c6             	mov    r14,rax
    328d:	49 39 c5             	cmp    r13,rax
    3290:	0f 86 10 04 00 00    	jbe    36a6 <CL_ServersResponsePacket.isra.17+0x466>
    3296:	41 0f b6 16          	movzx  edx,BYTE PTR [r14]
    329a:	49 8d 46 01          	lea    rax,[r14+0x1]
    329e:	80 fa 5c             	cmp    dl,0x5c
    32a1:	75 dd                	jne    3280 <CL_ServersResponsePacket.isra.17+0x40>
    32a3:	44 89 e7             	mov    edi,r12d
    32a6:	4c 8d 7c 24 20       	lea    r15,[rsp+0x20]
    32ab:	31 ed                	xor    ebp,ebp
    32ad:	83 e7 01             	and    edi,0x1
    32b0:	89 eb                	mov    ebx,ebp
    32b2:	4c 89 7c 24 18       	mov    QWORD PTR [rsp+0x18],r15
    32b7:	4c 89 f5             	mov    rbp,r14
    32ba:	40 88 3c 24          	mov    BYTE PTR [rsp],dil
    32be:	4c 8b 74 24 08       	mov    r14,QWORD PTR [rsp+0x8]
    32c3:	4c 89 7c 24 10       	mov    QWORD PTR [rsp+0x10],r15
    32c8:	49 39 c5             	cmp    r13,rax
    32cb:	0f 86 c1 00 00 00    	jbe    3392 <CL_ServersResponsePacket.isra.17+0x152>
    32d1:	0f 1f 80 00 00 00 00 	nop    DWORD PTR [rax+0x0]
    32d8:	0f b6 55 00          	movzx  edx,BYTE PTR [rbp+0x0]
    32dc:	80 fa 5c             	cmp    dl,0x5c
    32df:	0f 84 2b 02 00 00    	je     3510 <CL_ServersResponsePacket.isra.17+0x2d0>
    32e5:	80 fa 2f             	cmp    dl,0x2f
    32e8:	0f 85 a4 00 00 00    	jne    3392 <CL_ServersResponsePacket.isra.17+0x152>
    32ee:	80 3c 24 00          	cmp    BYTE PTR [rsp],0x0
    32f2:	0f 84 9a 00 00 00    	je     3392 <CL_ServersResponsePacket.isra.17+0x152>
    32f8:	4c 89 e9             	mov    rcx,r13
    32fb:	48 29 c1             	sub    rcx,rax
    32fe:	48 83 f9 12          	cmp    rcx,0x12
    3302:	0f 86 8a 00 00 00    	jbe    3392 <CL_ServersResponsePacket.isra.17+0x152>
    3308:	b8 01 00 00 00       	mov    eax,0x1
    330d:	0f 1f 00             	nop    DWORD PTR [rax]
    3310:	0f b6 54 05 00       	movzx  edx,BYTE PTR [rbp+rax*1+0x0]
    3315:	41 88 54 07 03       	mov    BYTE PTR [r15+rax*1+0x3],dl
    331a:	48 83 c0 01          	add    rax,0x1
    331e:	48 83 f8 11          	cmp    rax,0x11
    3322:	75 ec                	jne    3310 <CL_ServersResponsePacket.isra.17+0xd0>
    3324:	49 8b 06             	mov    rax,QWORD PTR [r14]
    3327:	41 c7 07 05 00 00 00 	mov    DWORD PTR [r15],0x5
    332e:	4c 8d 65 11          	lea    r12,[rbp+0x11]
    3332:	49 89 47 18          	mov    QWORD PTR [r15+0x18],rax
    3336:	41 0f b6 3c 24       	movzx  edi,BYTE PTR [r12]
    333b:	49 8d 6c 24 02       	lea    rbp,[r12+0x2]
    3340:	89 f8                	mov    eax,edi
    3342:	c1 e0 08             	shl    eax,0x8
    3345:	66 41 89 47 14       	mov    WORD PTR [r15+0x14],ax
    334a:	41 0f b6 7c 24 01    	movzx  edi,BYTE PTR [r12+0x1]
    3350:	01 c7                	add    edi,eax
    3352:	66 41 89 7f 14       	mov    WORD PTR [r15+0x14],di
    3357:	0f bf ff             	movsx  edi,di
    335a:	e8 00 00 00 00       	call   335f <CL_ServersResponsePacket.isra.17+0x11f>
    335f:	66 41 89 47 14       	mov    WORD PTR [r15+0x14],ax
    3364:	41 0f b6 44 24 02    	movzx  eax,BYTE PTR [r12+0x2]
    336a:	3c 5c                	cmp    al,0x5c
    336c:	74 04                	je     3372 <CL_ServersResponsePacket.isra.17+0x132>
    336e:	3c 2f                	cmp    al,0x2f
    3370:	75 20                	jne    3392 <CL_ServersResponsePacket.isra.17+0x152>
    3372:	83 c3 01             	add    ebx,0x1
    3375:	49 83 c7 20          	add    r15,0x20
    3379:	81 fb 00 01 00 00    	cmp    ebx,0x100
    337f:	0f 84 98 03 00 00    	je     371d <CL_ServersResponsePacket.isra.17+0x4dd>
    3385:	48 8d 45 01          	lea    rax,[rbp+0x1]
    3389:	49 39 c5             	cmp    r13,rax
    338c:	0f 87 46 ff ff ff    	ja     32d8 <CL_ServersResponsePacket.isra.17+0x98>
    3392:	89 dd                	mov    ebp,ebx
    3394:	48 8b 5c 24 10       	mov    rbx,QWORD PTR [rsp+0x10]
    3399:	85 ed                	test   ebp,ebp
    339b:	0f 9f c0             	setg   al
    339e:	44 8b 2d 00 00 00 00 	mov    r13d,DWORD PTR [rip+0x0]        # 33a5 <CL_ServersResponsePacket.isra.17+0x165>
    33a5:	45 31 e4             	xor    r12d,r12d
    33a8:	41 81 fd ff 0f 00 00 	cmp    r13d,0xfff
    33af:	0f 8f 44 03 00 00    	jg     36f9 <CL_ServersResponsePacket.isra.17+0x4b9>
    33b5:	84 c0                	test   al,al
    33b7:	0f 84 3c 03 00 00    	je     36f9 <CL_ServersResponsePacket.isra.17+0x4b9>
    33bd:	48 8d 05 00 00 00 00 	lea    rax,[rip+0x0]        # 33c4 <CL_ServersResponsePacket.isra.17+0x184>
    33c4:	4c 8d 35 00 00 00 00 	lea    r14,[rip+0x0]        # 33cb <CL_ServersResponsePacket.isra.17+0x18b>
    33cb:	48 89 04 24          	mov    QWORD PTR [rsp],rax
    33cf:	90                   	nop
    33d0:	8b 33                	mov    esi,DWORD PTR [rbx]
    33d2:	83 fe 04             	cmp    esi,0x4
    33d5:	0f 84 9d 02 00 00    	je     3678 <CL_ServersResponsePacket.isra.17+0x438>
    33db:	31 c0                	xor    eax,eax
    33dd:	83 fe 05             	cmp    esi,0x5
    33e0:	75 2c                	jne    340e <CL_ServersResponsePacket.isra.17+0x1ce>
    33e2:	48 8d 53 04          	lea    rdx,[rbx+0x4]
    33e6:	be 10 00 00 00       	mov    esi,0x10
    33eb:	48 01 d6             	add    rsi,rdx
    33ee:	31 c0                	xor    eax,eax
    33f0:	6b c0 65             	imul   eax,eax,0x65
    33f3:	48 83 c2 01          	add    rdx,0x1
    33f7:	0f b6 4a ff          	movzx  ecx,BYTE PTR [rdx-0x1]
    33fb:	01 c8                	add    eax,ecx
    33fd:	48 39 f2             	cmp    rdx,rsi
    3400:	75 ee                	jne    33f0 <CL_ServersResponsePacket.isra.17+0x1b0>
    3402:	89 c2                	mov    edx,eax
    3404:	c1 ea 10             	shr    edx,0x10
    3407:	31 d0                	xor    eax,edx
    3409:	25 ff 03 00 00       	and    eax,0x3ff
    340e:	4d 8b 3c c6          	mov    r15,QWORD PTR [r14+rax*8]
    3412:	4d 85 ff             	test   r15,r15
    3415:	75 16                	jne    342d <CL_ServersResponsePacket.isra.17+0x1ed>
    3417:	e9 34 01 00 00       	jmp    3550 <CL_ServersResponsePacket.isra.17+0x310>
    341c:	0f 1f 40 00          	nop    DWORD PTR [rax+0x0]
    3420:	4d 8b 7f 20          	mov    r15,QWORD PTR [r15+0x20]
    3424:	4d 85 ff             	test   r15,r15
    3427:	0f 84 23 01 00 00    	je     3550 <CL_ServersResponsePacket.isra.17+0x310>
    342d:	4c 89 fe             	mov    rsi,r15
    3430:	48 89 df             	mov    rdi,rbx
    3433:	e8 00 00 00 00       	call   3438 <CL_ServersResponsePacket.isra.17+0x1f8>
    3438:	85 c0                	test   eax,eax
    343a:	74 e4                	je     3420 <CL_ServersResponsePacket.isra.17+0x1e0>
    343c:	41 83 c4 01          	add    r12d,0x1
    3440:	48 83 c3 20          	add    rbx,0x20
    3444:	41 39 ec             	cmp    r12d,ebp
    3447:	7d 0d                	jge    3456 <CL_ServersResponsePacket.isra.17+0x216>
    3449:	41 81 fd ff 0f 00 00 	cmp    r13d,0xfff
    3450:	0f 8e 7a ff ff ff    	jle    33d0 <CL_ServersResponsePacket.isra.17+0x190>
    3456:	48 63 0d 00 00 00 00 	movsxd rcx,DWORD PTR [rip+0x0]        # 345d <CL_ServersResponsePacket.isra.17+0x21d>
    345d:	41 81 fd ff 0f 00 00 	cmp    r13d,0xfff
    3464:	7e 74                	jle    34da <CL_ServersResponsePacket.isra.17+0x29a>
    3466:	81 f9 ff 0f 00 00    	cmp    ecx,0xfff
    346c:	7f 6c                	jg     34da <CL_ServersResponsePacket.isra.17+0x29a>
    346e:	44 39 e5             	cmp    ebp,r12d
    3471:	7e 67                	jle    34da <CL_ServersResponsePacket.isra.17+0x29a>
    3473:	8d 34 29             	lea    esi,[rcx+rbp*1]
    3476:	4c 8b 3c 24          	mov    r15,QWORD PTR [rsp]
    347a:	8d 51 01             	lea    edx,[rcx+0x1]
    347d:	48 c1 e1 05          	shl    rcx,0x5
    3481:	44 29 e6             	sub    esi,r12d
    3484:	4d 63 e4             	movsxd r12,r12d
    3487:	31 c0                	xor    eax,eax
    3489:	49 c1 e4 05          	shl    r12,0x5
    348d:	49 01 cf             	add    r15,rcx
    3490:	4c 03 64 24 18       	add    r12,QWORD PTR [rsp+0x18]
    3495:	eb 18                	jmp    34af <CL_ServersResponsePacket.isra.17+0x26f>
    3497:	66 0f 1f 84 00 00 00 	nop    WORD PTR [rax+rax*1+0x0]
    349e:	00 00 
    34a0:	83 c2 01             	add    edx,0x1
    34a3:	48 83 c0 20          	add    rax,0x20
    34a7:	81 fa 01 10 00 00    	cmp    edx,0x1001
    34ad:	74 2b                	je     34da <CL_ServersResponsePacket.isra.17+0x29a>
    34af:	66 41 0f 6f 14 04    	movdqa xmm2,XMMWORD PTR [r12+rax*1]
    34b5:	66 41 0f 6f 5c 04 10 	movdqa xmm3,XMMWORD PTR [r12+rax*1+0x10]
    34bc:	89 15 00 00 00 00    	mov    DWORD PTR [rip+0x0],edx        # 34c2 <CL_ServersResponsePacket.isra.17+0x282>
    34c2:	89 d1                	mov    ecx,edx
    34c4:	41 0f 11 94 07 48 68 	movups XMMWORD PTR [r15+rax*1+0xb6848],xmm2
    34cb:	0b 00 
    34cd:	41 0f 11 9c 07 58 68 	movups XMMWORD PTR [r15+rax*1+0xb6858],xmm3
    34d4:	0b 00 
    34d6:	39 d6                	cmp    esi,edx
    34d8:	75 c6                	jne    34a0 <CL_ServersResponsePacket.isra.17+0x260>
    34da:	41 8d 54 0d 00       	lea    edx,[r13+rcx*1+0x0]
    34df:	89 ee                	mov    esi,ebp
    34e1:	48 8d 3d 00 00 00 00 	lea    rdi,[rip+0x0]        # 34e8 <CL_ServersResponsePacket.isra.17+0x2a8>
    34e8:	31 c0                	xor    eax,eax
    34ea:	44 89 2d 00 00 00 00 	mov    DWORD PTR [rip+0x0],r13d        # 34f1 <CL_ServersResponsePacket.isra.17+0x2b1>
    34f1:	e8 00 00 00 00       	call   34f6 <CL_ServersResponsePacket.isra.17+0x2b6>
    34f6:	48 81 c4 28 20 00 00 	add    rsp,0x2028
    34fd:	5b                   	pop    rbx
    34fe:	5d                   	pop    rbp
    34ff:	41 5c                	pop    r12
    3501:	41 5d                	pop    r13
    3503:	41 5e                	pop    r14
    3505:	41 5f                	pop    r15
    3507:	c3                   	ret    
    3508:	0f 1f 84 00 00 00 00 	nop    DWORD PTR [rax+rax*1+0x0]
    350f:	00 
    3510:	4c 89 e9             	mov    rcx,r13
    3513:	48 29 c1             	sub    rcx,rax
    3516:	48 83 f9 06          	cmp    rcx,0x6
    351a:	0f 86 72 fe ff ff    	jbe    3392 <CL_ServersResponsePacket.isra.17+0x152>
    3520:	b8 01 00 00 00       	mov    eax,0x1
    3525:	0f b6 54 05 00       	movzx  edx,BYTE PTR [rbp+rax*1+0x0]
    352a:	41 88 54 07 03       	mov    BYTE PTR [r15+rax*1+0x3],dl
    352f:	48 83 c0 01          	add    rax,0x1
    3533:	48 83 f8 05          	cmp    rax,0x5
    3537:	75 ec                	jne    3525 <CL_ServersResponsePacket.isra.17+0x2e5>
    3539:	4c 8d 65 05          	lea    r12,[rbp+0x5]
    353d:	41 c7 07 04 00 00 00 	mov    DWORD PTR [r15],0x4
    3544:	e9 ed fd ff ff       	jmp    3336 <CL_ServersResponsePacket.isra.17+0xf6>
    3549:	0f 1f 80 00 00 00 00 	nop    DWORD PTR [rax+0x0]
    3550:	8b 3d 00 00 00 00    	mov    edi,DWORD PTR [rip+0x0]        # 3556 <CL_ServersResponsePacket.isra.17+0x316>
    3556:	81 ff ff 0f 00 00    	cmp    edi,0xfff
    355c:	0f 87 26 01 00 00    	ja     3688 <CL_ServersResponsePacket.isra.17+0x448>
    3562:	8b 03                	mov    eax,DWORD PTR [rbx]
    3564:	83 f8 04             	cmp    eax,0x4
    3567:	0f 84 30 01 00 00    	je     369d <CL_ServersResponsePacket.isra.17+0x45d>
    356d:	83 f8 05             	cmp    eax,0x5
    3570:	0f 85 20 01 00 00    	jne    3696 <CL_ServersResponsePacket.isra.17+0x456>
    3576:	48 8d 53 04          	lea    rdx,[rbx+0x4]
    357a:	b8 10 00 00 00       	mov    eax,0x10
    357f:	48 8d 34 02          	lea    rsi,[rdx+rax*1]
    3583:	31 c0                	xor    eax,eax
    3585:	0f 1f 00             	nop    DWORD PTR [rax]
    3588:	6b c0 65             	imul   eax,eax,0x65
    358b:	48 83 c2 01          	add    rdx,0x1
    358f:	0f b6 4a ff          	movzx  ecx,BYTE PTR [rdx-0x1]
    3593:	01 c8                	add    eax,ecx
    3595:	48 39 f2             	cmp    rdx,rsi
    3598:	75 ee                	jne    3588 <CL_ServersResponsePacket.isra.17+0x348>
    359a:	89 c2                	mov    edx,eax
    359c:	c1 ea 10             	shr    edx,0x10
    359f:	31 d0                	xor    eax,edx
    35a1:	25 ff 03 00 00       	and    eax,0x3ff
    35a6:	8d 57 01             	lea    edx,[rdi+0x1]
    35a9:	48 8d 0d 00 00 00 00 	lea    rcx,[rip+0x0]        # 35b0 <CL_ServersResponsePacket.isra.17+0x370>
    35b0:	be 00 00 00 00       	mov    esi,0x0
    35b5:	66 0f 6f 0b          	movdqa xmm1,XMMWORD PTR [rbx]
    35b9:	89 15 00 00 00 00    	mov    DWORD PTR [rip+0x0],edx        # 35bf <CL_ServersResponsePacket.isra.17+0x37f>
    35bf:	48 8d 14 bf          	lea    rdx,[rdi+rdi*4]
    35c3:	66 0f 6f 43 10       	movdqa xmm0,XMMWORD PTR [rbx+0x10]
    35c8:	48 8d 14 d1          	lea    rdx,[rcx+rdx*8]
    35cc:	49 8b 0c c6          	mov    rcx,QWORD PTR [r14+rax*8]
    35d0:	49 89 14 c6          	mov    QWORD PTR [r14+rax*8],rdx
    35d4:	48 39 ca             	cmp    rdx,rcx
    35d7:	0f 11 0a             	movups XMMWORD PTR [rdx],xmm1
    35da:	48 0f 44 ce          	cmove  rcx,rsi
    35de:	0f 11 42 10          	movups XMMWORD PTR [rdx+0x10],xmm0
    35e2:	48 89 4a 20          	mov    QWORD PTR [rdx+0x20],rcx
    35e6:	49 63 c5             	movsxd rax,r13d
    35e9:	48 8d 0d 00 00 00 00 	lea    rcx,[rip+0x0]        # 35f0 <CL_ServersResponsePacket.isra.17+0x3b0>
    35f0:	48 8b 3c 24          	mov    rdi,QWORD PTR [rsp]
    35f4:	41 83 c5 01          	add    r13d,0x1
    35f8:	48 8d 14 80          	lea    rdx,[rax+rax*4]
    35fc:	48 8d 04 50          	lea    rax,[rax+rdx*2]
    3600:	48 c1 e0 04          	shl    rax,0x4
    3604:	48 8d 14 01          	lea    rdx,[rcx+rax*1]
    3608:	0f 11 0a             	movups XMMWORD PTR [rdx],xmm1
    360b:	0f 11 42 10          	movups XMMWORD PTR [rdx+0x10],xmm0
    360f:	48 8d 14 07          	lea    rdx,[rdi+rax*1]
    3613:	c6 82 60 68 00 00 00 	mov    BYTE PTR [rdx+0x6860],0x0
    361a:	c6 82 80 68 00 00 00 	mov    BYTE PTR [rdx+0x6880],0x0
    3621:	48 c7 84 08 90 00 00 	mov    QWORD PTR [rax+rcx*1+0x90],0x0
    3628:	00 00 00 00 00 
    362d:	48 8d 8c 07 c0 68 00 	lea    rcx,[rdi+rax*1+0x68c0]
    3634:	00 
    3635:	c7 82 d8 68 00 00 ff 	mov    DWORD PTR [rdx+0x68d8],0xffffffff
    363c:	ff ff ff 
    363f:	c6 82 a0 68 00 00 00 	mov    BYTE PTR [rdx+0x68a0],0x0
    3646:	48 c7 01 00 00 00 00 	mov    QWORD PTR [rcx],0x0
    364d:	48 c7 41 08 00 00 00 	mov    QWORD PTR [rcx+0x8],0x0
    3654:	00 
    3655:	48 8d 0d 00 00 00 00 	lea    rcx,[rip+0x0]        # 365c <CL_ServersResponsePacket.isra.17+0x41c>
    365c:	48 c7 04 01 00 00 00 	mov    QWORD PTR [rcx+rax*1],0x0
    3663:	00 
    3664:	c7 82 e8 68 00 00 00 	mov    DWORD PTR [rdx+0x68e8],0x0
    366b:	00 00 00 
    366e:	e9 c9 fd ff ff       	jmp    343c <CL_ServersResponsePacket.isra.17+0x1fc>
    3673:	0f 1f 44 00 00       	nop    DWORD PTR [rax+rax*1+0x0]
    3678:	48 8d 53 04          	lea    rdx,[rbx+0x4]
    367c:	e9 6a fd ff ff       	jmp    33eb <CL_ServersResponsePacket.isra.17+0x1ab>
    3681:	0f 1f 80 00 00 00 00 	nop    DWORD PTR [rax+0x0]
    3688:	66 0f 6f 0b          	movdqa xmm1,XMMWORD PTR [rbx]
    368c:	66 0f 6f 43 10       	movdqa xmm0,XMMWORD PTR [rbx+0x10]
    3691:	e9 50 ff ff ff       	jmp    35e6 <CL_ServersResponsePacket.isra.17+0x3a6>
    3696:	31 c0                	xor    eax,eax
    3698:	e9 09 ff ff ff       	jmp    35a6 <CL_ServersResponsePacket.isra.17+0x366>
    369d:	48 8d 53 04          	lea    rdx,[rbx+0x4]
    36a1:	e9 d9 fe ff ff       	jmp    357f <CL_ServersResponsePacket.isra.17+0x33f>
    36a6:	48 83 c0 01          	add    rax,0x1
    36aa:	e9 f4 fb ff ff       	jmp    32a3 <CL_ServersResponsePacket.isra.17+0x63>
    36af:	48 8d 3d 00 00 00 00 	lea    rdi,[rip+0x0]        # 36b6 <CL_ServersResponsePacket.isra.17+0x476>
    36b6:	ba 00 80 02 00       	mov    edx,0x28000
    36bb:	31 f6                	xor    esi,esi
    36bd:	c7 05 00 00 00 00 00 	mov    DWORD PTR [rip+0x0],0x0        # 36c7 <CL_ServersResponsePacket.isra.17+0x487>
    36c4:	00 00 00 
    36c7:	4c 8d 35 00 00 00 00 	lea    r14,[rip+0x0]        # 36ce <CL_ServersResponsePacket.isra.17+0x48e>
    36ce:	c7 05 00 00 00 00 00 	mov    DWORD PTR [rip+0x0],0x0        # 36d8 <CL_ServersResponsePacket.isra.17+0x498>
    36d5:	00 00 00 
    36d8:	c7 05 00 00 00 00 00 	mov    DWORD PTR [rip+0x0],0x0        # 36e2 <CL_ServersResponsePacket.isra.17+0x4a2>
    36df:	00 00 00 
    36e2:	e8 00 00 00 00       	call   36e7 <CL_ServersResponsePacket.isra.17+0x4a7>
    36e7:	b9 00 04 00 00       	mov    ecx,0x400
    36ec:	31 c0                	xor    eax,eax
    36ee:	4c 89 f7             	mov    rdi,r14
    36f1:	f3 48 ab             	rep stos QWORD PTR es:[rdi],rax
    36f4:	e9 73 fb ff ff       	jmp    326c <CL_ServersResponsePacket.isra.17+0x2c>
    36f9:	48 8d 05 00 00 00 00 	lea    rax,[rip+0x0]        # 3700 <CL_ServersResponsePacket.isra.17+0x4c0>
    3700:	48 63 0d 00 00 00 00 	movsxd rcx,DWORD PTR [rip+0x0]        # 3707 <CL_ServersResponsePacket.isra.17+0x4c7>
    3707:	48 89 04 24          	mov    QWORD PTR [rsp],rax
    370b:	41 81 fd ff 0f 00 00 	cmp    r13d,0xfff
    3712:	0f 8e c2 fd ff ff    	jle    34da <CL_ServersResponsePacket.isra.17+0x29a>
    3718:	e9 49 fd ff ff       	jmp    3466 <CL_ServersResponsePacket.isra.17+0x226>
    371d:	89 dd                	mov    ebp,ebx
    371f:	b8 01 00 00 00       	mov    eax,0x1
    3724:	48 8b 5c 24 10       	mov    rbx,QWORD PTR [rsp+0x10]
    3729:	e9 70 fc ff ff       	jmp    339e <CL_ServersResponsePacket.isra.17+0x15e>
    372e:	66 90                	xchg   ax,ax

0000000000003730 <CL_StartHunkUsers.part.18>:
CL_StartHunkUsers.part.18():
    3730:	48 83 ec 08          	sub    rsp,0x8
    3734:	48 83 3d 00 00 00 00 	cmp    QWORD PTR [rip+0x0],0x0        # 373c <CL_StartHunkUsers.part.18+0xc>
    373b:	00 
    373c:	0f 84 e6 01 00 00    	je     3928 <CL_StartHunkUsers.part.18+0x1f8>
    3742:	8b 35 00 00 00 00    	mov    esi,DWORD PTR [rip+0x0]        # 3748 <CL_StartHunkUsers.part.18+0x18>
    3748:	85 f6                	test   esi,esi
    374a:	74 34                	je     3780 <CL_StartHunkUsers.part.18+0x50>
    374c:	8b 0d 00 00 00 00    	mov    ecx,DWORD PTR [rip+0x0]        # 3752 <CL_StartHunkUsers.part.18+0x22>
    3752:	85 c9                	test   ecx,ecx
    3754:	0f 84 20 01 00 00    	je     387a <CL_StartHunkUsers.part.18+0x14a>
    375a:	8b 15 00 00 00 00    	mov    edx,DWORD PTR [rip+0x0]        # 3760 <CL_StartHunkUsers.part.18+0x30>
    3760:	85 d2                	test   edx,edx
    3762:	0f 84 2f 01 00 00    	je     3897 <CL_StartHunkUsers.part.18+0x167>
    3768:	8b 05 00 00 00 00    	mov    eax,DWORD PTR [rip+0x0]        # 376e <CL_StartHunkUsers.part.18+0x3e>
    376e:	85 c0                	test   eax,eax
    3770:	0f 84 3e 01 00 00    	je     38b4 <CL_StartHunkUsers.part.18+0x184>
    3776:	48 83 c4 08          	add    rsp,0x8
    377a:	c3                   	ret    
    377b:	0f 1f 44 00 00       	nop    DWORD PTR [rax+rax*1+0x0]
    3780:	48 8d 3d 00 00 00 00 	lea    rdi,[rip+0x0]        # 3787 <CL_StartHunkUsers.part.18+0x57>
    3787:	c7 05 00 00 00 00 01 	mov    DWORD PTR [rip+0x0],0x1        # 3791 <CL_StartHunkUsers.part.18+0x61>
    378e:	00 00 00 
    3791:	ff 15 00 00 00 00    	call   QWORD PTR [rip+0x0]        # 3797 <CL_StartHunkUsers.part.18+0x67>
    3797:	48 8d 3d 00 00 00 00 	lea    rdi,[rip+0x0]        # 379e <CL_StartHunkUsers.part.18+0x6e>
    379e:	ff 15 00 00 00 00    	call   QWORD PTR [rip+0x0]        # 37a4 <CL_StartHunkUsers.part.18+0x74>
    37a4:	48 8d 3d 00 00 00 00 	lea    rdi,[rip+0x0]        # 37ab <CL_StartHunkUsers.part.18+0x7b>
    37ab:	89 05 00 00 00 00    	mov    DWORD PTR [rip+0x0],eax        # 37b1 <CL_StartHunkUsers.part.18+0x81>
    37b1:	ff 15 00 00 00 00    	call   QWORD PTR [rip+0x0]        # 37b7 <CL_StartHunkUsers.part.18+0x87>
    37b7:	48 8d 3d 00 00 00 00 	lea    rdi,[rip+0x0]        # 37be <CL_StartHunkUsers.part.18+0x8e>
    37be:	89 05 00 00 00 00    	mov    DWORD PTR [rip+0x0],eax        # 37c4 <CL_StartHunkUsers.part.18+0x94>
    37c4:	ff 15 00 00 00 00    	call   QWORD PTR [rip+0x0]        # 37ca <CL_StartHunkUsers.part.18+0x9a>
    37ca:	8b 0d 00 00 00 00    	mov    ecx,DWORD PTR [rip+0x0]        # 37d0 <CL_StartHunkUsers.part.18+0xa0>
    37d0:	48 c7 05 00 00 00 00 	mov    QWORD PTR [rip+0x0],0x0        # 37db <CL_StartHunkUsers.part.18+0xab>
    37d7:	00 00 00 00 
    37db:	89 05 00 00 00 00    	mov    DWORD PTR [rip+0x0],eax        # 37e1 <CL_StartHunkUsers.part.18+0xb1>
    37e1:	89 c8                	mov    eax,ecx
    37e3:	69 f1 e0 01 00 00    	imul   esi,ecx,0x1e0
    37e9:	99                   	cdq    
    37ea:	f7 3d 00 00 00 00    	idiv   DWORD PTR [rip+0x0]        # 37f0 <CL_StartHunkUsers.part.18+0xc0>
    37f0:	83 e8 02             	sub    eax,0x2
    37f3:	89 05 00 00 00 00    	mov    DWORD PTR [rip+0x0],eax        # 37f9 <CL_StartHunkUsers.part.18+0xc9>
    37f9:	89 05 00 00 00 00    	mov    DWORD PTR [rip+0x0],eax        # 37ff <CL_StartHunkUsers.part.18+0xcf>
    37ff:	8b 05 00 00 00 00    	mov    eax,DWORD PTR [rip+0x0]        # 3805 <CL_StartHunkUsers.part.18+0xd5>
    3805:	8d 14 80             	lea    edx,[rax+rax*4]
    3808:	c1 e2 07             	shl    edx,0x7
    380b:	39 d6                	cmp    esi,edx
    380d:	0f 8f bd 00 00 00    	jg     38d0 <CL_StartHunkUsers.part.18+0x1a0>
    3813:	66 0f ef c0          	pxor   xmm0,xmm0
    3817:	f2 0f 10 0d 00 00 00 	movsd  xmm1,QWORD PTR [rip+0x0]        # 381f <CL_StartHunkUsers.part.18+0xef>
    381e:	00 
    381f:	66 0f ef e4          	pxor   xmm4,xmm4
    3823:	66 0f ef ed          	pxor   xmm5,xmm5
    3827:	f2 0f 2a c1          	cvtsi2sd xmm0,ecx
    382b:	f2 0f 59 c8          	mulsd  xmm1,xmm0
    382f:	f2 0f 59 05 00 00 00 	mulsd  xmm0,QWORD PTR [rip+0x0]        # 3837 <CL_StartHunkUsers.part.18+0x107>
    3836:	00 
    3837:	f2 0f 5a e1          	cvtsd2ss xmm4,xmm1
    383b:	66 0f ef c9          	pxor   xmm1,xmm1
    383f:	f3 0f 11 25 00 00 00 	movss  DWORD PTR [rip+0x0],xmm4        # 3847 <CL_StartHunkUsers.part.18+0x117>
    3846:	00 
    3847:	f2 0f 2a c8          	cvtsi2sd xmm1,eax
    384b:	f2 0f 5c c8          	subsd  xmm1,xmm0
    384f:	f2 0f 10 05 00 00 00 	movsd  xmm0,QWORD PTR [rip+0x0]        # 3857 <CL_StartHunkUsers.part.18+0x127>
    3856:	00 
    3857:	f2 0f 59 c1          	mulsd  xmm0,xmm1
    385b:	f2 0f 5a e8          	cvtsd2ss xmm5,xmm0
    385f:	f3 0f 11 2d 00 00 00 	movss  DWORD PTR [rip+0x0],xmm5        # 3867 <CL_StartHunkUsers.part.18+0x137>
    3866:	00 
    3867:	e8 00 00 00 00       	call   386c <CL_StartHunkUsers.part.18+0x13c>
    386c:	8b 0d 00 00 00 00    	mov    ecx,DWORD PTR [rip+0x0]        # 3872 <CL_StartHunkUsers.part.18+0x142>
    3872:	85 c9                	test   ecx,ecx
    3874:	0f 85 e0 fe ff ff    	jne    375a <CL_StartHunkUsers.part.18+0x2a>
    387a:	c7 05 00 00 00 00 01 	mov    DWORD PTR [rip+0x0],0x1        # 3884 <CL_StartHunkUsers.part.18+0x154>
    3881:	00 00 00 
    3884:	e8 00 00 00 00       	call   3889 <CL_StartHunkUsers.part.18+0x159>
    3889:	8b 15 00 00 00 00    	mov    edx,DWORD PTR [rip+0x0]        # 388f <CL_StartHunkUsers.part.18+0x15f>
    388f:	85 d2                	test   edx,edx
    3891:	0f 85 d1 fe ff ff    	jne    3768 <CL_StartHunkUsers.part.18+0x38>
    3897:	c7 05 00 00 00 00 01 	mov    DWORD PTR [rip+0x0],0x1        # 38a1 <CL_StartHunkUsers.part.18+0x171>
    389e:	00 00 00 
    38a1:	e8 00 00 00 00       	call   38a6 <CL_StartHunkUsers.part.18+0x176>
    38a6:	8b 05 00 00 00 00    	mov    eax,DWORD PTR [rip+0x0]        # 38ac <CL_StartHunkUsers.part.18+0x17c>
    38ac:	85 c0                	test   eax,eax
    38ae:	0f 85 c2 fe ff ff    	jne    3776 <CL_StartHunkUsers.part.18+0x46>
    38b4:	c7 05 00 00 00 00 01 	mov    DWORD PTR [rip+0x0],0x1        # 38be <CL_StartHunkUsers.part.18+0x18e>
    38bb:	00 00 00 
    38be:	48 83 c4 08          	add    rsp,0x8
    38c2:	e9 00 00 00 00       	jmp    38c7 <CL_StartHunkUsers.part.18+0x197>
    38c7:	66 0f 1f 84 00 00 00 	nop    WORD PTR [rax+rax*1+0x0]
    38ce:	00 00 
    38d0:	66 0f ef c9          	pxor   xmm1,xmm1
    38d4:	f2 0f 10 05 00 00 00 	movsd  xmm0,QWORD PTR [rip+0x0]        # 38dc <CL_StartHunkUsers.part.18+0x1ac>
    38db:	00 
    38dc:	66 0f ef d2          	pxor   xmm2,xmm2
    38e0:	66 0f ef db          	pxor   xmm3,xmm3
    38e4:	f2 0f 2a c8          	cvtsi2sd xmm1,eax
    38e8:	f2 0f 59 c1          	mulsd  xmm0,xmm1
    38ec:	f2 0f 59 0d 00 00 00 	mulsd  xmm1,QWORD PTR [rip+0x0]        # 38f4 <CL_StartHunkUsers.part.18+0x1c4>
    38f3:	00 
    38f4:	f2 0f 5a d0          	cvtsd2ss xmm2,xmm0
    38f8:	66 0f ef c0          	pxor   xmm0,xmm0
    38fc:	f3 0f 11 15 00 00 00 	movss  DWORD PTR [rip+0x0],xmm2        # 3904 <CL_StartHunkUsers.part.18+0x1d4>
    3903:	00 
    3904:	f2 0f 2a c1          	cvtsi2sd xmm0,ecx
    3908:	f2 0f 5c c1          	subsd  xmm0,xmm1
    390c:	f2 0f 59 05 00 00 00 	mulsd  xmm0,QWORD PTR [rip+0x0]        # 3914 <CL_StartHunkUsers.part.18+0x1e4>
    3913:	00 
    3914:	f2 0f 5a d8          	cvtsd2ss xmm3,xmm0
    3918:	f3 0f 11 1d 00 00 00 	movss  DWORD PTR [rip+0x0],xmm3        # 3920 <CL_StartHunkUsers.part.18+0x1f0>
    391f:	00 
    3920:	e9 42 ff ff ff       	jmp    3867 <CL_StartHunkUsers.part.18+0x137>
    3925:	0f 1f 00             	nop    DWORD PTR [rax]
    3928:	e8 e3 d7 ff ff       	call   1110 <CL_InitRef>
    392d:	e9 10 fe ff ff       	jmp    3742 <CL_StartHunkUsers.part.18+0x12>
    3932:	66 66 2e 0f 1f 84 00 	data16 nop WORD PTR cs:[rax+rax*1+0x0]
    3939:	00 00 00 00 
    393d:	0f 1f 00             	nop    DWORD PTR [rax]

0000000000003940 <CL_GetPing.part.21>:
CL_GetPing.part.21():
    3940:	48 63 ff             	movsxd rdi,edi
    3943:	41 57                	push   r15
    3945:	4c 8d 3d 00 00 00 00 	lea    r15,[rip+0x0]        # 394c <CL_GetPing.part.21+0xc>
    394c:	41 56                	push   r14
    394e:	41 89 d6             	mov    r14d,edx
    3951:	41 55                	push   r13
    3953:	49 89 cd             	mov    r13,rcx
    3956:	41 54                	push   r12
    3958:	55                   	push   rbp
    3959:	48 89 f5             	mov    rbp,rsi
    395c:	53                   	push   rbx
    395d:	48 69 df 28 04 00 00 	imul   rbx,rdi,0x428
    3964:	4d 8d 24 1f          	lea    r12,[r15+rbx*1]
    3968:	48 83 ec 08          	sub    rsp,0x8
    396c:	4c 89 e7             	mov    rdi,r12
    396f:	e8 00 00 00 00       	call   3974 <CL_GetPing.part.21+0x34>
    3974:	44 89 f2             	mov    edx,r14d
    3977:	48 89 ef             	mov    rdi,rbp
    397a:	48 89 c6             	mov    rsi,rax
    397d:	e8 00 00 00 00       	call   3982 <CL_GetPing.part.21+0x42>
    3982:	41 8b 6c 24 24       	mov    ebp,DWORD PTR [r12+0x24]
    3987:	89 ea                	mov    edx,ebp
    3989:	85 ed                	test   ebp,ebp
    398b:	74 23                	je     39b0 <CL_GetPing.part.21+0x70>
    398d:	49 8d 74 1f 28       	lea    rsi,[r15+rbx*1+0x28]
    3992:	4c 89 e7             	mov    rdi,r12
    3995:	e8 16 ee ff ff       	call   27b0 <CL_SetServerInfoByAddress>
    399a:	41 89 6d 00          	mov    DWORD PTR [r13+0x0],ebp
    399e:	48 83 c4 08          	add    rsp,0x8
    39a2:	5b                   	pop    rbx
    39a3:	5d                   	pop    rbp
    39a4:	41 5c                	pop    r12
    39a6:	41 5d                	pop    r13
    39a8:	41 5e                	pop    r14
    39aa:	41 5f                	pop    r15
    39ac:	c3                   	ret    
    39ad:	0f 1f 00             	nop    DWORD PTR [rax]
    39b0:	e8 00 00 00 00       	call   39b5 <CL_GetPing.part.21+0x75>
    39b5:	48 8d 3d 00 00 00 00 	lea    rdi,[rip+0x0]        # 39bc <CL_GetPing.part.21+0x7c>
    39bc:	41 2b 44 24 20       	sub    eax,DWORD PTR [r12+0x20]
    39c1:	41 89 c6             	mov    r14d,eax
    39c4:	e8 00 00 00 00       	call   39c9 <CL_GetPing.part.21+0x89>
    39c9:	ba 64 00 00 00       	mov    edx,0x64
    39ce:	83 f8 64             	cmp    eax,0x64
    39d1:	0f 4d d0             	cmovge edx,eax
    39d4:	41 39 d6             	cmp    r14d,edx
    39d7:	41 8b 54 24 24       	mov    edx,DWORD PTR [r12+0x24]
    39dc:	7c af                	jl     398d <CL_GetPing.part.21+0x4d>
    39de:	44 89 f5             	mov    ebp,r14d
    39e1:	eb aa                	jmp    398d <CL_GetPing.part.21+0x4d>
    39e3:	66 66 2e 0f 1f 84 00 	data16 nop WORD PTR cs:[rax+rax*1+0x0]
    39ea:	00 00 00 00 
    39ee:	66 90                	xchg   ax,ax

00000000000039f0 <CL_Download.part.22>:
CL_Download.part.22():
    39f0:	41 56                	push   r14
    39f2:	41 55                	push   r13
    39f4:	41 89 d5             	mov    r13d,edx
    39f7:	41 54                	push   r12
    39f9:	49 89 fc             	mov    r12,rdi
    39fc:	55                   	push   rbp
    39fd:	53                   	push   rbx
    39fe:	48 89 f3             	mov    rbx,rsi
    3a01:	48 81 ec 00 11 00 00 	sub    rsp,0x1100
    3a08:	0f b6 06             	movzx  eax,BYTE PTR [rsi]
    3a0b:	3c 5c                	cmp    al,0x5c
    3a0d:	74 09                	je     3a18 <CL_Download.part.22+0x28>
    3a0f:	3c 2f                	cmp    al,0x2f
    3a11:	75 14                	jne    3a27 <CL_Download.part.22+0x37>
    3a13:	0f 1f 44 00 00       	nop    DWORD PTR [rax+rax*1+0x0]
    3a18:	48 83 c3 01          	add    rbx,0x1
    3a1c:	0f b6 03             	movzx  eax,BYTE PTR [rbx]
    3a1f:	3c 2f                	cmp    al,0x2f
    3a21:	74 f5                	je     3a18 <CL_Download.part.22+0x28>
    3a23:	3c 5c                	cmp    al,0x5c
    3a25:	74 f1                	je     3a18 <CL_Download.part.22+0x28>
    3a27:	48 89 df             	mov    rdi,rbx
    3a2a:	be 2f 00 00 00       	mov    esi,0x2f
    3a2f:	e8 00 00 00 00       	call   3a34 <CL_Download.part.22+0x44>
    3a34:	48 8d 50 01          	lea    rdx,[rax+0x1]
    3a38:	48 85 c0             	test   rax,rax
    3a3b:	48 0f 45 da          	cmovne rbx,rdx
    3a3f:	48 89 df             	mov    rdi,rbx
    3a42:	e8 00 00 00 00       	call   3a47 <CL_Download.part.22+0x57>
    3a47:	89 c5                	mov    ebp,eax
    3a49:	85 c0                	test   eax,eax
    3a4b:	0f 84 bf 00 00 00    	je     3b10 <CL_Download.part.22+0x120>
    3a51:	48 8d 35 00 00 00 00 	lea    rsi,[rip+0x0]        # 3a58 <CL_Download.part.22+0x68>
    3a58:	4c 89 e7             	mov    rdi,r12
    3a5b:	e8 00 00 00 00       	call   3a60 <CL_Download.part.22+0x70>
    3a60:	85 c0                	test   eax,eax
    3a62:	74 34                	je     3a98 <CL_Download.part.22+0xa8>
    3a64:	48 8b 05 00 00 00 00 	mov    rax,QWORD PTR [rip+0x0]        # 3a6b <CL_Download.part.22+0x7b>
    3a6b:	44 89 e9             	mov    ecx,r13d
    3a6e:	48 89 de             	mov    rsi,rbx
    3a71:	48 8d 3d 00 00 00 00 	lea    rdi,[rip+0x0]        # 3a78 <CL_Download.part.22+0x88>
    3a78:	48 8b 50 08          	mov    rdx,QWORD PTR [rax+0x8]
    3a7c:	e8 00 00 00 00       	call   3a81 <CL_Download.part.22+0x91>
    3a81:	89 c5                	mov    ebp,eax
    3a83:	48 81 c4 00 11 00 00 	add    rsp,0x1100
    3a8a:	89 e8                	mov    eax,ebp
    3a8c:	5b                   	pop    rbx
    3a8d:	5d                   	pop    rbp
    3a8e:	41 5c                	pop    r12
    3a90:	41 5d                	pop    r13
    3a92:	41 5e                	pop    r14
    3a94:	c3                   	ret    
    3a95:	0f 1f 00             	nop    DWORD PTR [rax]
    3a98:	49 89 e4             	mov    r12,rsp
    3a9b:	ba 00 01 00 00       	mov    edx,0x100
    3aa0:	48 89 de             	mov    rsi,rbx
    3aa3:	31 ed                	xor    ebp,ebp
    3aa5:	4c 89 e7             	mov    rdi,r12
    3aa8:	e8 00 00 00 00       	call   3aad <CL_Download.part.22+0xbd>
    3aad:	48 8d 35 00 00 00 00 	lea    rsi,[rip+0x0]        # 3ab4 <CL_Download.part.22+0xc4>
    3ab4:	4c 89 e7             	mov    rdi,r12
    3ab7:	e8 00 00 00 00       	call   3abc <CL_Download.part.22+0xcc>
    3abc:	80 3c 24 00          	cmp    BYTE PTR [rsp],0x0
    3ac0:	74 c1                	je     3a83 <CL_Download.part.22+0x93>
    3ac2:	4c 89 e6             	mov    rsi,r12
    3ac5:	48 8d 3d 00 00 00 00 	lea    rdi,[rip+0x0]        # 3acc <CL_Download.part.22+0xdc>
    3acc:	31 c0                	xor    eax,eax
    3ace:	e8 00 00 00 00       	call   3ad3 <CL_Download.part.22+0xe3>
    3ad3:	4c 8d b4 24 00 01 00 	lea    r14,[rsp+0x100]
    3ada:	00 
    3adb:	31 f6                	xor    esi,esi
    3add:	4c 89 f2             	mov    rdx,r14
    3ae0:	48 89 c7             	mov    rdi,rax
    3ae3:	e8 00 00 00 00       	call   3ae8 <CL_Download.part.22+0xf8>
    3ae8:	85 c0                	test   eax,eax
    3aea:	0f 84 74 ff ff ff    	je     3a64 <CL_Download.part.22+0x74>
    3af0:	4c 89 f2             	mov    rdx,r14
    3af3:	4c 89 e6             	mov    rsi,r12
    3af6:	48 8d 3d 00 00 00 00 	lea    rdi,[rip+0x0]        # 3afd <CL_Download.part.22+0x10d>
    3afd:	31 c0                	xor    eax,eax
    3aff:	e8 00 00 00 00       	call   3b04 <CL_Download.part.22+0x114>
    3b04:	e9 7a ff ff ff       	jmp    3a83 <CL_Download.part.22+0x93>
    3b09:	0f 1f 80 00 00 00 00 	nop    DWORD PTR [rax+0x0]
    3b10:	48 89 de             	mov    rsi,rbx
    3b13:	48 8d 3d 00 00 00 00 	lea    rdi,[rip+0x0]        # 3b1a <CL_Download.part.22+0x12a>
    3b1a:	31 c0                	xor    eax,eax
    3b1c:	e8 00 00 00 00       	call   3b21 <CL_Download.part.22+0x131>
    3b21:	e9 5d ff ff ff       	jmp    3a83 <CL_Download.part.22+0x93>
    3b26:	66 2e 0f 1f 84 00 00 	nop    WORD PTR cs:[rax+rax*1+0x0]
    3b2d:	00 00 00 

0000000000003b30 <CL_CDDialog>:
CL_CDDialog():
    3b30:	c7 05 00 00 00 00 01 	mov    DWORD PTR [rip+0x0],0x1        # 3b3a <CL_CDDialog+0xa>
    3b37:	00 00 00 
    3b3a:	c3                   	ret    
    3b3b:	0f 1f 44 00 00       	nop    DWORD PTR [rax+rax*1+0x0]

0000000000003b40 <CL_AddReliableCommand>:
CL_AddReliableCommand():
    3b40:	8b 0d 00 00 00 00    	mov    ecx,DWORD PTR [rip+0x0]        # 3b46 <CL_AddReliableCommand+0x6>
    3b46:	85 c9                	test   ecx,ecx
    3b48:	74 21                	je     3b6b <CL_AddReliableCommand+0x2b>
    3b4a:	8b 05 00 00 00 00    	mov    eax,DWORD PTR [rip+0x0]        # 3b50 <CL_AddReliableCommand+0x10>
    3b50:	89 c2                	mov    edx,eax
    3b52:	2b 15 00 00 00 00    	sub    edx,DWORD PTR [rip+0x0]        # 3b58 <CL_AddReliableCommand+0x18>
    3b58:	85 f6                	test   esi,esi
    3b5a:	74 14                	je     3b70 <CL_AddReliableCommand+0x30>
    3b5c:	83 fa 40             	cmp    edx,0x40
    3b5f:	7e 0f                	jle    3b70 <CL_AddReliableCommand+0x30>
    3b61:	8b 15 00 00 00 00    	mov    edx,DWORD PTR [rip+0x0]        # 3b67 <CL_AddReliableCommand+0x27>
    3b67:	85 d2                	test   edx,edx
    3b69:	74 3d                	je     3ba8 <CL_AddReliableCommand+0x68>
    3b6b:	c3                   	ret    
    3b6c:	0f 1f 40 00          	nop    DWORD PTR [rax+0x0]
    3b70:	85 f6                	test   esi,esi
    3b72:	75 05                	jne    3b79 <CL_AddReliableCommand+0x39>
    3b74:	83 fa 3f             	cmp    edx,0x3f
    3b77:	7f e8                	jg     3b61 <CL_AddReliableCommand+0x21>
    3b79:	83 c0 01             	add    eax,0x1
    3b7c:	48 8d 15 00 00 00 00 	lea    rdx,[rip+0x0]        # 3b83 <CL_AddReliableCommand+0x43>
    3b83:	48 89 fe             	mov    rsi,rdi
    3b86:	89 05 00 00 00 00    	mov    DWORD PTR [rip+0x0],eax        # 3b8c <CL_AddReliableCommand+0x4c>
    3b8c:	83 e0 3f             	and    eax,0x3f
    3b8f:	48 c1 e0 0a          	shl    rax,0xa
    3b93:	48 8d 84 02 48 04 00 	lea    rax,[rdx+rax*1+0x448]
    3b9a:	00 
    3b9b:	ba 00 04 00 00       	mov    edx,0x400
    3ba0:	48 89 c7             	mov    rdi,rax
    3ba3:	e9 00 00 00 00       	jmp    3ba8 <CL_AddReliableCommand+0x68>
    3ba8:	50                   	push   rax
    3ba9:	48 8d 35 00 00 00 00 	lea    rsi,[rip+0x0]        # 3bb0 <CL_AddReliableCommand+0x70>
    3bb0:	bf 01 00 00 00       	mov    edi,0x1
    3bb5:	31 c0                	xor    eax,eax
    3bb7:	e8 00 00 00 00       	call   3bbc <CL_AddReliableCommand+0x7c>
    3bbc:	0f 1f 40 00          	nop    DWORD PTR [rax+0x0]

0000000000003bc0 <CL_SendPureChecksums.part.14>:
CL_SendPureChecksums.part.14():
    3bc0:	55                   	push   rbp
    3bc1:	48 8d 35 00 00 00 00 	lea    rsi,[rip+0x0]        # 3bc8 <CL_SendPureChecksums.part.14+0x8>
    3bc8:	31 c0                	xor    eax,eax
    3bca:	53                   	push   rbx
    3bcb:	48 81 ec 08 04 00 00 	sub    rsp,0x408
    3bd2:	8b 15 00 00 00 00    	mov    edx,DWORD PTR [rip+0x0]        # 3bd8 <CL_SendPureChecksums.part.14+0x18>
    3bd8:	48 89 e5             	mov    rbp,rsp
    3bdb:	48 89 ef             	mov    rdi,rbp
    3bde:	e8 00 00 00 00       	call   3be3 <CL_SendPureChecksums.part.14+0x23>
    3be3:	bf fe 03 00 00       	mov    edi,0x3fe
    3be8:	89 c3                	mov    ebx,eax
    3bea:	29 c7                	sub    edi,eax
    3bec:	e8 00 00 00 00       	call   3bf1 <CL_SendPureChecksums.part.14+0x31>
    3bf1:	48 63 fb             	movsxd rdi,ebx
    3bf4:	48 01 ef             	add    rdi,rbp
    3bf7:	48 89 c6             	mov    rsi,rax
    3bfa:	e8 00 00 00 00       	call   3bff <CL_SendPureChecksums.part.14+0x3f>
    3bff:	48 89 ef             	mov    rdi,rbp
    3c02:	31 f6                	xor    esi,esi
    3c04:	e8 00 00 00 00       	call   3c09 <CL_SendPureChecksums.part.14+0x49>
    3c09:	48 81 c4 08 04 00 00 	add    rsp,0x408
    3c10:	5b                   	pop    rbx
    3c11:	5d                   	pop    rbp
    3c12:	c3                   	ret    
    3c13:	66 66 2e 0f 1f 84 00 	data16 nop WORD PTR cs:[rax+rax*1+0x0]
    3c1a:	00 00 00 00 
    3c1e:	66 90                	xchg   ax,ax

0000000000003c20 <CL_ForwardToServer_f>:
CL_ForwardToServer_f():
    3c20:	83 3d 00 00 00 00 08 	cmp    DWORD PTR [rip+0x0],0x8        # 3c27 <CL_ForwardToServer_f+0x7>
    3c27:	75 0a                	jne    3c33 <CL_ForwardToServer_f+0x13>
    3c29:	8b 05 00 00 00 00    	mov    eax,DWORD PTR [rip+0x0]        # 3c2f <CL_ForwardToServer_f+0xf>
    3c2f:	85 c0                	test   eax,eax
    3c31:	74 15                	je     3c48 <CL_ForwardToServer_f+0x28>
    3c33:	48 8d 3d 00 00 00 00 	lea    rdi,[rip+0x0]        # 3c3a <CL_ForwardToServer_f+0x1a>
    3c3a:	31 c0                	xor    eax,eax
    3c3c:	e9 00 00 00 00       	jmp    3c41 <CL_ForwardToServer_f+0x21>
    3c41:	0f 1f 80 00 00 00 00 	nop    DWORD PTR [rax+0x0]
    3c48:	48 83 ec 08          	sub    rsp,0x8
    3c4c:	e8 00 00 00 00       	call   3c51 <CL_ForwardToServer_f+0x31>
    3c51:	83 f8 01             	cmp    eax,0x1
    3c54:	7e 42                	jle    3c98 <CL_ForwardToServer_f+0x78>
    3c56:	bf 01 00 00 00       	mov    edi,0x1
    3c5b:	e8 00 00 00 00       	call   3c60 <CL_ForwardToServer_f+0x40>
    3c60:	b9 09 00 00 00       	mov    ecx,0x9
    3c65:	48 8d 3d 00 00 00 00 	lea    rdi,[rip+0x0]        # 3c6c <CL_ForwardToServer_f+0x4c>
    3c6c:	48 89 c6             	mov    rsi,rax
    3c6f:	f3 a6                	repz cmps BYTE PTR ds:[rsi],BYTE PTR es:[rdi]
    3c71:	0f 97 c0             	seta   al
    3c74:	1c 00                	sbb    al,0x0
    3c76:	84 c0                	test   al,al
    3c78:	74 1e                	je     3c98 <CL_ForwardToServer_f+0x78>
    3c7a:	bf 01 00 00 00       	mov    edi,0x1
    3c7f:	e8 00 00 00 00       	call   3c84 <CL_ForwardToServer_f+0x64>
    3c84:	31 f6                	xor    esi,esi
    3c86:	48 83 c4 08          	add    rsp,0x8
    3c8a:	48 89 c7             	mov    rdi,rax
    3c8d:	e9 ae fe ff ff       	jmp    3b40 <CL_AddReliableCommand>
    3c92:	66 0f 1f 44 00 00    	nop    WORD PTR [rax+rax*1+0x0]
    3c98:	48 83 c4 08          	add    rsp,0x8
    3c9c:	c3                   	ret    
    3c9d:	0f 1f 00             	nop    DWORD PTR [rax]

0000000000003ca0 <CL_ShutdownAll>:
CL_ShutdownAll():
    3ca0:	48 83 ec 08          	sub    rsp,0x8
    3ca4:	e8 00 00 00 00       	call   3ca9 <CL_ShutdownAll+0x9>
    3ca9:	e8 00 00 00 00       	call   3cae <CL_ShutdownAll+0xe>
    3cae:	e8 00 00 00 00       	call   3cb3 <CL_ShutdownAll+0x13>
    3cb3:	e8 00 00 00 00       	call   3cb8 <CL_ShutdownAll+0x18>
    3cb8:	48 83 3d 00 00 00 00 	cmp    QWORD PTR [rip+0x0],0x0        # 3cc0 <CL_ShutdownAll+0x20>
    3cbf:	00 
    3cc0:	74 11                	je     3cd3 <CL_ShutdownAll+0x33>
    3cc2:	e8 00 00 00 00       	call   3cc7 <CL_ShutdownAll+0x27>
    3cc7:	85 c0                	test   eax,eax
    3cc9:	75 25                	jne    3cf0 <CL_ShutdownAll+0x50>
    3ccb:	31 ff                	xor    edi,edi
    3ccd:	ff 15 00 00 00 00    	call   QWORD PTR [rip+0x0]        # 3cd3 <CL_ShutdownAll+0x33>
    3cd3:	c7 05 00 00 00 00 00 	mov    DWORD PTR [rip+0x0],0x0        # 3cdd <CL_ShutdownAll+0x3d>
    3cda:	00 00 00 
    3cdd:	c7 05 00 00 00 00 00 	mov    DWORD PTR [rip+0x0],0x0        # 3ce7 <CL_ShutdownAll+0x47>
    3ce4:	00 00 00 
    3ce7:	48 83 c4 08          	add    rsp,0x8
    3ceb:	e9 00 00 00 00       	jmp    3cf0 <CL_ShutdownAll+0x50>
    3cf0:	bf 02 00 00 00       	mov    edi,0x2
    3cf5:	e8 56 c8 ff ff       	call   550 <CL_ShutdownRef>
    3cfa:	eb d7                	jmp    3cd3 <CL_ShutdownAll+0x33>
    3cfc:	0f 1f 40 00          	nop    DWORD PTR [rax+0x0]

0000000000003d00 <CL_ClearMemory>:
CL_ClearMemory():
    3d00:	48 8b 05 00 00 00 00 	mov    rax,QWORD PTR [rip+0x0]        # 3d07 <CL_ClearMemory+0x7>
    3d07:	8b 40 30             	mov    eax,DWORD PTR [rax+0x30]
    3d0a:	85 c0                	test   eax,eax
    3d0c:	75 12                	jne    3d20 <CL_ClearMemory+0x20>
    3d0e:	48 83 ec 08          	sub    rsp,0x8
    3d12:	e8 00 00 00 00       	call   3d17 <CL_ClearMemory+0x17>
    3d17:	48 83 c4 08          	add    rsp,0x8
    3d1b:	e9 00 00 00 00       	jmp    3d20 <CL_ClearMemory+0x20>
    3d20:	e9 00 00 00 00       	jmp    3d25 <CL_ClearMemory+0x25>
    3d25:	66 66 2e 0f 1f 84 00 	data16 nop WORD PTR cs:[rax+rax*1+0x0]
    3d2c:	00 00 00 00 

0000000000003d30 <CL_Vid_Restart>:
CL_Vid_Restart():
    3d30:	53                   	push   rbx
    3d31:	89 fb                	mov    ebx,edi
    3d33:	e8 00 00 00 00       	call   3d38 <CL_Vid_Restart+0x8>
    3d38:	85 c0                	test   eax,eax
    3d3a:	0f 85 08 01 00 00    	jne    3e48 <CL_Vid_Restart+0x118>
    3d40:	44 8b 05 00 00 00 00 	mov    r8d,DWORD PTR [rip+0x0]        # 3d47 <CL_Vid_Restart+0x17>
    3d47:	45 85 c0             	test   r8d,r8d
    3d4a:	0f 85 e8 00 00 00    	jne    3e38 <CL_Vid_Restart+0x108>
    3d50:	e8 00 00 00 00       	call   3d55 <CL_Vid_Restart+0x25>
    3d55:	e8 00 00 00 00       	call   3d5a <CL_Vid_Restart+0x2a>
    3d5a:	e8 00 00 00 00       	call   3d5f <CL_Vid_Restart+0x2f>
    3d5f:	85 db                	test   ebx,ebx
    3d61:	b8 02 00 00 00       	mov    eax,0x2
    3d66:	0f 44 d8             	cmove  ebx,eax
    3d69:	89 df                	mov    edi,ebx
    3d6b:	e8 e0 c7 ff ff       	call   550 <CL_ShutdownRef>
    3d70:	31 f6                	xor    esi,esi
    3d72:	48 8d 3d 00 00 00 00 	lea    rdi,[rip+0x0]        # 3d79 <CL_Vid_Restart+0x49>
    3d79:	e8 00 00 00 00       	call   3d7e <CL_Vid_Restart+0x4e>
    3d7e:	bf 06 00 00 00       	mov    edi,0x6
    3d83:	e8 00 00 00 00       	call   3d88 <CL_Vid_Restart+0x58>
    3d88:	8b 3d 00 00 00 00    	mov    edi,DWORD PTR [rip+0x0]        # 3d8e <CL_Vid_Restart+0x5e>
    3d8e:	85 ff                	test   edi,edi
    3d90:	0f 84 8a 00 00 00    	je     3e20 <CL_Vid_Restart+0xf0>
    3d96:	48 8d 35 00 00 00 00 	lea    rsi,[rip+0x0]        # 3d9d <CL_Vid_Restart+0x6d>
    3d9d:	48 8d 3d 00 00 00 00 	lea    rdi,[rip+0x0]        # 3da4 <CL_Vid_Restart+0x74>
    3da4:	c7 05 00 00 00 00 00 	mov    DWORD PTR [rip+0x0],0x0        # 3dae <CL_Vid_Restart+0x7e>
    3dab:	00 00 00 
    3dae:	e8 00 00 00 00       	call   3db3 <CL_Vid_Restart+0x83>
    3db3:	e8 00 00 00 00       	call   3db8 <CL_Vid_Restart+0x88>
    3db8:	48 8b 05 00 00 00 00 	mov    rax,QWORD PTR [rip+0x0]        # 3dbf <CL_Vid_Restart+0x8f>
    3dbf:	48 85 c0             	test   rax,rax
    3dc2:	74 0c                	je     3dd0 <CL_Vid_Restart+0xa0>
    3dc4:	8b 70 30             	mov    esi,DWORD PTR [rax+0x30]
    3dc7:	85 f6                	test   esi,esi
    3dc9:	74 05                	je     3dd0 <CL_Vid_Restart+0xa0>
    3dcb:	e8 60 f9 ff ff       	call   3730 <CL_StartHunkUsers.part.18>
    3dd0:	8b 05 00 00 00 00    	mov    eax,DWORD PTR [rip+0x0]        # 3dd6 <CL_Vid_Restart+0xa6>
    3dd6:	83 f8 05             	cmp    eax,0x5
    3dd9:	76 05                	jbe    3de0 <CL_Vid_Restart+0xb0>
    3ddb:	83 f8 09             	cmp    eax,0x9
    3dde:	75 0a                	jne    3dea <CL_Vid_Restart+0xba>
    3de0:	8b 0d 00 00 00 00    	mov    ecx,DWORD PTR [rip+0x0]        # 3de6 <CL_Vid_Restart+0xb6>
    3de6:	85 c9                	test   ecx,ecx
    3de8:	74 28                	je     3e12 <CL_Vid_Restart+0xe2>
    3dea:	c7 05 00 00 00 00 01 	mov    DWORD PTR [rip+0x0],0x1        # 3df4 <CL_Vid_Restart+0xc4>
    3df1:	00 00 00 
    3df4:	e8 00 00 00 00       	call   3df9 <CL_Vid_Restart+0xc9>
    3df9:	8b 15 00 00 00 00    	mov    edx,DWORD PTR [rip+0x0]        # 3dff <CL_Vid_Restart+0xcf>
    3dff:	85 d2                	test   edx,edx
    3e01:	74 0f                	je     3e12 <CL_Vid_Restart+0xe2>
    3e03:	8b 05 00 00 00 00    	mov    eax,DWORD PTR [rip+0x0]        # 3e09 <CL_Vid_Restart+0xd9>
    3e09:	85 c0                	test   eax,eax
    3e0b:	75 05                	jne    3e12 <CL_Vid_Restart+0xe2>
    3e0d:	e8 ae fd ff ff       	call   3bc0 <CL_SendPureChecksums.part.14>
    3e12:	c7 05 00 00 00 00 00 	mov    DWORD PTR [rip+0x0],0x0        # 3e1c <CL_Vid_Restart+0xec>
    3e19:	00 00 00 
    3e1c:	5b                   	pop    rbx
    3e1d:	c3                   	ret    
    3e1e:	66 90                	xchg   ax,ax
    3e20:	8b 3d 00 00 00 00    	mov    edi,DWORD PTR [rip+0x0]        # 3e26 <CL_Vid_Restart+0xf6>
    3e26:	31 f6                	xor    esi,esi
    3e28:	e8 00 00 00 00       	call   3e2d <CL_Vid_Restart+0xfd>
    3e2d:	e9 64 ff ff ff       	jmp    3d96 <CL_Vid_Restart+0x66>
    3e32:	66 0f 1f 44 00 00    	nop    WORD PTR [rax+rax*1+0x0]
    3e38:	e8 00 00 00 00       	call   3e3d <CL_Vid_Restart+0x10d>
    3e3d:	e9 0e ff ff ff       	jmp    3d50 <CL_Vid_Restart+0x20>
    3e42:	66 0f 1f 44 00 00    	nop    WORD PTR [rax+rax*1+0x0]
    3e48:	e8 00 00 00 00       	call   3e4d <CL_Vid_Restart+0x11d>
    3e4d:	e9 ee fe ff ff       	jmp    3d40 <CL_Vid_Restart+0x10>
    3e52:	66 66 2e 0f 1f 84 00 	data16 nop WORD PTR cs:[rax+rax*1+0x0]
    3e59:	00 00 00 00 
    3e5d:	0f 1f 00             	nop    DWORD PTR [rax]

0000000000003e60 <CL_Vid_Restart_f>:
CL_Vid_Restart_f():
    3e60:	53                   	push   rbx
    3e61:	8b 1d 00 00 00 00    	mov    ebx,DWORD PTR [rip+0x0]        # 3e67 <CL_Vid_Restart_f+0x7>
    3e67:	85 db                	test   ebx,ebx
    3e69:	74 18                	je     3e83 <CL_Vid_Restart_f+0x23>
    3e6b:	e8 00 00 00 00       	call   3e70 <CL_Vid_Restart_f+0x10>
    3e70:	29 c3                	sub    ebx,eax
    3e72:	89 d8                	mov    eax,ebx
    3e74:	c1 f8 1f             	sar    eax,0x1f
    3e77:	31 c3                	xor    ebx,eax
    3e79:	29 c3                	sub    ebx,eax
    3e7b:	81 fb f3 01 00 00    	cmp    ebx,0x1f3
    3e81:	7e 3d                	jle    3ec0 <CL_Vid_Restart_f+0x60>
    3e83:	bf 01 00 00 00       	mov    edi,0x1
    3e88:	e8 00 00 00 00       	call   3e8d <CL_Vid_Restart_f+0x2d>
    3e8d:	48 8d 35 00 00 00 00 	lea    rsi,[rip+0x0]        # 3e94 <CL_Vid_Restart_f+0x34>
    3e94:	48 89 c7             	mov    rdi,rax
    3e97:	e8 00 00 00 00       	call   3e9c <CL_Vid_Restart_f+0x3c>
    3e9c:	85 c0                	test   eax,eax
    3e9e:	75 10                	jne    3eb0 <CL_Vid_Restart_f+0x50>
    3ea0:	bf 01 00 00 00       	mov    edi,0x1
    3ea5:	5b                   	pop    rbx
    3ea6:	e9 85 fe ff ff       	jmp    3d30 <CL_Vid_Restart>
    3eab:	0f 1f 44 00 00       	nop    DWORD PTR [rax+rax*1+0x0]
    3eb0:	31 ff                	xor    edi,edi
    3eb2:	5b                   	pop    rbx
    3eb3:	e9 78 fe ff ff       	jmp    3d30 <CL_Vid_Restart>
    3eb8:	0f 1f 84 00 00 00 00 	nop    DWORD PTR [rax+rax*1+0x0]
    3ebf:	00 
    3ec0:	5b                   	pop    rbx
    3ec1:	c3                   	ret    
    3ec2:	66 66 2e 0f 1f 84 00 	data16 nop WORD PTR cs:[rax+rax*1+0x0]
    3ec9:	00 00 00 00 
    3ecd:	0f 1f 00             	nop    DWORD PTR [rax]

0000000000003ed0 <CL_Snd_Restart_f>:
CL_Snd_Restart_f():
    3ed0:	48 83 ec 08          	sub    rsp,0x8
    3ed4:	e8 00 00 00 00       	call   3ed9 <CL_Snd_Restart_f+0x9>
    3ed9:	bf 01 00 00 00       	mov    edi,0x1
    3ede:	48 83 c4 08          	add    rsp,0x8
    3ee2:	e9 49 fe ff ff       	jmp    3d30 <CL_Vid_Restart>
    3ee7:	66 0f 1f 84 00 00 00 	nop    WORD PTR [rax+rax*1+0x0]
    3eee:	00 00 

0000000000003ef0 <CL_FlushMemory>:
CL_FlushMemory():
    3ef0:	48 83 ec 08          	sub    rsp,0x8
    3ef4:	e8 00 00 00 00       	call   3ef9 <CL_FlushMemory+0x9>
    3ef9:	e8 00 00 00 00       	call   3efe <CL_FlushMemory+0xe>
    3efe:	48 8b 05 00 00 00 00 	mov    rax,QWORD PTR [rip+0x0]        # 3f05 <CL_FlushMemory+0x15>
    3f05:	48 85 c0             	test   rax,rax
    3f08:	74 16                	je     3f20 <CL_FlushMemory+0x30>
    3f0a:	8b 40 30             	mov    eax,DWORD PTR [rax+0x30]
    3f0d:	85 c0                	test   eax,eax
    3f0f:	74 0f                	je     3f20 <CL_FlushMemory+0x30>
    3f11:	48 83 c4 08          	add    rsp,0x8
    3f15:	e9 16 f8 ff ff       	jmp    3730 <CL_StartHunkUsers.part.18>
    3f1a:	66 0f 1f 44 00 00    	nop    WORD PTR [rax+rax*1+0x0]
    3f20:	48 83 c4 08          	add    rsp,0x8
    3f24:	c3                   	ret    
    3f25:	66 66 2e 0f 1f 84 00 	data16 nop WORD PTR cs:[rax+rax*1+0x0]
    3f2c:	00 00 00 00 

0000000000003f30 <CL_DownloadsComplete>:
CL_DownloadsComplete():
    3f30:	48 83 ec 08          	sub    rsp,0x8
    3f34:	44 8b 0d 00 00 00 00 	mov    r9d,DWORD PTR [rip+0x0]        # 3f3b <CL_DownloadsComplete+0xb>
    3f3b:	45 85 c9             	test   r9d,r9d
    3f3e:	75 30                	jne    3f70 <CL_DownloadsComplete+0x40>
    3f40:	8b 35 00 00 00 00    	mov    esi,DWORD PTR [rip+0x0]        # 3f46 <CL_DownloadsComplete+0x16>
    3f46:	85 f6                	test   esi,esi
    3f48:	75 66                	jne    3fb0 <CL_DownloadsComplete+0x80>
    3f4a:	c7 05 00 00 00 00 06 	mov    DWORD PTR [rip+0x0],0x6        # 3f54 <CL_DownloadsComplete+0x24>
    3f51:	00 00 00 
    3f54:	e8 00 00 00 00       	call   3f59 <CL_DownloadsComplete+0x29>
    3f59:	83 3d 00 00 00 00 06 	cmp    DWORD PTR [rip+0x0],0x6        # 3f60 <CL_DownloadsComplete+0x30>
    3f60:	74 7e                	je     3fe0 <CL_DownloadsComplete+0xb0>
    3f62:	48 83 c4 08          	add    rsp,0x8
    3f66:	c3                   	ret    
    3f67:	66 0f 1f 84 00 00 00 	nop    WORD PTR [rax+rax*1+0x0]
    3f6e:	00 00 
    3f70:	c7 05 00 00 00 00 00 	mov    DWORD PTR [rip+0x0],0x0        # 3f7a <CL_DownloadsComplete+0x4a>
    3f77:	00 00 00 
    3f7a:	e8 00 00 00 00       	call   3f7f <CL_DownloadsComplete+0x4f>
    3f7f:	44 8b 05 00 00 00 00 	mov    r8d,DWORD PTR [rip+0x0]        # 3f86 <CL_DownloadsComplete+0x56>
    3f86:	45 85 c0             	test   r8d,r8d
    3f89:	74 b5                	je     3f40 <CL_DownloadsComplete+0x10>
    3f8b:	8b 3d 00 00 00 00    	mov    edi,DWORD PTR [rip+0x0]        # 3f91 <CL_DownloadsComplete+0x61>
    3f91:	85 ff                	test   edi,edi
    3f93:	0f 85 bf 00 00 00    	jne    4058 <CL_DownloadsComplete+0x128>
    3f99:	c7 05 00 00 00 00 00 	mov    DWORD PTR [rip+0x0],0x0        # 3fa3 <CL_DownloadsComplete+0x73>
    3fa0:	00 00 00 
    3fa3:	48 83 c4 08          	add    rsp,0x8
    3fa7:	e9 94 e6 ff ff       	jmp    2640 <CL_Reconnect_f>
    3fac:	0f 1f 40 00          	nop    DWORD PTR [rax+0x0]
    3fb0:	c7 05 00 00 00 00 00 	mov    DWORD PTR [rip+0x0],0x0        # 3fba <CL_DownloadsComplete+0x8a>
    3fb7:	00 00 00 
    3fba:	8b 3d 00 00 00 00    	mov    edi,DWORD PTR [rip+0x0]        # 3fc0 <CL_DownloadsComplete+0x90>
    3fc0:	e8 00 00 00 00       	call   3fc5 <CL_DownloadsComplete+0x95>
    3fc5:	31 f6                	xor    esi,esi
    3fc7:	48 8d 3d 00 00 00 00 	lea    rdi,[rip+0x0]        # 3fce <CL_DownloadsComplete+0x9e>
    3fce:	48 83 c4 08          	add    rsp,0x8
    3fd2:	e9 69 fb ff ff       	jmp    3b40 <CL_AddReliableCommand>
    3fd7:	66 0f 1f 84 00 00 00 	nop    WORD PTR [rax+rax*1+0x0]
    3fde:	00 00 
    3fe0:	e8 00 00 00 00       	call   3fe5 <CL_DownloadsComplete+0xb5>
    3fe5:	c7 05 00 00 00 00 01 	mov    DWORD PTR [rip+0x0],0x1        # 3fef <CL_DownloadsComplete+0xbf>
    3fec:	00 00 00 
    3fef:	e8 00 00 00 00       	call   3ff4 <CL_DownloadsComplete+0xc4>
    3ff4:	8b 0d 00 00 00 00    	mov    ecx,DWORD PTR [rip+0x0]        # 3ffa <CL_DownloadsComplete+0xca>
    3ffa:	85 c9                	test   ecx,ecx
    3ffc:	74 32                	je     4030 <CL_DownloadsComplete+0x100>
    3ffe:	8b 15 00 00 00 00    	mov    edx,DWORD PTR [rip+0x0]        # 4004 <CL_DownloadsComplete+0xd4>
    4004:	85 d2                	test   edx,edx
    4006:	74 0f                	je     4017 <CL_DownloadsComplete+0xe7>
    4008:	8b 05 00 00 00 00    	mov    eax,DWORD PTR [rip+0x0]        # 400e <CL_DownloadsComplete+0xde>
    400e:	85 c0                	test   eax,eax
    4010:	75 05                	jne    4017 <CL_DownloadsComplete+0xe7>
    4012:	e8 a9 fb ff ff       	call   3bc0 <CL_SendPureChecksums.part.14>
    4017:	e8 00 00 00 00       	call   401c <CL_DownloadsComplete+0xec>
    401c:	e8 00 00 00 00       	call   4021 <CL_DownloadsComplete+0xf1>
    4021:	48 83 c4 08          	add    rsp,0x8
    4025:	e9 00 00 00 00       	jmp    402a <CL_DownloadsComplete+0xfa>
    402a:	66 0f 1f 44 00 00    	nop    WORD PTR [rax+rax*1+0x0]
    4030:	31 f6                	xor    esi,esi
    4032:	48 8d 3d 00 00 00 00 	lea    rdi,[rip+0x0]        # 4039 <CL_DownloadsComplete+0x109>
    4039:	e8 00 00 00 00       	call   403e <CL_DownloadsComplete+0x10e>
    403e:	48 8d 35 2b e7 ff ff 	lea    rsi,[rip+0xffffffffffffe72b]        # 2770 <CL_CompleteCallvote>
    4045:	48 8d 3d 00 00 00 00 	lea    rdi,[rip+0x0]        # 404c <CL_DownloadsComplete+0x11c>
    404c:	e8 00 00 00 00       	call   4051 <CL_DownloadsComplete+0x121>
    4051:	eb ab                	jmp    3ffe <CL_DownloadsComplete+0xce>
    4053:	0f 1f 44 00 00       	nop    DWORD PTR [rax+rax*1+0x0]
    4058:	8b 3d 00 00 00 00    	mov    edi,DWORD PTR [rip+0x0]        # 405e <CL_DownloadsComplete+0x12e>
    405e:	e8 00 00 00 00       	call   4063 <CL_DownloadsComplete+0x133>
    4063:	c7 05 00 00 00 00 00 	mov    DWORD PTR [rip+0x0],0x0        # 406d <CL_DownloadsComplete+0x13d>
    406a:	00 00 00 
    406d:	e9 27 ff ff ff       	jmp    3f99 <CL_DownloadsComplete+0x69>
    4072:	66 66 2e 0f 1f 84 00 	data16 nop WORD PTR cs:[rax+rax*1+0x0]
    4079:	00 00 00 00 
    407d:	0f 1f 00             	nop    DWORD PTR [rax]

0000000000004080 <CL_ClearState>:
CL_ClearState():
    4080:	ba cc e0 1d 00       	mov    edx,0x1de0cc
    4085:	31 f6                	xor    esi,esi
    4087:	48 8d 3d 00 00 00 00 	lea    rdi,[rip+0x0]        # 408e <CL_ClearState+0xe>
    408e:	e9 00 00 00 00       	jmp    4093 <CL_ClearState+0x13>
    4093:	66 66 2e 0f 1f 84 00 	data16 nop WORD PTR cs:[rax+rax*1+0x0]
    409a:	00 00 00 00 
    409e:	66 90                	xchg   ax,ax

00000000000040a0 <CL_ResetOldGame>:
CL_ResetOldGame():
    40a0:	c7 05 00 00 00 00 00 	mov    DWORD PTR [rip+0x0],0x0        # 40aa <CL_ResetOldGame+0xa>
    40a7:	00 00 00 
    40aa:	c6 05 00 00 00 00 00 	mov    BYTE PTR [rip+0x0],0x0        # 40b1 <CL_ResetOldGame+0x11>
    40b1:	c3                   	ret    
    40b2:	66 66 2e 0f 1f 84 00 	data16 nop WORD PTR cs:[rax+rax*1+0x0]
    40b9:	00 00 00 00 
    40bd:	0f 1f 00             	nop    DWORD PTR [rax]

00000000000040c0 <CL_Disconnect>:
CL_Disconnect():
    40c0:	48 8b 05 00 00 00 00 	mov    rax,QWORD PTR [rip+0x0]        # 40c7 <CL_Disconnect+0x7>
    40c7:	53                   	push   rbx
    40c8:	31 db                	xor    ebx,ebx
    40ca:	48 85 c0             	test   rax,rax
    40cd:	0f 84 7f 01 00 00    	je     4252 <CL_Disconnect+0x192>
    40d3:	44 8b 40 30          	mov    r8d,DWORD PTR [rax+0x30]
    40d7:	45 85 c0             	test   r8d,r8d
    40da:	0f 84 72 01 00 00    	je     4252 <CL_Disconnect+0x192>
    40e0:	8b 35 00 00 00 00    	mov    esi,DWORD PTR [rip+0x0]        # 40e6 <CL_Disconnect+0x26>
    40e6:	85 f6                	test   esi,esi
    40e8:	0f 85 64 01 00 00    	jne    4252 <CL_Disconnect+0x192>
    40ee:	8b 0d 00 00 00 00    	mov    ecx,DWORD PTR [rip+0x0]        # 40f4 <CL_Disconnect+0x34>
    40f4:	89 fb                	mov    ebx,edi
    40f6:	c7 05 00 00 00 00 01 	mov    DWORD PTR [rip+0x0],0x1        # 4100 <CL_Disconnect+0x40>
    40fd:	00 00 00 
    4100:	85 c9                	test   ecx,ecx
    4102:	0f 85 c8 01 00 00    	jne    42d0 <CL_Disconnect+0x210>
    4108:	8b 3d 00 00 00 00    	mov    edi,DWORD PTR [rip+0x0]        # 410e <CL_Disconnect+0x4e>
    410e:	85 ff                	test   edi,edi
    4110:	0f 85 cd 01 00 00    	jne    42e3 <CL_Disconnect+0x223>
    4116:	8b 3d 00 00 00 00    	mov    edi,DWORD PTR [rip+0x0]        # 411c <CL_Disconnect+0x5c>
    411c:	85 ff                	test   edi,edi
    411e:	0f 85 dc 01 00 00    	jne    4300 <CL_Disconnect+0x240>
    4124:	48 8d 35 00 00 00 00 	lea    rsi,[rip+0x0]        # 412b <CL_Disconnect+0x6b>
    412b:	48 8d 3d 00 00 00 00 	lea    rdi,[rip+0x0]        # 4132 <CL_Disconnect+0x72>
    4132:	c6 05 00 00 00 00 00 	mov    BYTE PTR [rip+0x0],0x0        # 4139 <CL_Disconnect+0x79>
    4139:	c6 05 00 00 00 00 00 	mov    BYTE PTR [rip+0x0],0x0        # 4140 <CL_Disconnect+0x80>
    4140:	e8 00 00 00 00       	call   4145 <CL_Disconnect+0x85>
    4145:	e8 00 00 00 00       	call   414a <CL_Disconnect+0x8a>
    414a:	85 c0                	test   eax,eax
    414c:	0f 85 c6 01 00 00    	jne    4318 <CL_Disconnect+0x258>
    4152:	48 83 3d 00 00 00 00 	cmp    QWORD PTR [rip+0x0],0x0        # 415a <CL_Disconnect+0x9a>
    4159:	00 
    415a:	74 05                	je     4161 <CL_Disconnect+0xa1>
    415c:	e8 00 00 00 00       	call   4161 <CL_Disconnect+0xa1>
    4161:	e8 00 00 00 00       	call   4166 <CL_Disconnect+0xa6>
    4166:	e8 00 00 00 00       	call   416b <CL_Disconnect+0xab>
    416b:	e8 00 00 00 00       	call   4170 <CL_Disconnect+0xb0>
    4170:	48 8b 3d 00 00 00 00 	mov    rdi,QWORD PTR [rip+0x0]        # 4177 <CL_Disconnect+0xb7>
    4177:	85 db                	test   ebx,ebx
    4179:	74 09                	je     4184 <CL_Disconnect+0xc4>
    417b:	48 85 ff             	test   rdi,rdi
    417e:	0f 85 dc 00 00 00    	jne    4260 <CL_Disconnect+0x1a0>
    4184:	48 8d 35 00 00 00 00 	lea    rsi,[rip+0x0]        # 418b <CL_Disconnect+0xcb>
    418b:	48 89 f7             	mov    rdi,rsi
    418e:	e8 00 00 00 00       	call   4193 <CL_Disconnect+0xd3>
    4193:	48 8d 35 00 00 00 00 	lea    rsi,[rip+0x0]        # 419a <CL_Disconnect+0xda>
    419a:	48 89 f7             	mov    rdi,rsi
    419d:	e8 00 00 00 00       	call   41a2 <CL_Disconnect+0xe2>
    41a2:	bf 07 00 00 00       	mov    edi,0x7
    41a7:	e8 00 00 00 00       	call   41ac <CL_Disconnect+0xec>
    41ac:	e8 00 00 00 00       	call   41b1 <CL_Disconnect+0xf1>
    41b1:	89 c3                	mov    ebx,eax
    41b3:	85 c0                	test   eax,eax
    41b5:	0f 85 05 01 00 00    	jne    42c0 <CL_Disconnect+0x200>
    41bb:	8b 05 00 00 00 00    	mov    eax,DWORD PTR [rip+0x0]        # 41c1 <CL_Disconnect+0x101>
    41c1:	83 f8 04             	cmp    eax,0x4
    41c4:	76 13                	jbe    41d9 <CL_Disconnect+0x119>
    41c6:	83 f8 09             	cmp    eax,0x9
    41c9:	74 0e                	je     41d9 <CL_Disconnect+0x119>
    41cb:	8b 15 00 00 00 00    	mov    edx,DWORD PTR [rip+0x0]        # 41d1 <CL_Disconnect+0x111>
    41d1:	85 d2                	test   edx,edx
    41d3:	0f 84 57 01 00 00    	je     4330 <CL_Disconnect+0x270>
    41d9:	ba cc e0 1d 00       	mov    edx,0x1de0cc
    41de:	31 f6                	xor    esi,esi
    41e0:	48 8d 3d 00 00 00 00 	lea    rdi,[rip+0x0]        # 41e7 <CL_Disconnect+0x127>
    41e7:	e8 00 00 00 00       	call   41ec <CL_Disconnect+0x12c>
    41ec:	ba c8 f7 02 00       	mov    edx,0x2f7c8
    41f1:	31 f6                	xor    esi,esi
    41f3:	48 8d 3d 00 00 00 00 	lea    rdi,[rip+0x0]        # 41fa <CL_Disconnect+0x13a>
    41fa:	e8 00 00 00 00       	call   41ff <CL_Disconnect+0x13f>
    41ff:	48 8d 35 00 00 00 00 	lea    rsi,[rip+0x0]        # 4206 <CL_Disconnect+0x146>
    4206:	48 8d 3d 00 00 00 00 	lea    rdi,[rip+0x0]        # 420d <CL_Disconnect+0x14d>
    420d:	c7 05 00 00 00 00 01 	mov    DWORD PTR [rip+0x0],0x1        # 4217 <CL_Disconnect+0x157>
    4214:	00 00 00 
    4217:	e8 00 00 00 00       	call   421c <CL_Disconnect+0x15c>
    421c:	31 f6                	xor    esi,esi
    421e:	31 ff                	xor    edi,edi
    4220:	c7 05 00 00 00 00 00 	mov    DWORD PTR [rip+0x0],0x0        # 422a <CL_Disconnect+0x16a>
    4227:	00 00 00 
    422a:	e8 61 c8 ff ff       	call   a90 <CL_UpdateGUID>
    422f:	e8 00 00 00 00       	call   4234 <CL_Disconnect+0x174>
    4234:	8b 05 00 00 00 00    	mov    eax,DWORD PTR [rip+0x0]        # 423a <CL_Disconnect+0x17a>
    423a:	85 c0                	test   eax,eax
    423c:	74 42                	je     4280 <CL_Disconnect+0x1c0>
    423e:	c7 05 00 00 00 00 00 	mov    DWORD PTR [rip+0x0],0x0        # 4248 <CL_Disconnect+0x188>
    4245:	00 00 00 
    4248:	c7 05 00 00 00 00 00 	mov    DWORD PTR [rip+0x0],0x0        # 4252 <CL_Disconnect+0x192>
    424f:	00 00 00 
    4252:	89 d8                	mov    eax,ebx
    4254:	5b                   	pop    rbx
    4255:	c3                   	ret    
    4256:	66 2e 0f 1f 84 00 00 	nop    WORD PTR cs:[rax+rax*1+0x0]
    425d:	00 00 00 
    4260:	31 c9                	xor    ecx,ecx
    4262:	ba 07 00 00 00       	mov    edx,0x7
    4267:	be 01 00 00 00       	mov    esi,0x1
    426c:	31 c0                	xor    eax,eax
    426e:	e8 00 00 00 00       	call   4273 <CL_Disconnect+0x1b3>
    4273:	e9 0c ff ff ff       	jmp    4184 <CL_Disconnect+0xc4>
    4278:	0f 1f 84 00 00 00 00 	nop    DWORD PTR [rax+rax*1+0x0]
    427f:	00 
    4280:	8b 1d 00 00 00 00    	mov    ebx,DWORD PTR [rip+0x0]        # 4286 <CL_Disconnect+0x1c6>
    4286:	85 db                	test   ebx,ebx
    4288:	74 be                	je     4248 <CL_Disconnect+0x188>
    428a:	48 8d 35 00 00 00 00 	lea    rsi,[rip+0x0]        # 4291 <CL_Disconnect+0x1d1>
    4291:	48 8d 3d 00 00 00 00 	lea    rdi,[rip+0x0]        # 4298 <CL_Disconnect+0x1d8>
    4298:	bb 01 00 00 00       	mov    ebx,0x1
